 sauerbraten

 Timestamp is 54270716 (Sat Sep 27 20:51:02 2014)

 Preferred load address is 00400000

 Start         Length     Name                   Class
 0001:00000000 00006940H .text                   CODE
 0001:00006940 00016a50H .text$di                CODE
 0001:0001d390 00198fe0H .text$mn                CODE
 0001:001b6370 00003e58H .text$x                 CODE
 0001:001ba1d0 00002222H .text$yd                CODE
 0002:00000000 00000570H .idata$5                DATA
 0002:00000570 00000004H .CRT$XCA                DATA
 0002:00000574 00001790H .CRT$XCU                DATA
 0002:00001d04 00000004H .CRT$XCZ                DATA
 0002:00001d08 00000004H .CRT$XIA                DATA
 0002:00001d0c 00000014H .CRT$XIC                DATA
 0002:00001d20 00000004H .CRT$XIY                DATA
 0002:00001d24 00000004H .CRT$XIZ                DATA
 0002:00001d28 00000004H .CRT$XPA                DATA
 0002:00001d2c 00000008H .CRT$XPX                DATA
 0002:00001d34 00000004H .CRT$XPXA               DATA
 0002:00001d38 00000004H .CRT$XPZ                DATA
 0002:00001d3c 00000004H .CRT$XTA                DATA
 0002:00001d40 00000004H .CRT$XTZ                DATA
 0002:00001d60 0001fc68H .rdata                  DATA
 0002:000219c8 00000060H .rdata$debug            DATA
 0002:00021a28 0000190cH .rdata$r                DATA
 0002:00023334 0000008cH .rdata$zzz              DATA
 0002:000233c0 00000004H .rtc$IAA                DATA
 0002:000233c4 00000004H .rtc$IZZ                DATA
 0002:000233c8 00000004H .rtc$TAA                DATA
 0002:000233cc 00000004H .rtc$TZZ                DATA
 0002:000233d0 000065a4H .xdata$x                DATA
 0002:00029974 00000000H .edata                  DATA
 0002:00029974 000000dcH .idata$2                DATA
 0002:00029a50 00000014H .idata$3                DATA
 0002:00029a64 00000570H .idata$4                DATA
 0002:00029fd4 00001572H .idata$6                DATA
 0003:00000000 000055ccH .data                   DATA
 0003:000055cc 000009d8H .data$r                 DATA
 0003:00005fc0 000c1b00H .bss                    DATA
 0004:00000000 000005f0H _RDATA                  DATA
 0005:00000000 000000e8H .rsrc$01                DATA
 0005:000000f0 00002868H .rsrc$02                DATA

  Address         Publics by Value              Rva+Base       Lib:Object

 0000:00000000       ___safe_se_handler_count   00000000     <absolute>
 0000:00000000       __except_list              00000000     <absolute>
 0000:00000000       ___guard_fids_count        00000000     <absolute>
 0000:00000000       ___safe_se_handler_table   00000000     <absolute>
 0000:00000000       ___guard_flags             00000000     <absolute>
 0000:00000000       ___guard_fids_table        00000000     <absolute>
 0000:00000000       ___ImageBase               00400000     <linker-defined>
 0001:00000000       _enet_host_create          00401000 f   enet:host.o
 0001:000003c0       _enet_host_destroy         004013c0 f   enet:host.o
 0001:00000450       _enet_host_connect         00401450 f   enet:host.o
 0001:00000700       _enet_host_broadcast       00401700 f   enet:host.o
 0001:00000780       _enet_host_compress        00401780 f   enet:host.o
 0001:000007f0       _enet_host_channel_limit   004017f0 f   enet:host.o
 0001:00000810       _enet_host_bandwidth_limit 00401810 f   enet:host.o
 0001:00000830       _enet_host_bandwidth_throttle 00401830 f   enet:host.o
 0001:00000bf0       _enet_peer_throttle_configure 00401bf0 f   enet:peer.o
 0001:00000e00       _enet_peer_throttle        00401e00 f   enet:peer.o
 0001:00000e80       _enet_peer_receive         00401e80 f   enet:peer.o
 0001:00000ef0       _enet_peer_reset_queues    00401ef0 f   enet:peer.o
 0001:00001230       _enet_peer_on_connect      00402230 f   enet:peer.o
 0001:00001260       _enet_peer_on_disconnect   00402260 f   enet:peer.o
 0001:00001290       _enet_peer_reset           00402290 f   enet:peer.o
 0001:000014a0       _enet_peer_ping_interval   004024a0 f   enet:peer.o
 0001:000014c0       _enet_peer_timeout         004024c0 f   enet:peer.o
 0001:00001510       _enet_peer_queue_acknowledgement 00402510 f   enet:peer.o
 0001:000015f0       _enet_peer_setup_outgoing_command 004025f0 f   enet:peer.o
 0001:00001770       _enet_peer_ping            00402770 f   enet:peer.o
 0001:000017c0       _enet_peer_disconnect      004027c0 f   enet:peer.o
 0001:000018a0       _enet_peer_queue_outgoing_command 004028a0 f   enet:peer.o
 0001:00001ab0       _enet_peer_send            00402ab0 f   enet:peer.o
 0001:00001da0       _enet_peer_disconnect_now  00402da0 f   enet:peer.o
 0001:00002040       _enet_peer_disconnect_later 00403040 f   enet:peer.o
 0001:00002170       _enet_peer_dispatch_incoming_unreliable_commands 00403170 f   enet:peer.o
 0001:000023c0       _enet_peer_dispatch_incoming_reliable_commands 004033c0 f   enet:peer.o
 0001:000024c0       _enet_peer_queue_incoming_command 004034c0 f   enet:peer.o
 0001:00002960       _enet_initialize           00403960 f   enet:win32.o
 0001:000029d0       _enet_deinitialize         004039d0 f   enet:win32.o
 0001:000029f0       _enet_host_random_seed     004039f0 f   enet:win32.o
 0001:00002a00       _enet_time_get             00403a00 f   enet:win32.o
 0001:00002a20       _enet_time_set             00403a20 f   enet:win32.o
 0001:00002a40       _enet_address_set_host     00403a40 f   enet:win32.o
 0001:00002aa0       _enet_address_get_host_ip  00403aa0 f   enet:win32.o
 0001:00002af0       _enet_address_get_host     00403af0 f   enet:win32.o
 0001:00002b70       _enet_socket_bind          00403b70 f   enet:win32.o
 0001:00002bf0       _enet_socket_get_address   00403bf0 f   enet:win32.o
 0001:00002c50       _enet_socket_listen        00403c50 f   enet:win32.o
 0001:00002c90       _enet_socket_create        00403c90 f   enet:win32.o
 0001:00002cc0       _enet_socket_set_option    00403cc0 f   enet:win32.o
 0001:00002e30       _enet_socket_get_option    00403e30 f   enet:win32.o
 0001:00002e90       _enet_socket_connect       00403e90 f   enet:win32.o
 0001:00002f30       _enet_socket_accept        00403f30 f   enet:win32.o
 0001:00002fd0       _enet_socket_shutdown      00403fd0 f   enet:win32.o
 0001:00003000       _enet_socket_destroy       00404000 f   enet:win32.o
 0001:00003020       _enet_socket_send          00404020 f   enet:win32.o
 0001:000030f0       _enet_socket_receive       004040f0 f   enet:win32.o
 0001:000031c0       _enet_socketset_select     004041c0 f   enet:win32.o
 0001:00003220       _enet_socket_wait          00404220 f   enet:win32.o
 0001:00004370       _enet_protocol_command_size 00405370 f   enet:protocol.o
 0001:00004380       _enet_host_flush           00405380 f   enet:protocol.o
 0001:000047d0       _enet_host_check_events    004057d0 f   enet:protocol.o
 0001:00004920       _enet_host_service         00405920 f   enet:protocol.o
 0001:000064d0       _enet_packet_create        004074d0 f   enet:packet.o
 0001:00006570       _enet_packet_destroy       00407570 f   enet:packet.o
 0001:000065c0       _enet_packet_resize        004075c0 f   enet:packet.o
 0001:00006620       _enet_crc32                00407620 f   enet:packet.o
 0001:00006800       _enet_initialize_with_callbacks 00407800 f   enet:callbacks.o
 0001:00006850       _enet_linked_version       00407850 f   enet:callbacks.o
 0001:00006860       _enet_malloc               00407860 f   enet:callbacks.o
 0001:00006890       _enet_free                 00407890 f   enet:callbacks.o
 0001:000068a0       _enet_list_clear           004078a0 f   enet:list.o
 0001:000068b0       _enet_list_insert          004078b0 f   enet:list.o
 0001:000068d0       _enet_list_remove          004078d0 f   enet:list.o
 0001:000068f0       _enet_list_move            004078f0 f   enet:list.o
 0001:00006920       _enet_list_size            00407920 f   enet:list.o
 0001:0001d390       ??_GBlendMapBranch@@QAEPAXI@Z 0041e390 f i blend.obj
 0001:0001d3d0       ?shrink@BlendMapRoot@@QAEXH@Z 0041e3d0 f i blend.obj
 0001:0001d450       ??0BlendBrush@@QAE@PBDHH@Z 0041e450 f i blend.obj
 0001:0001d4d0       ?gentex@BlendBrush@@QAEXXZ 0041e4d0 f i blend.obj
 0001:0001d670       ?reorient@BlendBrush@@QAEX_N00@Z 0041e670 f i blend.obj
 0001:0001d770       ?growbuf@?$vector@PAUBlendBrush@@@@QAEXH@Z 0041e770 f i blend.obj
 0001:0001d800       ??1ImageData@@QAE@XZ       0041e800 f i blend.obj
 0001:0001d800       ?cleanup@ImageData@@QAEXXZ 0041e800 f i blend.obj
 0001:0001d840       ??0ImageData@@QAE@XZ       0041e840 f i blend.obj
 0001:0001d860       ?newstring@@YAPADPBD@Z     0041e860 f i blend.obj
 0001:0001d8b0       ?create_ent@cubeloader@@QAEXAAUc_persistent_entity@1@@Z 0041e8b0 f i cubeloader.obj
 0001:0001dac0       ?preprocess_cubes@cubeloader@@QAEXXZ 0041eac0 f i cubeloader.obj
 0001:0001dbe0       ?getfloorceil@cubeloader@@QAEHAAUc_sqr@1@AAH1@Z 0041ebe0 f i cubeloader.obj
 0001:0001dcf0       ?boundingbox@cubeloader@@QAEXXZ 0041ecf0 f i cubeloader.obj
 0001:0001dec0       ?hf@cubeloader@@QAEXHHHHHH@Z 0041eec0 f i cubeloader.obj
 0001:0001dfa0       ?create_cubes@cubeloader@@QAEXXZ 0041efa0 f i cubeloader.obj
 0001:0001e400       ?load_cube_world@cubeloader@@QAEXPAD@Z 0041f400 f i cubeloader.obj
 0001:0001eac0       ?growbuf@?$vector@PAUfpsent@@@@QAEXH@Z 0041fac0 f i ai.obj
 0001:0001eac0       ?growbuf@?$vector@PAUplink@@@@QAEXH@Z 0041fac0 f i octa.obj
 0001:0001eac0       ?growbuf@?$vector@PAUclientinfo@server@@@@QAEXH@Z 0041fac0 f i server1.obj
 0001:0001eac0       ?growbuf@?$vector@PAUmaterialsurface@@@@QAEXH@Z 0041fac0 f i pvs.obj
 0001:0001eac0       ?growbuf@?$vector@PAUShader@@@@QAEXH@Z 0041fac0 f i shader.obj
 0001:0001eac0       ?growbuf@?$vector@PBD@@QAEXH@Z 0041fac0 f i serverbrowser.obj
 0001:0001eac0       ?growbuf@?$vector@PAUoctaentities@@@@QAEXH@Z 0041fac0 f i octarender.obj
 0001:0001eac0       ?growbuf@?$vector@PAUpart@animmodel@@@@QAEXH@Z 0041fac0 f i rendermodel.obj
 0001:0001eac0       ?growbuf@?$vector@PAUmesh@animmodel@@@@QAEXH@Z 0041fac0 f i rendermodel.obj
 0001:0001eac0       ?growbuf@?$vector@PAD@@QAEXH@Z 0041fac0 f i server.obj
 0001:0001eac0       ?growbuf@?$vector@I@@QAEXH@Z 0041fac0 f i command.obj
 0001:0001eac0       ?growbuf@?$vector@PAUphysent@@@@QAEXH@Z 0041fac0 f i physics.obj
 0001:0001eac0       ?growbuf@?$vector@H@@QAEXH@Z 0041fac0 f i lightmap.obj
 0001:0001eac0       ?growbuf@?$vector@PBUextentity@@@@QAEXH@Z 0041fac0 f i lightmap.obj
 0001:0001eac0       ?growbuf@?$vector@PAUgameevent@server@@@@QAEXH@Z 0041fac0 f i server1.obj
 0001:0001eac0       ?growbuf@?$vector@PAUident@@@@QAEXH@Z 0041fac0 f i command.obj
 0001:0001eac0       ?growbuf@?$vector@PAUplatforment@@@@QAEXH@Z 0041fac0 f i physics.obj
 0001:0001eac0       ?growbuf@?$vector@PAUskelmeshgroup@skelmodel@@@@QAEXH@Z 0041fac0 f i rendermodel.obj
 0001:0001eac0       ?growbuf@?$vector@PAUextentity@@@@QAEXH@Z 0041fac0 f i cubeloader.obj
 0001:0001eac0       ?growbuf@?$vector@PAUTexture@@@@QAEXH@Z 0041fac0 f i rendertext.obj
 0001:0001eac0       ?growbuf@?$vector@PAUvtxarray@@@@QAEXH@Z 0041fac0 f i octarender.obj
 0001:0001eac0       ?growbuf@?$vector@PAUkeym@@@@QAEXH@Z 0041fac0 f i console.obj
 0001:0001eb40       ??Rstringformatter@@QAAXPBDZZ 0041fb40 f i cubeloader.obj
 0001:0001eb70       ??0lightcacheentry@@QAE@XZ 0041fb70 f i lightmap.obj
 0001:0001ebc0       ??1lightcacheentry@@QAE@XZ 0041fbc0 f i lightmap.obj
 0001:0001ec10       ?add@?$vector@PAUvtxarray@@@@QAEAAPAUvtxarray@@ABQAU2@@Z 0041fc10 f i octarender.obj
 0001:0001ec10       ?add@?$vector@PBD@@QAEAAPBDABQBD@Z 0041fc10 f i serverbrowser.obj
 0001:0001ec10       ?add@?$vector@PAUmesh@animmodel@@@@QAEAAPAUmesh@animmodel@@ABQAU23@@Z 0041fc10 f i rendermodel.obj
 0001:0001ec10       ?add@?$vector@I@@QAEAAIABI@Z 0041fc10 f i command.obj
 0001:0001ec10       ?add@?$vector@PAUfpsent@@@@QAEAAPAUfpsent@@ABQAU2@@Z 0041fc10 f i ai.obj
 0001:0001ec10       ?add@?$vector@PAUoctaentities@@@@QAEAAPAUoctaentities@@ABQAU2@@Z 0041fc10 f i octarender.obj
 0001:0001ec10       ?add@?$vector@H@@QAEAAHABH@Z 0041fc10 f i lightmap.obj
 0001:0001ec50       ?add@?$vector@ULightMap@@@@QAEAAULightMap@@XZ 0041fc50 f i lightmap.obj
 0001:0001ed40       ?shrink@?$vector@ULightMap@@@@QAEXH@Z 0041fd40 f i lightmap.obj
 0001:0001edc0       ?add@?$vector@ULightMapTexture@@@@QAEAAULightMapTexture@@XZ 0041fdc0 f i lightmap.obj
 0001:0001ee60       ??1?$vector@PAUmesh@animmodel@@@@QAE@XZ 0041fe60 f i rendermodel.obj
 0001:0001ee60       ??1?$vector@PAUoctaentities@@@@QAE@XZ 0041fe60 f i octarender.obj
 0001:0001ee60       ??1?$vector@PAUShader@@@@QAE@XZ 0041fe60 f i shader.obj
 0001:0001ee60       ??1?$vector@PAUkeym@@@@QAE@XZ 0041fe60 f i console.obj
 0001:0001ee60       ??1?$vector@PAUgameevent@server@@@@QAE@XZ 0041fe60 f i server1.obj
 0001:0001ee60       ??1?$vector@I@@QAE@XZ      0041fe60 f i command.obj
 0001:0001ee60       ??1?$vector@PAUskelmeshgroup@skelmodel@@@@QAE@XZ 0041fe60 f i rendermodel.obj
 0001:0001ee60       ??1?$vector@PAUvtxarray@@@@QAE@XZ 0041fe60 f i octarender.obj
 0001:0001ee60       ??1?$vector@D@@QAE@XZ      0041fe60 f i worldio.obj
 0001:0001ee60       ??1?$vector@G@@QAE@XZ      0041fe60 f i octaedit.obj
 0001:0001ee60       ??1?$vector@PAUfpsent@@@@QAE@XZ 0041fe60 f i ai.obj
 0001:0001ee60       ??1?$vector@PAUTexture@@@@QAE@XZ 0041fe60 f i rendertext.obj
 0001:0001ee60       ??1?$vector@PBUextentity@@@@QAE@XZ 0041fe60 f i lightmap.obj
 0001:0001ee60       ??1?$vector@E@@QAE@XZ      0041fe60 f i octaedit.obj
 0001:0001ee60       ??1?$vector@PAUpart@animmodel@@@@QAE@XZ 0041fe60 f i rendermodel.obj
 0001:0001ee60       ??1?$vector@PAD@@QAE@XZ    0041fe60 f i server.obj
 0001:0001ee60       ??1?$vector@PAUident@@@@QAE@XZ 0041fe60 f i command.obj
 0001:0001ee60       ??1?$vector@PAUextentity@@@@QAE@XZ 0041fe60 f i entities.obj
 0001:0001ee60       ??1?$vector@PAUmaterialsurface@@@@QAE@XZ 0041fe60 f i pvs.obj
 0001:0001ee60       ??1?$vector@PAUphysent@@@@QAE@XZ 0041fe60 f i physics.obj
 0001:0001ee60       ??1?$vector@PAUclientinfo@server@@@@QAE@XZ 0041fe60 f i server1.obj
 0001:0001ee60       ??1?$vector@PAUplink@@@@QAE@XZ 0041fe60 f i octa.obj
 0001:0001ee60       ??1?$vector@H@@QAE@XZ      0041fe60 f i lightmap.obj
 0001:0001ee80       ??0?$vector@Uanimspec@animmodel@@@@QAE@XZ 0041fe80 f i rendermodel.obj
 0001:0001ee80       ??0?$vector@Uvec@@@@QAE@XZ 0041fe80 f i worldio.obj
 0001:0001ee80       ??0?$vector@PAUShader@@@@QAE@XZ 0041fe80 f i shader.obj
 0001:0001ee80       ??0?$vector@PAUclientinfo@server@@@@QAE@XZ 0041fe80 f i server1.obj
 0001:0001ee80       ??0?$vector@D@@QAE@XZ      0041fe80 f i worldio.obj
 0001:0001ee80       ??0?$vector@Utri@BIH@@@@QAE@XZ 0041fe80 f i rendermodel.obj
 0001:0001ee80       ??0?$vector@G@@QAE@XZ      0041fe80 f i octaedit.obj
 0001:0001ee80       ??0?$vector@E@@QAE@XZ      0041fe80 f i octaedit.obj
 0001:0001ee80       ??0?$vector@Ufacebounds@@@@QAE@XZ 0041fe80 f i octarender.obj
 0001:0001ee80       ??0?$vector@Ulightmaptask@@@@QAE@XZ 0041fe80 f i lightmap.obj
 0001:0001ee80       ??0?$vector@Umergedface@@@@QAE@XZ 0041fe80 f i octarender.obj
 0001:0001ee80       ??0?$vector@PAUvtxarray@@@@QAE@XZ 0041fe80 f i octarender.obj
 0001:0001eea0       ??1?$vector@UShaderParam@@@@QAE@XZ 0041fea0 f i octaedit.obj
 0001:0001eea0       ??1?$vector@Ueditline@@@@QAE@XZ 0041fea0 f i 3dgui.obj
 0001:0001eea0       ??1?$vector@Uvvertbump@skelmodel@@@@QAE@XZ 0041fea0 f i rendermodel.obj
 0001:0001eea0       ??1?$vector@Urotfriction@ragdollskel@@@@QAE@XZ 0041fea0 f i rendermodel.obj
 0001:0001eea0       ??1?$vector@Uneedfile@server@@@@QAE@XZ 0041fea0 f i server1.obj
 0001:0001eea0       ??1?$vector@Upitchtarget@skelmodel@@@@QAE@XZ 0041fea0 f i rendermodel.obj
 0001:0001eea0       ??1?$vector@Uvvertn@skelmodel@@@@QAE@XZ 0041fea0 f i rendermodel.obj
 0001:0001eea0       ??1?$vector@UTex@Slot@@@@QAE@XZ 0041fea0 f i texture.obj
 0001:0001eea0       ??1?$vector@Uvert@vertmodel@@@@QAE@XZ 0041fea0 f i rendermodel.obj
 0001:0001eea0       ??1?$vector@Uufval@unionfind@@@@QAE@XZ 0041fea0 f i material.obj
 0001:0001eea0       ??1?$vector@Usortkey@@@@QAE@XZ 0041fea0 f i octarender.obj
 0001:0001eea0       ??1?$vector@Ucrcinfo@server@@@@QAE@XZ 0041fea0 f i server1.obj
 0001:0001eea0       ??1?$vector@ULocalShaderParamState@@@@QAE@XZ 0041fea0 f i shader.obj
 0001:0001eea0       ??1?$vector@Uskin@animmodel@@@@QAE@XZ 0041fea0 f i rendermodel.obj
 0001:0001eea0       ??1?$vector@Uivec@@@@QAE@XZ 0041fea0 f i worldio.obj
 0001:0001eea0       ??1?$vector@Uvertex@@@@QAE@XZ 0041fea0 f i octarender.obj
 0001:0001eea0       ??1?$vector@Ucharinfo@font@@@@QAE@XZ 0041fea0 f i rendertext.obj
 0001:0001eea0       ??1?$vector@Ubase@collectservmode@server@@@@QAE@XZ 0041fea0 f i server1.obj
 0001:0001eea0       ??1?$vector@Umd5joint@@@@QAE@XZ 0041fea0 f i rendermodel.obj
 0001:0001eea0       ??1?$vector@Usortitem@@@@QAE@XZ 0041fea0 f i command.obj
 0001:0001eea0       ??1?$vector@Uvotecount@server@@@@QAE@XZ 0041fea0 f i server1.obj
 0001:0001eea0       ??1?$vector@Uobstacle@avoidset@ai@@@@QAE@XZ 0041fea0 f i ai.obj
 0001:0001eea0       ??1?$vector@Ubatchedmodel@@@@QAE@XZ 0041fea0 f i rendermodel.obj
 0001:0001eea0       ??1?$vector@Utoken@collectclientmode@game@@@@QAE@XZ 0041fea0 f i client1.obj
 0001:0001eea0       ??1?$vector@Utcvert@vertmodel@@@@QAE@XZ 0041fea0 f i rendermodel.obj
 0001:0001eea0       ??1?$vector@UBIHNode@@@@QAE@XZ 0041fea0 f i bih.obj
 0001:0001eea0       ??1?$vector@Uvec@@@@QAE@XZ 0041fea0 f i worldio.obj
 0001:0001eea0       ??1?$vector@UAttribLoc@@@@QAE@XZ 0041fea0 f i shader.obj
 0001:0001eea0       ??1?$vector@Utri@ragdollskel@@@@QAE@XZ 0041fea0 f i rendermodel.obj
 0001:0001eea0       ??1?$vector@Uvvert@vertmodel@@@@QAE@XZ 0041fea0 f i rendermodel.obj
 0001:0001eea0       ??1?$vector@Uvert@ragdollskel@@@@QAE@XZ 0041fea0 f i rendermodel.obj
 0001:0001eea0       ??1?$vector@Unode@wpcache@ai@@@@QAE@XZ 0041fea0 f i waypoint.obj
 0001:0001eea0       ??1?$vector@Uvvertbump@vertmodel@@@@QAE@XZ 0041fea0 f i rendermodel.obj
 0001:0001eea0       ??1?$vector@Utransparentmodel@@@@QAE@XZ 0041fea0 f i rendermodel.obj
 0001:0001eea0       ??1?$vector@Uvert@skelmodel@@@@QAE@XZ 0041fea0 f i rendermodel.obj
 0001:0001eea0       ??1?$vector@Uvvertff@vertmodel@@@@QAE@XZ 0041fea0 f i rendermodel.obj
 0001:0001eea0       ??1?$vector@Uvvertbumpw@skelmodel@@@@QAE@XZ 0041fea0 f i rendermodel.obj
 0001:0001eea0       ??1?$vector@Utri@vertmodel@@@@QAE@XZ 0041fea0 f i rendermodel.obj
 0001:0001eea0       ??1?$vector@Upoly@@@@QAE@XZ 0041fea0 f i octa.obj
 0001:0001eea0       ??1?$vector@Ugrasstri@@@@QAE@XZ 0041fea0 f i octarender.obj
 0001:0001eea0       ??1?$vector@Uholdspawn@ctfclientmode@game@@@@QAE@XZ 0041fea0 f i client1.obj
 0001:0001eea0       ??1?$vector@Uaviindexentry@@@@QAE@XZ 0041fea0 f i movie.obj
 0001:0001eea0       ??1?$vector@Uvvert@skelmodel@@@@QAE@XZ 0041fea0 f i rendermodel.obj
 0001:0001eea0       ??1?$vector@Utri@skelmodel@@@@QAE@XZ 0041fea0 f i rendermodel.obj
 0001:0001eea0       ??1?$vector@Ujoint@ragdollskel@@@@QAE@XZ 0041fea0 f i rendermodel.obj
 0001:0001eea0       ??1?$vector@UUniformLoc@@@@QAE@XZ 0041fea0 f i shader.obj
 0001:0001eea0       ??1?$vector@Udistlimit@ragdollskel@@@@QAE@XZ 0041fea0 f i rendermodel.obj
 0001:0001eea0       ??1?$vector@Uflag@ctfclientmode@game@@@@QAE@XZ 0041fea0 f i client1.obj
 0001:0001eea0       ??1?$vector@Ubaseinfo@captureclientmode@game@@@@QAE@XZ 0041fea0 f i client1.obj
 0001:0001eea0       ??1?$vector@Uholdspawn@ctfservmode@server@@@@QAE@XZ 0041fea0 f i server1.obj
 0001:0001eea0       ??1?$vector@Uaistate@ai@@@@QAE@XZ 0041fea0 f i ai.obj
 0001:0001eea0       ??1?$vector@Ulinkedpart@animmodel@@@@QAE@XZ 0041fea0 f i rendermodel.obj
 0001:0001eea0       ??1?$vector@Uwaterinfo@@@@QAE@XZ 0041fea0 f i material.obj
 0001:0001eea0       ??1?$vector@Utri@BIH@@@@QAE@XZ 0041fea0 f i rendermodel.obj
 0001:0001eea0       ??1?$vector@Ubaseinfo@captureservmode@server@@@@QAE@XZ 0041fea0 f i server1.obj
 0001:0001eea0       ??1?$vector@Upitchcorrect@skelmodel@@@@QAE@XZ 0041fea0 f i rendermodel.obj
 0001:0001eea0       ??1?$vector@Uavisegmentinfo@@@@QAE@XZ 0041fea0 f i movie.obj
 0001:0001eea0       ??1?$vector@Uanimspec@animmodel@@@@QAE@XZ 0041fea0 f i rendermodel.obj
 0001:0001eea0       ??1?$vector@Urotlimit@ragdollskel@@@@QAE@XZ 0041fea0 f i rendermodel.obj
 0001:0001eea0       ??1?$vector@Uskelcacheentry@skelmodel@@@@QAE@XZ 0041fea0 f i rendermodel.obj
 0001:0001eea0       ??1?$vector@Upitchdep@skelmodel@@@@QAE@XZ 0041fea0 f i rendermodel.obj
 0001:0001eea0       ??1?$vector@Utoken@collectservmode@server@@@@QAE@XZ 0041fea0 f i server1.obj
 0001:0001eea0       ??1?$vector@Uteamscore@@@@QAE@XZ 0041fea0 f i scoreboard.obj
 0001:0001eea0       ??1?$vector@Ulightmaptask@@@@QAE@XZ 0041fea0 f i lightmap.obj
 0001:0001eea0       ??1?$vector@Ureljoint@ragdollskel@@@@QAE@XZ 0041fea0 f i rendermodel.obj
 0001:0001eea0       ??1?$vector@Uscore@captureservmode@server@@@@QAE@XZ 0041fea0 f i server1.obj
 0001:0001eea0       ??1?$vector@Ubase@collectclientmode@game@@@@QAE@XZ 0041fea0 f i client1.obj
 0001:0001eea0       ??1?$vector@Uvec2@@@@QAE@XZ 0041fea0 f i worldio.obj
 0001:0001eea0       ??1?$vector@Uantipode@skelmodel@@@@QAE@XZ 0041fea0 f i rendermodel.obj
 0001:0001eea0       ??1?$vector@Umergedface@@@@QAE@XZ 0041fea0 f i octarender.obj
 0001:0001eea0       ??1?$vector@Uhitinfo@server@@@@QAE@XZ 0041fea0 f i server1.obj
 0001:0001eea0       ??1?$vector@Ublendcombo@skelmodel@@@@QAE@XZ 0041fea0 f i rendermodel.obj
 0001:0001eea0       ??1?$vector@Uscore@captureclientmode@game@@@@QAE@XZ 0041fea0 f i client1.obj
 0001:0001eea0       ??1?$vector@Ufacebounds@@@@QAE@XZ 0041fea0 f i octarender.obj
 0001:0001eea0       ??1?$vector@Usmdbone@@@@QAE@XZ 0041fea0 f i rendermodel.obj
 0001:0001eea0       ??1?$vector@Umaterialsurface@@@@QAE@XZ 0041fea0 f i octarender.obj
 0001:0001eea0       ??1?$vector@Udualquat@@@@QAE@XZ 0041fea0 f i rendermodel.obj
 0001:0001eea0       ??1?$vector@Uvvertw@skelmodel@@@@QAE@XZ 0041fea0 f i rendermodel.obj
 0001:0001eea0       ??1?$vector@Uflag@ctfservmode@server@@@@QAE@XZ 0041fea0 f i server1.obj
 0001:0001eea0       ??1?$vector@Umd5hierarchy@@@@QAE@XZ 0041fea0 f i rendermodel.obj
 0001:0001eec0       ?move@?$vector@Ulightmaptask@@@@QAEXAAU1@@Z 0041fec0 f i lightmap.obj
 0001:0001ef60       ??0?$hashset@Ulayoutinfo@@@@QAE@H@Z 0041ff60 f i lightmap.obj
 0001:0001eff0       ??1?$hashset@Ulayoutinfo@@@@QAE@XZ 0041fff0 f i lightmap.obj
 0001:0001f040       ?clear@?$hashset@Ulayoutinfo@@@@QAEXXZ 00420040 f i lightmap.obj
 0001:0001f0b0       ?growbuf@?$vector@ULightMap@@@@QAEXH@Z 004200b0 f i lightmap.obj
 0001:0001f140       ?growbuf@?$vector@ULightMapTexture@@@@QAEXH@Z 00420140 f i lightmap.obj
 0001:0001f1d0       ?growbuf@?$vector@PAUlightmapworker@@@@QAEXH@Z 004201d0 f i lightmap.obj
 0001:0001f260       ?growbuf@?$vector@Ulightmaptask@@@@QAEXH@Z 00420260 f i lightmap.obj
 0001:0001f260       ?growbuf@?$vector@Uvert@skelmodel@@@@QAEXH@Z 00420260 f i rendermodel.obj
 0001:0001f260       ?growbuf@?$vector@Uholdspawn@ctfclientmode@game@@@@QAEXH@Z 00420260 f i client1.obj
 0001:0001f260       ?growbuf@?$vector@Uvvertw@skelmodel@@@@QAEXH@Z 00420260 f i rendermodel.obj
 0001:0001f260       ?growbuf@?$vector@Upitchdep@skelmodel@@@@QAEXH@Z 00420260 f i rendermodel.obj
 0001:0001f2e0       ?growbuf@?$vector@Ulightmapext@@@@QAEXH@Z 004202e0 f i lightmap.obj
 0001:0001f370       ??$access@Ulightmapinfo@@@?$hashset@Ulayoutinfo@@@@QAEPAUlayoutinfo@@ABUlightmapinfo@@@Z 00420370 f i lightmap.obj
 0001:0001f3f0       ??$?AUlightmapinfo@@@?$hashset@Ulayoutinfo@@@@QAEAAUlayoutinfo@@ABUlightmapinfo@@@Z 004203f0 f i lightmap.obj
 0001:0001f470       ?insert@?$hashset@Ulayoutinfo@@@@QAEPAUchain@1@I@Z 00420470 f i lightmap.obj
 0001:0001f5d0       ?update@partrenderer@@UAEXXZ 004205d0 f i renderparticles.obj
 0001:0001f5d0       ?rendergame@clientmode@game@@UAEXXZ 004205d0 f i client1.obj
 0001:0001f5d0       ?gameover@clientmode@game@@UAEXXZ 004205d0 f i client1.obj
 0001:0001f5d0       ?doclear@rendertarget@@UAEXXZ 004205d0 f i glare.obj
 0001:0001f5d0       ?cleanup@model@@UAEXXZ     004205d0 f i rendermodel.obj
 0001:0001f5d0       ??3@YAXPAX0@Z              004205d0 f i lightmap.obj
 0001:0001f5d0       ?cleanup@servmode@server@@UAEXXZ 004205d0 f i server1.obj
 0001:0001f5d0       ?cleanup@meshgroup@animmodel@@UAEXXZ 004205d0 f i rendermodel.obj
 0001:0001f5d0       ?setup@servmode@server@@UAEXXZ 004205d0 f i server1.obj
 0001:0001f5d0       ?startrender@textrenderer@@UAEXXZ 004205d0 f i renderparticles.obj
 0001:0001f5d0       ?preload@clientmode@game@@UAEXXZ 004205d0 f i client1.obj
 0001:0001f5d0       ?poplist@g3d_gui@@UAEXXZ   004205d0 f i 3dgui.obj
 0001:0001f5d0       ?endrender@textrenderer@@UAEXXZ 004205d0 f i renderparticles.obj
 0001:0001f5d0       ?newmap@servmode@server@@UAEXXZ 004205d0 f i server1.obj
 0001:0001f5d0       ?update@servmode@server@@UAEXXZ 004205d0 f i server1.obj
 0001:0001f5d0       ?preloadmeshes@model@@UAEXXZ 004205d0 f i rendermodel.obj
 0001:0001f5d0       ?setup@clientmode@game@@UAEXXZ 004205d0 f i client1.obj
 0001:0001f5d0       ?intermission@servmode@server@@UAEXXZ 004205d0 f i server1.obj
 0001:0001f5d0       ?pushlist@g3d_gui@@UAEXXZ  004205d0 f i 3dgui.obj
 0001:0001f5d0       ?endrender@model@@UAEXXZ   004205d0 f i rendermodel.obj
 0001:0001f5d0       ?cleanup@partrenderer@@UAEXXZ 004205d0 f i renderparticles.obj
 0001:0001f5d0       ?startrender@model@@UAEXXZ 004205d0 f i rendermodel.obj
 0001:0001f5d0       ?preloadshaders@model@@UAEXXZ 004205d0 f i rendermodel.obj
 0001:0001f5e0       ?calcsize@ImageData@@QBEHXZ 004205e0 f i lightmap.obj
 0001:0001f690       ??0ImageData@@QAE@HHHPAE@Z 00420690 f i lightmap.obj
 0001:0001f710       ?boundbox@model@@QAEXAAUvec@@0@Z 00420710 f i lightmap.obj
 0001:0001f780       ?above@model@@QAEMXZ       00420780 f i lightmap.obj
 0001:0001f800       ?toplane@plane@@QAE_NABUvec@@00@Z 00420800 f i lightmap.obj
 0001:0001f950       ??0plane@@QAE@XZ           00420950 f i lightmap.obj
 0001:0001f950       ??0clipplanes@@QAE@XZ      00420950 f i octa.obj
 0001:0001f950       ?animkey@meshgroup@animmodel@@UAEPAXXZ 00420950 f i rendermodel.obj
 0001:0001f960       ?iszero@vec@@QBE_NXZ       00420960 f i lightmap.obj
 0001:0001f9a0       ??0PackNode@@QAE@GGGG@Z    004209a0 f i lightmap.obj
 0001:0001f9f0       ??1PackNode@@QAE@XZ        004209f0 f i lightmap.obj
 0001:0001fa00       ?clear@PackNode@@QAEXXZ    00420a00 f i lightmap.obj
 0001:0001fa50       ??0?$hashset@Unormalgroup@@@@QAE@H@Z 00420a50 f i normal.obj
 0001:0001fae0       ??1?$hashset@Unormalgroup@@@@QAE@XZ 00420ae0 f i normal.obj
 0001:0001fb30       ?clear@?$hashset@Unormalgroup@@@@QAEXXZ 00420b30 f i normal.obj
 0001:0001fba0       ?growbuf@?$vector@Unormal@@@@QAEXH@Z 00420ba0 f i normal.obj
 0001:0001fc20       ?growbuf@?$vector@Utnormal@@@@QAEXH@Z 00420c20 f i normal.obj
 0001:0001fcb0       ??$access@Uvec@@U1@@?$hashset@Unormalgroup@@@@QAEAAUnormalgroup@@ABUvec@@0@Z 00420cb0 f i normal.obj
 0001:0001fd80       ??$access@Uvec@@@?$hashset@Unormalgroup@@@@QAEPAUnormalgroup@@ABUvec@@@Z 00420d80 f i normal.obj
 0001:0001fe10       ?insert@?$hashset@Unormalgroup@@@@QAEPAUchain@1@I@Z 00420e10 f i normal.obj
 0001:0001ffe0       ??9vec@@QBE_NABU0@@Z       00420fe0 f i normal.obj
 0001:00020020       ?cross@vec@@QAEAAU1@ABU1@00@Z 00421020 f i normal.obj
 0001:000200e0       ??8vec@@QBE_NABU0@@Z       004210e0 f i normal.obj
 0001:00020120       ??9facevec@@QBE_NABU0@@Z   00421120 f i octa.obj
 0001:00020140       ??0?$hashset@Uplink@@@@QAE@H@Z 00421140 f i octa.obj
 0001:000201b0       ??1?$hashset@U?$hashtableentry@Uivec@@H@@@@QAE@XZ 004211b0 f i rendermodel.obj
 0001:000201b0       ??1?$hashset@Uplink@@@@QAE@XZ 004211b0 f i octa.obj
 0001:000201b0       ??1?$hashset@U?$hashtableentry@Uvec@@H@@@@QAE@XZ 004211b0 f i worldio.obj
 0001:00020200       ?add@?$vector@Upoly@@@@QAEAAUpoly@@ABU2@@Z 00421200 f i octa.obj
 0001:00020270       ??A?$hashtable@Ucfkey@@Ucfpolys@@@@QAEAAUcfpolys@@ABUcfkey@@@Z 00421270 f i octa.obj
 0001:00020320       ??1?$hashset@U?$hashtableentry@Ucfkey@@Ucfpolys@@@@@@QAE@XZ 00421320 f i octa.obj
 0001:00020350       ?clear@?$hashset@U?$hashtableentry@Ucfkey@@Ucfpolys@@@@@@QAEXXZ 00421350 f i octa.obj
 0001:000203f0       ?growbuf@?$vector@Ujoint@ragdollskel@@@@QAEXH@Z 004213f0 f i rendermodel.obj
 0001:000203f0       ?growbuf@?$vector@Upoly@@@@QAEXH@Z 004213f0 f i octa.obj
 0001:00020470       ??0?$hashset@U?$hashtableentry@Ucfkey@@Ucfpolys@@@@@@QAE@H@Z 00421470 f i octa.obj
 0001:00020500       ?deletechunks@?$hashset@U?$hashtableentry@Ucfkey@@Ucfpolys@@@@@@QAEXXZ 00421500 f i octa.obj
 0001:00020570       ??1chain@?$hashset@U?$hashtableentry@Ucfkey@@Ucfpolys@@@@@@QAE@XZ 00421570 f i octa.obj
 0001:000205e0       ??1?$hashtableentry@Ucfkey@@Ucfpolys@@@@QAE@XZ 004215e0 f i octa.obj
 0001:00020640       ??1cfpolys@@QAE@XZ         00421640 f i octa.obj
 0001:00020640       ??1unionfind@@QAE@XZ       00421640 f i material.obj
 0001:00020640       ??1wpcache@ai@@QAE@XZ      00421640 f i waypoint.obj
 0001:00020690       ?insert@?$hashset@U?$hashtableentry@Ucfkey@@Ucfpolys@@@@@@QAEPAUchain@1@I@Z 00421690 f i octa.obj
 0001:00020840       ??0chain@?$hashset@U?$hashtableentry@Ucfkey@@Ucfpolys@@@@@@QAE@XZ 00421840 f i octa.obj
 0001:000208a0       ??$access@Upedge@@U1@@?$hashset@Uplink@@@@QAEAAUplink@@ABUpedge@@0@Z 004218a0 f i octa.obj
 0001:00020940       ?insert@?$hashset@Uplink@@@@QAEPAUchain@1@I@Z 00421940 f i octa.obj
 0001:00020af0       ?cross@ivec@@QAEAAU1@ABU1@0@Z 00421af0 f i octa.obj
 0001:00020b40       ??1prefab@@QAE@XZ          00421b40 f i octaedit.obj
 0001:00020b70       ?isheightmap@@YA_NHH_NPAUcube@@@Z 00421b70 f i octaedit.obj
 0001:00020bc0       ?gui@texturegui@@UAEXAAUg3d_gui@@_N@Z 00421bc0 f i octaedit.obj
 0001:00020e20       ?showtextures@texturegui@@QAEX_N@Z 00421e20 f i octaedit.obj
 0001:00020f60       ?show@texturegui@@QAEXXZ   00421f60 f i octaedit.obj
 0001:00021030       ??_Gtexturegui@@UAEPAXI@Z  00422030 f i octaedit.obj
 0001:00021030       ??_Gscoreboardgui@game@@UAEPAXI@Z 00422030 f i scoreboard.obj
 0001:00021030       ??_Etexturegui@@UAEPAXI@Z  00422030 f i * CIL library *:* CIL module *
 0001:00021030       ??_Escoreboardgui@game@@UAEPAXI@Z 00422030 f i * CIL library *:* CIL module *
 0001:00021030       ??_Gmenu@@UAEPAXI@Z        00422030 f i menus.obj
 0001:00021030       ??_Emenu@@UAEPAXI@Z        00422030 f i * CIL library *:* CIL module *
 0001:00021080       ?add@?$vector@UShaderParam@@@@QAEAAUShaderParam@@ABU2@@Z 00422080 f i octaedit.obj
 0001:000210d0       ?add@?$vector@G@@QAEAAGABG@Z 004220d0 f i octaedit.obj
 0001:00021110       ?remove@?$vector@G@@QAEGH@Z 00422110 f i octaedit.obj
 0001:00021160       ?insert@?$vector@G@@QAEAAGHABG@Z 00422160 f i octaedit.obj
 0001:000211d0       ?add@?$vector@PAUeditinfo@@@@QAEAAPAUeditinfo@@ABQAU2@@Z 004221d0 f i octaedit.obj
 0001:00021220       ?removeobj@?$vector@PAUeditinfo@@@@QAEXABQAUeditinfo@@@Z 00422220 f i octaedit.obj
 0001:00021280       ??0?$hashset@Uprefab@@@@QAE@H@Z 00422280 f i octaedit.obj
 0001:00021310       ?growbuf@?$vector@UShaderParam@@@@QAEXH@Z 00422310 f i octaedit.obj
 0001:00021310       ?growbuf@?$vector@Uvertex@@@@QAEXH@Z 00422310 f i octarender.obj
 0001:00021310       ?growbuf@?$vector@Ublendcombo@skelmodel@@@@QAEXH@Z 00422310 f i rendermodel.obj
 0001:00021310       ?growbuf@?$vector@Utoken@collectservmode@server@@@@QAEXH@Z 00422310 f i server1.obj
 0001:00021310       ?growbuf@?$vector@Uvvertn@skelmodel@@@@QAEXH@Z 00422310 f i rendermodel.obj
 0001:00021310       ?growbuf@?$vector@Upitchcorrect@skelmodel@@@@QAEXH@Z 00422310 f i rendermodel.obj
 0001:00021310       ?growbuf@?$vector@Udualquat@@@@QAEXH@Z 00422310 f i rendermodel.obj
 0001:00021310       ?growbuf@?$vector@Uvvert@vertmodel@@@@QAEXH@Z 00422310 f i rendermodel.obj
 0001:00021390       ?growbuf@?$vector@G@@QAEXH@Z 00422390 f i octaedit.obj
 0001:00021410       ?growbuf@?$vector@PAUeditinfo@@@@QAEXH@Z 00422410 f i octaedit.obj
 0001:000214a0       ?deletechunks@?$hashset@Uprefab@@@@QAEXXZ 004224a0 f i octaedit.obj
 0001:00021510       ?growbuf@?$vector@Uvslotmap@@@@QAEXH@Z 00422510 f i octaedit.obj
 0001:000215a0       ??1chain@?$hashset@Uprefab@@@@QAE@XZ 004225a0 f i octaedit.obj
 0001:00021600       ??$remove@PAD@?$hashset@Uprefab@@@@QAE_NABQAD@Z 00422600 f i octaedit.obj
 0001:00021720       ??$access@PAD@?$hashset@Uprefab@@@@QAEPAUprefab@@ABQAD@Z 00422720 f i octaedit.obj
 0001:000217b0       ??$?APAD@?$hashset@Uprefab@@@@QAEAAUprefab@@ABQAD@Z 004227b0 f i octaedit.obj
 0001:00021840       ??$find@H@?$vector@H@@QAEHABH@Z 00422840 f i octaedit.obj
 0001:00021870       ?get@?$databuf@E@@QAEHPAEH@Z 00422870 f i octaedit.obj
 0001:000218b0       ?insert@?$hashset@Uprefab@@@@QAEPAUchain@1@I@Z 004228b0 f i octaedit.obj
 0001:00021a50       ??0chain@?$hashset@Uprefab@@@@QAE@XZ 00422a50 f i octaedit.obj
 0001:00021a90       ?growbuf@?$vector@D@@QAEXH@Z 00422a90 f i worldio.obj
 0001:00021a90       ?growbuf@?$vector@E@@QAEXH@Z 00422a90 f i octaedit.obj
 0001:00021b10       ?get@?$databuf@E@@QAEABEXZ 00422b10 f i octaedit.obj
 0001:00021b30       ?add@?$vector@E@@QAEAAEABE@Z 00422b30 f i octaedit.obj
 0001:00021b30       ?add@?$vector@D@@QAEAADABD@Z 00422b30 f i serverbrowser.obj
 0001:00021b60       ?dist@vec@@QBEMABU1@@Z     00422b60 f i octaedit.obj
 0001:00021bc0       ??_Gg3d_callback@@UAEPAXI@Z 00422bc0 f i octaedit.obj
 0001:00021bc0       ??_Eg3d_callback@@UAEPAXI@Z 00422bc0 f i * CIL library *:* CIL module *
 0001:00021be0       ??1g3d_callback@@UAE@XZ    00422be0 f i octaedit.obj
 0001:00021bf0       ??1VSlot@@QAE@XZ           00422bf0 f i octaedit.obj
 0001:00021c40       ?reset@VSlot@@QAEXXZ       00422c40 f i octaedit.obj
 0001:00021d20       ??0VSlot@@QAE@PAUSlot@@H@Z 00422d20 f i octaedit.obj
 0001:00021dd0       ?resetinterp@physent@@QAEXXZ 00422dd0 f i octaedit.obj
 0001:00021e00       ??8selinfo@@QBE_NABU0@@Z   00422e00 f i octaedit.obj
 0001:00021e50       ?set@Shader@@QAEXXZ        00422e50 f i octaedit.obj
 0001:00021e80       ?rayintersect@plane@@QAE_NABUvec@@0AAM@Z 00422e80 f i octaedit.obj
 0001:00021f10       ??0selinfo@@QAE@XZ         00422f10 f i octaedit.obj
 0001:00021f70       ??0verthash@@QAE@XZ        00422f70 f i octarender.obj
 0001:00022020       ?addvert@verthash@@QAEHABUvertex@@@Z 00423020 f i octarender.obj
 0001:000221b0       ?clear@vacollect@@QAEXXZ   004231b0 f i octarender.obj
 0001:00022290       ?remapunlit@vacollect@@QAEXAAU?$vector@Usortkey@@@@@Z 00423290 f i octarender.obj
 0001:000228e0       ?optimize@vacollect@@QAEXXZ 004238e0 f i octarender.obj
 0001:00022b70       ?texsort@vacollect@@SA_NABUsortkey@@0@Z 00423b70 f i octarender.obj
 0001:00022c30       ?genverts@vacollect@@QAEXPAX@Z 00423c30 f i octarender.obj
 0001:00022d20       ?setupdata@vacollect@@QAEXPAUvtxarray@@@Z 00423d20 f i octarender.obj
 0001:00023530       ??0vacollect@@QAE@XZ       00424530 f i octarender.obj
 0001:00023680       ??1vacollect@@QAE@XZ       00424680 f i octarender.obj
 0001:000237f0       ??1verthash@@QAE@XZ        004247f0 f i octarender.obj
 0001:00023870       ??1?$hashtable@Usortkey@@Usortval@@@@QAE@XZ 00424870 f i octarender.obj
 0001:000238d0       ??0vtxarray@@QAE@XZ        004248d0 f i octarender.obj
 0001:00023960       ??1vtxarray@@QAE@XZ        00424960 f i octarender.obj
 0001:00023a00       ?removeobj@?$vector@PAUvtxarray@@@@QAEXABQAUvtxarray@@@Z 00424a00 f i octarender.obj
 0001:00023a00       ?removeobj@?$vector@H@@QAEXABH@Z 00424a00 f i world.obj
 0001:00023a00       ?removeobj@?$vector@PAUclientinfo@server@@@@QAEXABQAUclientinfo@server@@@Z 00424a00 f i server1.obj
 0001:00023a00       ?removeobj@?$vector@PAUoctaentities@@@@QAEXABQAUoctaentities@@@Z 00424a00 f i world.obj
 0001:00023a00       ?removeobj@?$vector@PAUskelmeshgroup@skelmodel@@@@QAEXABQAUskelmeshgroup@skelmodel@@@Z 00424a00 f i rendermodel.obj
 0001:00023a00       ?removeobj@?$vector@PAUmesh@animmodel@@@@QAEXABQAUmesh@animmodel@@@Z 00424a00 f i rendermodel.obj
 0001:00023a50       ??1?$hashset@U?$hashtableentry@IUvboinfo@@@@@@QAE@XZ 00424a50 f i octarender.obj
 0001:00023aa0       ?access@?$hashtable@Usortkey@@Usortval@@@@QAEPAUsortval@@ABUsortkey@@@Z 00424aa0 f i octarender.obj
 0001:00023b10       ??A?$hashtable@Usortkey@@Usortval@@@@QAEAAUsortval@@ABUsortkey@@@Z 00424b10 f i octarender.obj
 0001:00023ba0       ??1?$hashset@U?$hashtableentry@Usortkey@@Usortval@@@@@@QAE@XZ 00424ba0 f i octarender.obj
 0001:00023bd0       ?clear@?$hashset@U?$hashtableentry@Usortkey@@Usortval@@@@@@QAEXXZ 00424bd0 f i octarender.obj
 0001:00023c70       ?removeobj@?$vector@Usortkey@@@@QAEXABUsortkey@@@Z 00424c70 f i octarender.obj
 0001:00023d60       ?access@?$hashtable@Uedgegroup@@H@@QAEPAHABUedgegroup@@@Z 00424d60 f i octarender.obj
 0001:00023dd0       ??A?$hashtable@Uedgegroup@@H@@QAEAAHABUedgegroup@@@Z 00424dd0 f i octarender.obj
 0001:00023e60       ??1?$hashset@U?$hashtableentry@Uedgegroup@@H@@@@QAE@XZ 00424e60 f i octarender.obj
 0001:00023eb0       ?add@?$vector@Umergedface@@@@QAEAAUmergedface@@ABU2@@Z 00424eb0 f i octarender.obj
 0001:00023f00       ?move@?$vector@Umergedface@@@@QAEXAAU1@@Z 00424f00 f i octarender.obj
 0001:00023f80       ?growbuf@?$vector@Ugrasstri@@@@QAEXH@Z 00424f80 f i octarender.obj
 0001:00024000       ?growbuf@?$vector@Utjoint@@@@QAEXH@Z 00425000 f i octarender.obj
 0001:00024090       ??0?$hashset@U?$hashtableentry@IUvboinfo@@@@@@QAE@H@Z 00425090 f i octarender.obj
 0001:00024120       ??0?$hashset@U?$hashtableentry@Uivec@@H@@@@QAE@H@Z 00425120 f i rendermodel.obj
 0001:00024120       ??0?$hashset@Uteaminfo@@@@QAE@H@Z 00425120 f i scoreboard.obj
 0001:00024120       ??0?$hashset@U?$hashtableentry@Usortkey@@Usortval@@@@@@QAE@H@Z 00425120 f i octarender.obj
 0001:00024190       ?deletechunks@?$hashset@U?$hashtableentry@Usortkey@@Usortval@@@@@@QAEXXZ 00425190 f i octarender.obj
 0001:00024200       ?growbuf@?$vector@Usortkey@@@@QAEXH@Z 00425200 f i octarender.obj
 0001:00024280       ?growbuf@?$vector@Uufval@unionfind@@@@QAEXH@Z 00425280 f i material.obj
 0001:00024280       ?growbuf@?$vector@Utcvert@vertmodel@@@@QAEXH@Z 00425280 f i rendermodel.obj
 0001:00024280       ?growbuf@?$vector@Ucrcinfo@server@@@@QAEXH@Z 00425280 f i server1.obj
 0001:00024280       ?growbuf@?$vector@UBIHNode@@@@QAEXH@Z 00425280 f i bih.obj
 0001:00024280       ?growbuf@?$vector@Ufacebounds@@@@QAEXH@Z 00425280 f i octarender.obj
 0001:00024280       ?growbuf@?$vector@Uvec2@@@@QAEXH@Z 00425280 f i worldio.obj
 0001:00024280       ?growbuf@?$vector@Uantipode@skelmodel@@@@QAEXH@Z 00425280 f i rendermodel.obj
 0001:00024280       ?growbuf@?$vector@Ureljoint@ragdollskel@@@@QAEXH@Z 00425280 f i rendermodel.obj
 0001:00024280       ?growbuf@?$vector@Uteamscore@@@@QAEXH@Z 00425280 f i client1.obj
 0001:00024280       ?growbuf@?$vector@UAttribLoc@@@@QAEXH@Z 00425280 f i shader.obj
 0001:00024280       ?growbuf@?$vector@Usoundslot@@@@QAEXH@Z 00425280 f i sound.obj
 0001:00024300       ?growbuf@?$vector@Ucubeedge@@@@QAEXH@Z 00425300 f i octarender.obj
 0001:00024380       ??0?$hashset@U?$hashtableentry@Uedgegroup@@H@@@@QAE@H@Z 00425380 f i octarender.obj
 0001:00024410       ?growbuf@?$vector@Uvvert@skelmodel@@@@QAEXH@Z 00425410 f i rendermodel.obj
 0001:00024410       ?growbuf@?$vector@Uinterest@ai@@@@QAEXH@Z 00425410 f i ai.obj
 0001:00024410       ?growbuf@?$vector@Umergedface@@@@QAEXH@Z 00425410 f i octarender.obj
 0001:00024410       ?growbuf@?$vector@Uvert@ragdollskel@@@@QAEXH@Z 00425410 f i rendermodel.obj
 0001:00024410       ?growbuf@?$vector@Uzipfile@@@@QAEXH@Z 00425410 f i zip.obj
 0001:00024410       ?growbuf@?$vector@Uvvertff@vertmodel@@@@QAEXH@Z 00425410 f i rendermodel.obj
 0001:00024490       ??1chain@?$hashset@U?$hashtableentry@Usortkey@@Usortval@@@@@@QAE@XZ 00425490 f i octarender.obj
 0001:000244f0       ??1?$hashtableentry@Usortkey@@Usortval@@@@QAE@XZ 004254f0 f i octarender.obj
 0001:00024540       ??1sortval@@QAE@XZ         00425540 f i octarender.obj
 0001:00024590       ?insert@?$hashset@U?$hashtableentry@IUvboinfo@@@@@@QAEPAUchain@1@I@Z 00425590 f i octarender.obj
 0001:00024720       ?insert@?$hashset@U?$hashtableentry@Usortkey@@Usortval@@@@@@QAEPAUchain@1@I@Z 00425720 f i octarender.obj
 0001:000248d0       ?insert@?$hashset@U?$hashtableentry@Uedgegroup@@H@@@@QAEPAUchain@1@I@Z 004258d0 f i octarender.obj
 0001:00024a80       ??0chain@?$hashset@U?$hashtableentry@Usortkey@@Usortval@@@@@@QAE@XZ 00425a80 f i octarender.obj
 0001:00024af0       ??$remove@I@?$hashset@U?$hashtableentry@IUvboinfo@@@@@@QAE_NABI@Z 00425af0 f i octarender.obj
 0001:00024b80       ?lerp@bvec4@@QAEXABU1@0M@Z 00425b80 f i octarender.obj
 0001:00024c10       ?supportpoint@CubePlanes@mpr@@QBE?AUvec@@ABU3@@Z 00425c10 f i physics.obj
 0001:00024db0       ??0EntOBB@mpr@@QAE@PAUphysent@@M@Z 00425db0 f i physics.obj
 0001:00024e60       ?contactface@EntOBB@mpr@@QBE?AUvec@@ABU3@0@Z 00425e60 f i physics.obj
 0001:000250d0       ?supportpoint@EntOBB@mpr@@QBE?AUvec@@ABU3@@Z 004260d0 f i physics.obj
 0001:00025230       ?left@EntOBB@mpr@@QBEMXZ   00426230 f i physics.obj
 0001:000252b0       ?right@EntOBB@mpr@@QBEMXZ  004262b0 f i physics.obj
 0001:00025320       ?back@EntOBB@mpr@@QBEMXZ   00426320 f i physics.obj
 0001:000253a0       ?front@EntOBB@mpr@@QBEMXZ  004263a0 f i physics.obj
 0001:00025410       ?contactface@EntCylinder@mpr@@QBE?AUvec@@ABU3@0@Z 00426410 f i physics.obj
 0001:00025520       ?supportpoint@EntCapsule@mpr@@QBE?AUvec@@ABU3@@Z 00426520 f i physics.obj
 0001:00025600       ??0Model@mpr@@QAE@ABUvec@@00H@Z 00426600 f i physics.obj
 0001:00025770       ?contactface@ModelOBB@mpr@@QBE?AUvec@@ABU3@0@Z 00426770 f i physics.obj
 0001:000259c0       ?contactface@ModelEllipse@mpr@@QBE?AUvec@@ABU3@0@Z 004269c0 f i physics.obj
 0001:00025c30       ?supportpoint@ModelEllipse@mpr@@QBE?AUvec@@ABU3@@Z 00426c30 f i physics.obj
 0001:00025dd0       ??0dynentcacheentry@@QAE@XZ 00426dd0 f i physics.obj
 0001:00025e20       ??1dynentcacheentry@@QAE@XZ 00426e20 f i physics.obj
 0001:00025e70       ?growbuf@?$vector@Uplatforment@@@@QAEXH@Z 00426e70 f i physics.obj
 0001:00025f00       ?growbuf@?$vector@Uplatformcollision@@@@QAEXH@Z 00426f00 f i physics.obj
 0001:00025f90       ??$insidebb@Uivec@@H@vec@@QBE_NABUivec@@H@Z 00426f90 f i physics.obj
 0001:00026010       ??$collide@UEntOBB@mpr@@U12@@mpr@@YA_NABUEntOBB@0@0PAUvec@@11@Z 00427010 f i physics.obj
 0001:00028180       ??$collide@UEntOBB@mpr@@UEntCylinder@2@@mpr@@YA_NABUEntOBB@0@ABUEntCylinder@0@PAUvec@@22@Z 00429180 f i physics.obj
 0001:0002a010       ??$collide@UEntOBB@mpr@@UModelEllipse@2@@mpr@@YA_NABUEntOBB@0@ABUModelEllipse@0@PAUvec@@22@Z 0042b010 f i physics.obj
 0001:0002bf20       ??$collide@UEntOBB@mpr@@UModelOBB@2@@mpr@@YA_NABUEntOBB@0@ABUModelOBB@0@PAUvec@@22@Z 0042cf20 f i physics.obj
 0001:0002e090       ??$collide@USolidCube@mpr@@UEntOBB@2@@mpr@@YA_NABUSolidCube@0@ABUEntOBB@0@@Z 0042f090 f i physics.obj
 0001:0002eeb0       ??$collide@UCubePlanes@mpr@@UEntOBB@2@@mpr@@YA_NABUCubePlanes@0@ABUEntOBB@0@@Z 0042feb0 f i physics.obj
 0001:0002fb30       ??$collide@USolidCube@mpr@@UEntCapsule@2@@mpr@@YA_NABUSolidCube@0@ABUEntCapsule@0@@Z 00430b30 f i physics.obj
 0001:00030810       ??$collide@UCubePlanes@mpr@@UEntCapsule@2@@mpr@@YA_NABUCubePlanes@0@ABUEntCapsule@0@@Z 00431810 f i physics.obj
 0001:000313d0       ??0physent@@QAE@XZ         004323d0 f i physics.obj
 0001:000314c0       ?projectxy@vec@@QAEAAU1@ABU1@M@Z 004324c0 f i physics.obj
 0001:000315c0       ?collisionbox@model@@QAEMAAUvec@@0@Z 004325c0 f i physics.obj
 0001:000316e0       ??0shaftbb@@QAE@ABUivec@@HABUbvec@@@Z 004326e0 f i pvs.obj
 0001:000317a0       ?calcshaft@shaft@@QAEXABUshaftbb@@0@Z 004327a0 f i pvs.obj
 0001:00031a90       ?outside@shaft@@QBE_NABUshaftbb@@@Z 00432a90 f i pvs.obj
 0001:00031b40       ?inside@shaft@@QBE_NABUshaftbb@@@Z 00432b40 f i pvs.obj
 0001:00031bf0       ??0<unnamed-type-waterplanes>@@QAE@XZ 00432bf0 f i pvs.obj
 0001:00031c40       ??1<unnamed-type-waterplanes>@@QAE@XZ 00432c40 f i pvs.obj
 0001:00031c90       ??0pvsworker@@QAE@XZ       00432c90 f i pvs.obj
 0001:00031d50       ??1pvsworker@@QAE@XZ       00432d50 f i pvs.obj
 0001:00031dc0       ?hasvoxel@pvsworker@@QAEHABUivec@@HHHHPAH@Z 00432dc0 f i pvs.obj
 0001:000320a0       ?hidepvs@pvsworker@@QAEXAAUpvsnode@@@Z 004330a0 f i pvs.obj
 0001:000320f0       ?shaftcullpvs@pvsworker@@QAEXAAUshaft@@AAUpvsnode@@ABUivec@@H@Z 004330f0 f i pvs.obj
 0001:00032240       ?cullpvs@pvsworker@@QAEXAAUpvsnode@@ABUivec@@H@Z 00433240 f i pvs.obj
 0001:00033480       ?compresspvs@pvsworker@@QAE_NAAUpvsnode@@HH@Z 00434480 f i pvs.obj
 0001:000335b0       ?serializepvs@pvsworker@@QAE_NAAUpvsnode@@H@Z 004345b0 f i pvs.obj
 0001:000337c0       ?materialoccluded@pvsworker@@QAE_NAAUpvsnode@@ABUivec@@H11@Z 004347c0 f i pvs.obj
 0001:000338a0       ?materialoccluded@pvsworker@@QAE_NAAU?$vector@PAUmaterialsurface@@@@@Z 004348a0 f i pvs.obj
 0001:000339b0       ?calcpvs@pvsworker@@QAEXABUivec@@H@Z 004349b0 f i pvs.obj
 0001:00033b40       ?genviewcell@pvsworker@@QAEHABUivec@@H@Z 00434b40 f i pvs.obj
 0001:00033cc0       ?run@pvsworker@@SAHPAX@Z   00434cc0 f i pvs.obj
 0001:00033ed0       ??0viewcellnode@@QAE@XZ    00434ed0 f i pvs.obj
 0001:00033f10       ??1viewcellnode@@QAE@XZ    00434f10 f i pvs.obj
 0001:00033f60       ?access@?$hashtable@Upvsdata@@H@@QAEPAHABUpvsdata@@@Z 00434f60 f i pvs.obj
 0001:00034010       ??A?$hashtable@Upvsdata@@H@@QAEAAHABUpvsdata@@@Z 00435010 f i pvs.obj
 0001:000340d0       ??1?$hashset@U?$hashtableentry@Upvsdata@@H@@@@QAE@XZ 004350d0 f i pvs.obj
 0001:00034120       ?clear@?$hashset@U?$hashtableentry@Upvsdata@@H@@@@QAEXXZ 00435120 f i pvs.obj
 0001:00034190       ?add@?$vector@PAUpvsworker@@@@QAEAAPAUpvsworker@@ABQAU2@@Z 00435190 f i pvs.obj
 0001:000341e0       ?deletecontents@?$vector@PAUpvsworker@@@@QAEXXZ 004351e0 f i pvs.obj
 0001:00034280       ?growbuf@?$vector@Upvsnode@@@@QAEXH@Z 00435280 f i pvs.obj
 0001:00034310       ??0?$hashset@U?$hashtableentry@Upvsdata@@H@@@@QAE@H@Z 00435310 f i pvs.obj
 0001:000343a0       ?growbuf@?$vector@Upvsdata@@@@QAEXH@Z 004353a0 f i pvs.obj
 0001:00034430       ?growbuf@?$vector@Uviewcellrequest@@@@QAEXH@Z 00435430 f i pvs.obj
 0001:000344c0       ?growbuf@?$vector@PAUpvsworker@@@@QAEXH@Z 004354c0 f i pvs.obj
 0001:00034550       ?insert@?$hashset@U?$hashtableentry@Upvsdata@@H@@@@QAEPAUchain@1@I@Z 00435550 f i pvs.obj
 0001:000346e0       ??$getlil@H@stream@@QAEHXZ 004356e0 f i pvs.obj
 0001:00034700       ??$getlil@G@stream@@QAEGXZ 00435700 f i pvs.obj
 0001:00034720       ??_Goctaentities@@QAEPAXI@Z 00435720 f i world.obj
 0001:000347a0       ?add@?$vector@Uentity@@@@QAEAAUentity@@ABU2@@Z 004357a0 f i world.obj
 0001:00034810       ?growbuf@?$vector@Uentity@@@@QAEXH@Z 00435810 f i world.obj
 0001:00034810       ?growbuf@?$vector@Uvert@vertmodel@@@@QAEXH@Z 00435810 f i rendermodel.obj
 0001:00034810       ?growbuf@?$vector@Uwaterinfo@@@@QAEXH@Z 00435810 f i material.obj
 0001:00034810       ?growbuf@?$vector@Ubase@collectservmode@server@@@@QAEXH@Z 00435810 f i server1.obj
 0001:00034810       ?growbuf@?$vector@Uskeladjustment@@@@QAEXH@Z 00435810 f i rendermodel.obj
 0001:00034810       ?growbuf@?$vector@Uaistate@ai@@@@QAEXH@Z 00435810 f i ai.obj
 0001:00034890       ?rotate@vec@@QAEAAU1@MABU1@@Z 00435890 f i world.obj
 0001:00034a30       ?orthogonal@vec@@QAEXABU1@@Z 00435a30 f i world.obj
 0001:00034ac0       ?concatstring@@YAPADPADPBDI@Z 00435ac0 f i world.obj
 0001:00034b20       ?copystring@@YAPADPADPBDI@Z 00435b20 f i world.obj
 0001:00034b60       ??0octaentities@@QAE@ABUivec@@H@Z 00435b60 f i world.obj
 0001:00034c20       ??1?$hashtable@Uvec@@H@@QAE@XZ 00435c20 f i worldio.obj
 0001:00034c20       ??1?$hashtable@Uivec@@H@@QAE@XZ 00435c20 f i rendermodel.obj
 0001:00034c60       ??1?$hashtable@Uvec2@@H@@QAE@XZ 00435c60 f i worldio.obj
 0001:00034ca0       ??1?$hashtable@HU?$vector@Uivec@@@@@@QAE@XZ 00435ca0 f i worldio.obj
 0001:00034d00       ?add@?$vector@Uentity@@@@QAEAAUentity@@XZ 00435d00 f i worldio.obj
 0001:00034d60       ?access@?$hashtable@Uvec@@H@@QAEAAHABUvec@@ABH@Z 00435d60 f i worldio.obj
 0001:00034e10       ??1?$hashset@U?$hashtableentry@Uvec2@@H@@@@QAE@XZ 00435e10 f i worldio.obj
 0001:00034e10       ??1?$hashset@Uteaminfo@@@@QAE@XZ 00435e10 f i scoreboard.obj
 0001:00034e60       ??1?$hashset@U?$hashtableentry@HU?$vector@Uivec@@@@@@@@QAE@XZ 00435e60 f i worldio.obj
 0001:00034e90       ?growbuf@?$vector@PAUVSlot@@@@QAEXH@Z 00435e90 f i worldio.obj
 0001:00034f20       ?growbuf@?$vector@Usoundconfig@@@@QAEXH@Z 00435f20 f i sound.obj
 0001:00034f20       ?growbuf@?$vector@Uivec@@@@QAEXH@Z 00435f20 f i worldio.obj
 0001:00034f20       ?growbuf@?$vector@Uholdspawn@ctfservmode@server@@@@QAEXH@Z 00435f20 f i server1.obj
 0001:00034f20       ?growbuf@?$vector@Uvec@@@@QAEXH@Z 00435f20 f i worldio.obj
 0001:00034f20       ?growbuf@?$vector@Usortitem@@@@QAEXH@Z 00435f20 f i command.obj
 0001:00034f20       ?growbuf@?$vector@Ueditline@@@@QAEXH@Z 00435f20 f i 3dgui.obj
 0001:00034f20       ?growbuf@?$vector@Uobstacle@avoidset@ai@@@@QAEXH@Z 00435f20 f i ai.obj
 0001:00034f20       ?growbuf@?$vector@Uvotecount@server@@@@QAEXH@Z 00435f20 f i server1.obj
 0001:00034f20       ?growbuf@?$vector@Uskelanimspec@skelmodel@@@@QAEXH@Z 00435f20 f i rendermodel.obj
 0001:00034f20       ?growbuf@?$vector@Utri@ragdollskel@@@@QAEXH@Z 00435f20 f i rendermodel.obj
 0001:00034f20       ?growbuf@?$vector@Utransparentmodel@@@@QAEXH@Z 00435f20 f i rendermodel.obj
 0001:00034fa0       ??0?$hashset@U?$hashtableentry@Uvec2@@H@@@@QAE@H@Z 00435fa0 f i worldio.obj
 0001:00035010       ??0?$hashset@U?$hashtableentry@HU?$vector@Uivec@@@@@@@@QAE@H@Z 00436010 f i worldio.obj
 0001:00035080       ?deletechunks@?$hashset@U?$hashtableentry@HU?$vector@Uivec@@@@@@@@QAEXXZ 00436080 f i worldio.obj
 0001:000350f0       ??1chain@?$hashset@U?$hashtableentry@HU?$vector@Uivec@@@@@@@@QAE@XZ 004360f0 f i worldio.obj
 0001:00035150       ??1?$hashtableentry@HU?$vector@Uivec@@@@@@QAE@XZ 00436150 f i worldio.obj
 0001:000351a0       ?insert@?$hashset@U?$hashtableentry@Uivec@@H@@@@QAEPAUchain@1@I@Z 004361a0 f i rendermodel.obj
 0001:000351a0       ?insert@?$hashset@U?$hashtableentry@Uvec@@H@@@@QAEPAUchain@1@I@Z 004361a0 f i worldio.obj
 0001:00035320       ?insert@?$hashset@U?$hashtableentry@Uvec2@@H@@@@QAEPAUchain@1@I@Z 00436320 f i worldio.obj
 0001:000354a0       ?insert@?$hashset@U?$hashtableentry@HU?$vector@Uivec@@@@@@@@QAEPAUchain@1@I@Z 004364a0 f i worldio.obj
 0001:00035640       ??0chain@?$hashset@U?$hashtableentry@HU?$vector@Uivec@@@@@@@@QAE@XZ 00436640 f i worldio.obj
 0001:00035690       ??$getlil@M@stream@@QAEMXZ 00436690 f i worldio.obj
 0001:000356b0       ??1packetbuf@@QAE@XZ       004366b0 f i client.obj
 0001:000356f0       ?put@?$vector@D@@QAEXPBDH@Z 004366f0 f i server.obj
 0001:00035730       ?growbuf@?$vector@PAUclient@@@@QAEXH@Z 00436730 f i server.obj
 0001:000357c0       ?subbuf@?$databuf@E@@QAE?AU1@H@Z 004367c0 f i server.obj
 0001:00035800       ?subbuf@packetbuf@@QAE?AU?$databuf@E@@H@Z 00436800 f i server.obj
 0001:00035880       ?finalize@packetbuf@@QAEPAU_ENetPacket@@XZ 00436880 f i server.obj
 0001:000358b0       ?put@packetbuf@@QAEXPBEH@Z 004368b0 f i server.obj
 0001:00035930       ??0packetbuf@@QAE@HH@Z     00436930 f i server.obj
 0001:00035980       ??0serverinfo@@QAE@XZ      00436980 f i serverbrowser.obj
 0001:00035a60       ?cleanup@serverinfo@@QAEXXZ 00436a60 f i serverbrowser.obj
 0001:00035ac0       ?addping@serverinfo@@QAEXHH@Z 00436ac0 f i serverbrowser.obj
 0001:00035b60       ?compare@serverinfo@@SA_NPAU1@0@Z 00436b60 f i serverbrowser.obj
 0001:00035c40       ??_Gserverinfo@@QAEPAXI@Z  00436c40 f i serverbrowser.obj
 0001:00035cd0       ?remove@?$vector@Uresolverresult@@@@QAE?AUresolverresult@@H@Z 00436cd0 f i serverbrowser.obj
 0001:00035d50       ?deletecontents@?$vector@PAUserverinfo@@@@QAEXXZ 00436d50 f i serverbrowser.obj
 0001:00035e00       ?growbuf@?$vector@Uresolverthread@@@@QAEXH@Z 00436e00 f i serverbrowser.obj
 0001:00035e90       ?growbuf@?$vector@Uresolverresult@@@@QAEXH@Z 00436e90 f i serverbrowser.obj
 0001:00035f20       ?growbuf@?$vector@PAUserverinfo@@@@QAEXH@Z 00436f20 f i serverbrowser.obj
 0001:00035fb0       ??0editline@@QAE@PBD@Z     00436fb0 f i 3dgui.obj
 0001:00036010       ?grow@editline@@QAA_NHPBDZZ 00437010 f i 3dgui.obj
 0001:000360a0       ?set@editline@@QAEXPBDH@Z  004370a0 f i 3dgui.obj
 0001:00036120       ?prepend@editline@@QAEXPBD@Z 00437120 f i 3dgui.obj
 0001:00036190       ?append@editline@@QAEXPBD@Z 00437190 f i 3dgui.obj
 0001:000361f0       ?read@editline@@QAE_NPAUstream@@H@Z 004371f0 f i 3dgui.obj
 0001:00036350       ?del@editline@@QAEXHH@Z    00437350 f i 3dgui.obj
 0001:000363a0       ?insert@editline@@QAEXPADHH@Z 004373a0 f i 3dgui.obj
 0001:00036420       ?combinelines@editline@@QAEXAAU?$vector@Ueditline@@@@@Z 00437420 f i 3dgui.obj
 0001:000364e0       ??0editor@@QAE@PBDH0@Z     004374e0 f i 3dgui.obj
 0001:00036610       ??1editor@@QAE@XZ          00437610 f i 3dgui.obj
 0001:000366b0       ?clear@editor@@QAEXPBD@Z   004376b0 f i 3dgui.obj
 0001:000367f0       ?setfile@editor@@QAEXPBD@Z 004377f0 f i 3dgui.obj
 0001:00036850       ?load@editor@@QAEXXZ       00437850 f i 3dgui.obj
 0001:00036990       ?save@editor@@QAEXXZ       00437990 f i 3dgui.obj
 0001:000369f0       ?region@editor@@QAE_NAAH000@Z 004379f0 f i 3dgui.obj
 0001:00036ae0       ?currentline@editor@@QAEAAUeditline@@XZ 00437ae0 f i 3dgui.obj
 0001:00036b40       ?copyselectionto@editor@@QAEXPAU1@@Z 00437b40 f i 3dgui.obj
 0001:00036d40       ?tostring@editor@@QAEPADXZ 00437d40 f i 3dgui.obj
 0001:00036de0       ?selectiontostring@editor@@QAEPADXZ 00437de0 f i 3dgui.obj
 0001:00036fb0       ?removelines@editor@@QAEXHH@Z 00437fb0 f i 3dgui.obj
 0001:00037050       ?del@editor@@QAE_NXZ       00438050 f i 3dgui.obj
 0001:00037210       ?insert@editor@@QAEXD@Z    00438210 f i 3dgui.obj
 0001:00037300       ?insert@editor@@QAEXPBD@Z  00438300 f i 3dgui.obj
 0001:000374e0       ?insertallfrom@editor@@QAEXPAU1@@Z 004384e0 f i 3dgui.obj
 0001:00037600       ?key@editor@@QAEXHH@Z      00438600 f i 3dgui.obj
 0001:00037950       ?hit@editor@@QAEXHH_N@Z    00438950 f i 3dgui.obj
 0001:00037a30       ?limitscrolly@editor@@QAEHXZ 00438a30 f i 3dgui.obj
 0001:00037ab0       ?draw@editor@@QAEXHHH_N@Z  00438ab0 f i 3dgui.obj
 0001:000382f0       ?allowautotab@gui@@UAE_N_N@Z 004392f0 f i 3dgui.obj
 0001:00038310       ?autotab@gui@@QAEXXZ       00439310 f i 3dgui.obj
 0001:00038380       ?shouldtab@gui@@UAE_NXZ    00439380 f i 3dgui.obj
 0001:00038430       ?tab@gui@@UAEXPBDH@Z       00439430 f i 3dgui.obj
 0001:000386d0       ?pushlist@gui@@UAEXXZ      004396d0 f i 3dgui.obj
 0001:00038840       ?poplist@gui@@UAEXXZ       00439840 f i 3dgui.obj
 0001:00038950       ?text@gui@@UAEHPBDH0@Z     00439950 f i 3dgui.obj
 0001:00038980       ?button@gui@@UAEHPBDH0@Z   00439980 f i 3dgui.obj
 0001:000389b0       ?title@gui@@UAEHPBDH0@Z    004399b0 f i 3dgui.obj
 0001:000389e0       ?separator@gui@@UAEXXZ     004399e0 f i 3dgui.obj
 0001:00038a10       ?progress@gui@@UAEXM@Z     00439a10 f i 3dgui.obj
 0001:00038a50       ?strut@gui@@UAEXM@Z        00439a50 f i 3dgui.obj
 0001:00038ac0       ?space@gui@@UAEXM@Z        00439ac0 f i 3dgui.obj
 0001:00038b30       ?spring@gui@@UAEXH@Z       00439b30 f i 3dgui.obj
 0001:00038c00       ?column@gui@@UAEXH@Z       00439c00 f i 3dgui.obj
 0001:00038c30       ?layout@gui@@QAEHHH@Z      00439c30 f i 3dgui.obj
 0001:00038cf0       ?mergehits@gui@@UAE_N_N@Z  00439cf0 f i 3dgui.obj
 0001:00038d10       ?ishit@gui@@QAE_NHHHH@Z    00439d10 f i 3dgui.obj
 0001:00038e10       ?image@gui@@UAEHPAUTexture@@M_N@Z 00439e10 f i 3dgui.obj
 0001:00038ec0       ?texture@gui@@UAEHAAUVSlot@@M_N@Z 00439ec0 f i 3dgui.obj
 0001:00038f70       ?playerpreview@gui@@UAEHHHHM_N@Z 00439f70 f i 3dgui.obj
 0001:00039540       ?modelpreview@gui@@UAEHPBDHM_N@Z 0043a540 f i 3dgui.obj
 0001:00039d00       ?slider@gui@@UAEXAAHHHHPBD@Z 0043ad00 f i 3dgui.obj
 0001:00039fd0       ?field@gui@@UAEPADPBDHHH0H@Z 0043afd0 f i 3dgui.obj
 0001:0003a000       ?keyfield@gui@@UAEPADPBDHHH0H@Z 0043b000 f i 3dgui.obj
 0001:0003a030       ?field_@gui@@QAEPADPBDHHH0HH@Z 0043b030 f i 3dgui.obj
 0001:0003a5e0       ?rect_@gui@@QAEXMMMMH@Z    0043b5e0 f i 3dgui.obj
 0001:0003a6e0       ?text_@gui@@QAEXPBDHHH_N1@Z 0043b6e0 f i 3dgui.obj
 0001:0003a760       ?background@gui@@UAEXHHH@Z 0043b760 f i 3dgui.obj
 0001:0003a980       ?icon_@gui@@QAEXPAUTexture@@_NHHH1@Z 0043b980 f i 3dgui.obj
 0001:0003abb0       ?previewslot@gui@@QAEXAAUVSlot@@_NHHH1@Z 0043bbb0 f i 3dgui.obj
 0001:0003b710       ?line_@gui@@QAEXHM@Z       0043c710 f i 3dgui.obj
 0001:0003b950       ?textbox@gui@@UAEXPBDHHH@Z 0043c950 f i 3dgui.obj
 0001:0003ba10       ?button_@gui@@QAEHPBDH0_N1@Z 0043ca10 f i 3dgui.obj
 0001:0003bc30       ?drawskin@gui@@SAXHHHHHHHABUvec@@M@Z 0043cc30 f i 3dgui.obj
 0001:0003c140       ?adjustscale@gui@@QAEXXZ   0043d140 f i 3dgui.obj
 0001:0003c290       ?start@gui@@UAEXHMPAH_N@Z  0043d290 f i 3dgui.obj
 0001:0003c700       ?adjusthorizontalcolumn@gui@@QAEXHH@Z 0043d700 f i 3dgui.obj
 0001:0003c770       ?adjustverticalcolumn@gui@@QAEXHH@Z 0043d770 f i 3dgui.obj
 0001:0003c7e0       ?adjustcolumns@gui@@QAEXXZ 0043d7e0 f i 3dgui.obj
 0001:0003c890       ?end@gui@@UAEXXZ           0043d890 f i 3dgui.obj
 0001:0003cc80       ?add@?$vector@Uskelanimspec@skelmodel@@@@QAEAAUskelanimspec@skelmodel@@XZ 0043dc80 f i rendermodel.obj
 0001:0003cc80       ?add@?$vector@Ueditline@@@@QAEAAUeditline@@XZ 0043dc80 f i 3dgui.obj
 0001:0003cd00       ?insert@?$vector@Ueditline@@@@QAEAAUeditline@@HABU2@@Z 0043dd00 f i 3dgui.obj
 0001:0003cdb0       ?insert@?$vector@PAUeditor@@@@QAEAAPAUeditor@@HABQAU2@@Z 0043ddb0 f i 3dgui.obj
 0001:0003ce20       ??_Egui@@UAEPAXI@Z         0043de20 f i * CIL library *:* CIL module *
 0001:0003ce20       ??_Ggui@@UAEPAXI@Z         0043de20 f i 3dgui.obj
 0001:0003ce70       ??1gui@@UAE@XZ             0043de70 f i 3dgui.obj
 0001:0003ceb0       ?growbuf@?$vector@PAUeditor@@@@QAEXH@Z 0043deb0 f i 3dgui.obj
 0001:0003cf40       ?growbuf@?$vector@Ulist@gui@@@@QAEXH@Z 0043df40 f i 3dgui.obj
 0001:0003cfd0       ?growbuf@?$vector@Ugui@@@@QAEXH@Z 0043dfd0 f i 3dgui.obj
 0001:0003d050       ??4gui@@QAEAAU0@ABU0@@Z    0043e050 f i 3dgui.obj
 0001:0003d0c0       ??0gui@@QAE@ABU0@@Z        0043e0c0 f i 3dgui.obj
 0001:0003d180       ??_Gg3d_gui@@UAEPAXI@Z     0043e180 f i 3dgui.obj
 0001:0003d180       ??_Eg3d_gui@@UAEPAXI@Z     0043e180 f i * CIL library *:* CIL module *
 0001:0003d1a0       ?texrect@rendertarget@@UBE_NXZ 0043e1a0 f i glare.obj
 0001:0003d1a0       ?flipdebug@shadowmaptexture@@UBE_NXZ 0043e1a0 f i shadowmap.obj
 0001:0003d1a0       ?hidefrags@servmode@server@@UAE_NXZ 0043e1a0 f i server1.obj
 0001:0003d1a0       ?screenview@rendertarget@@UBE_NXZ 0043e1a0 f i glare.obj
 0001:0003d1a0       ?keepable@gameevent@server@@UBE_NXZ 0043e1a0 f i server1.obj
 0001:0003d1a0       ?swaptexs@rendertarget@@UBE_NXZ 0043e1a0 f i glare.obj
 0001:0003d1a0       ?skeletal@model@@UBE_NXZ   0043e1a0 f i rendermodel.obj
 0001:0003d1a0       ?shadowcompare@rendertarget@@UBE_NXZ 0043e1a0 f i glare.obj
 0001:0003d1a0       ?usesvertexarray@partrenderer@@UAE_NXZ 0043e1a0 f i renderparticles.obj
 0001:0003d1a0       ?shouldtab@g3d_gui@@UAE_NXZ 0043e1a0 f i 3dgui.obj
 0001:0003d1a0       ?envmapped@model@@UAE_NXZ  0043e1a0 f i rendermodel.obj
 0001:0003d1a0       ?hidefrags@clientmode@game@@UAE_NXZ 0043e1a0 f i client1.obj
 0001:0003d1b0       ?playerpreview@g3d_gui@@UAEHHHHM_N@Z 0043e1b0 f i 3dgui.obj
 0001:0003d1c0       ?modelpreview@g3d_gui@@UAEHPBDHM_N@Z 0043e1c0 f i 3dgui.obj
 0001:0003d1d0       ??1g3d_gui@@UAE@XZ         0043e1d0 f i 3dgui.obj
 0001:0003d1e0       ?newstring@@YAPADPBDI@Z    0043e1e0 f i 3dgui.obj
 0001:0003d230       ?traverse@BIH@@QAE_NABUvec@@00MAAMHPAUBIHNode@@MM@Z 0043e230 f i bih.obj
 0001:0003d5b0       ?traverse@BIH@@QAE_NABUvec@@0MAAMH@Z 0043e5b0 f i bih.obj
 0001:0003d740       ?init@blobrenderer@@QAEXH@Z 0043e740 f i blob.obj
 0001:0003d950       ?freeblob@blobrenderer@@QAE_NXZ 0043e950 f i blob.obj
 0001:0003d9b0       ?newblob@blobrenderer@@QAEAAUblobinfo@@ABUvec@@M@Z 0043e9b0 f i blob.obj
 0001:0003da30       ?addvert@blobrenderer@@QAEHABUvec@@@Z 0043ea30 f i blob.obj
 0001:0003db40       ?addtris@blobrenderer@@QAEXPBUvec@@H@Z 0043eb40 f i blob.obj
 0001:0003def0       ?gentris@blobrenderer@@QAEXAAUcube@@HABUivec@@HPAUmaterialsurface@@H@Z 0043eef0 f i blob.obj
 0001:0003eab0       ?findmaterials@blobrenderer@@QAEXPAUvtxarray@@@Z 0043fab0 f i blob.obj
 0001:0003ec60       ?findescaped@blobrenderer@@QAEXPAUcube@@ABUivec@@HH@Z 0043fc60 f i blob.obj
 0001:0003ed50       ?gentris@blobrenderer@@QAEXPAUcube@@ABUivec@@HH@Z 0043fd50 f i blob.obj
 0001:0003ef70       ?addblob@blobrenderer@@QAEPAUblobinfo@@ABUvec@@MM@Z 0043ff70 f i blob.obj
 0001:0003f140       ?setuprenderstate@blobrenderer@@SAXXZ 00440140 f i blob.obj
 0001:0003f1d0       ?cleanuprenderstate@blobrenderer@@SAXXZ 004401d0 f i blob.obj
 0001:0003f230       ?fadeblob@blobrenderer@@QAEXPAUblobinfo@@M@Z 00440230 f i blob.obj
 0001:0003f390       ?renderblob@blobrenderer@@QAEXABUvec@@MM@Z 00440390 f i blob.obj
 0001:0003f5e0       ??$clip@$0A@@blobrenderer@@SAHPBUvec@@HMMPAU1@@Z 004405e0 f i blob.obj
 0001:0003f9b0       ??$clip@$00@blobrenderer@@SAHPBUvec@@HMMPAU1@@Z 004409b0 f i blob.obj
 0001:0003fd70       ??$clip@$01@blobrenderer@@SAHPBUvec@@HMMPAU1@@Z 00440d70 f i blob.obj
 0001:00040140       ??$split@$01@blobrenderer@@SAHPBUvec@@HMMPAU1@@Z 00441140 f i blob.obj
 0001:00040510       ?freedecal@decalrenderer@@QAEHXZ 00441510 f i decal.obj
 0001:00040580       ?fadedecal@decalrenderer@@QAEXAAUdecalinfo@@E@Z 00441580 f i decal.obj
 0001:00040680       ?clearfadeddecals@decalrenderer@@QAEXXZ 00441680 f i decal.obj
 0001:00040760       ?fadeindecals@decalrenderer@@QAEXXZ 00441760 f i decal.obj
 0001:00040950       ?fadeoutdecals@decalrenderer@@QAEXXZ 00441950 f i decal.obj
 0001:00040b40       ?render@decalrenderer@@QAEXXZ 00441b40 f i decal.obj
 0001:00040dd0       ?adddecal@decalrenderer@@QAEXABUvec@@0MABUbvec@@H@Z 00441dd0 f i decal.obj
 0001:00041190       ?clip@decalrenderer@@SAHPBUvec@@HABU2@MMPAU2@@Z 00442190 f i decal.obj
 0001:00041590       ?gentris@decalrenderer@@QAEXAAUcube@@HABUivec@@HPAUmaterialsurface@@H@Z 00442590 f i decal.obj
 0001:00042e60       ?findmaterials@decalrenderer@@QAEXPAUvtxarray@@@Z 00443e60 f i decal.obj
 0001:00043010       ?findescaped@decalrenderer@@QAEXPAUcube@@ABUivec@@HH@Z 00444010 f i decal.obj
 0001:00043100       ?gentris@decalrenderer@@QAEXPAUcube@@ABUivec@@HH@Z 00444100 f i decal.obj
 0001:00043320       ?scale@bvec@@QAEXHH@Z      00444320 f i decal.obj
 0001:00043390       ?calccolor@dynlight@@QAEXXZ 00444390 f i dynlight.obj
 0001:000434e0       ?remove@?$vector@Udynlight@@@@QAEXHH@Z 004444e0 f i dynlight.obj
 0001:00043570       ?remove@?$vector@Udynlight@@@@QAE?AUdynlight@@H@Z 00444570 f i dynlight.obj
 0001:00043660       ?insert@?$vector@Udynlight@@@@QAEAAUdynlight@@HABU2@@Z 00444660 f i dynlight.obj
 0001:00043750       ?insert@?$vector@PAUdynlight@@@@QAEAAPAUdynlight@@HABQAU2@@Z 00444750 f i dynlight.obj
 0001:000437d0       ?add@?$vector@Udynlight@@@@QAEAAUdynlight@@ABU2@@Z 004447d0 f i dynlight.obj
 0001:00043860       ?growbuf@?$vector@Udynlight@@@@QAEXH@Z 00444860 f i dynlight.obj
 0001:000438f0       ?growbuf@?$vector@PAUdynlight@@@@QAEXH@Z 004448f0 f i dynlight.obj
 0001:00043980       ??$dist_to_bb@Uivec@@@vec@@QBEMABUivec@@0@Z 00444980 f i dynlight.obj
 0001:00043a50       ??1rendertarget@@UAE@XZ    00444a50 f i glare.obj
 0001:00043a60       ?attachment@rendertarget@@UBEIXZ 00444a60 f i glare.obj
 0001:00043a70       ?colorformats@rendertarget@@UBEPBIXZ 00444a70 f i glare.obj
 0001:00043a80       ?depthformats@rendertarget@@UBEPBIXZ 00444a80 f i glare.obj
 0001:00043a90       ?hidefrags@captureclientmode@game@@UAE_NXZ 00444a90 f i client1.obj
 0001:00043a90       ?shouldrender@rendertarget@@UAE_NXZ 00444a90 f i glare.obj
 0001:00043a90       ?hidefrags@ctfclientmode@game@@UAE_NXZ 00444a90 f i client1.obj
 0001:00043a90       ?filter@rendertarget@@UBE_NXZ 00444a90 f i glare.obj
 0001:00043a90       ?flipdebug@rendertarget@@UBE_NXZ 00444a90 f i glare.obj
 0001:00043a90       ?flush@stream@@UAE_NXZ     00444a90 f i stream.obj
 0001:00043a90       ?hidefrags@ctfservmode@server@@UAE_NXZ 00444a90 f i server1.obj
 0001:00043a90       ?loaddefaultparts@animmodel@@UAE_NXZ 00444a90 f i rendermodel.obj
 0001:00043a90       ?depthtest@rendertarget@@UBE_NXZ 00444a90 f i glare.obj
 0001:00043a90       ?skeletal@skelmodel@@UBE_NXZ 00444a90 f i rendermodel.obj
 0001:00043a90       ?usesvertexarray@?$varenderer@$01@@UAE_NXZ 00444a90 f i renderparticles.obj
 0001:00043a90       ?usesvertexarray@?$varenderer@$00@@UAE_NXZ 00444a90 f i renderparticles.obj
 0001:00043a90       ?dorender@rendertarget@@UAE_NXZ 00444a90 f i glare.obj
 0001:00043a90       ?keepable@explodeevent@server@@UBE_NXZ 00444a90 f i server1.obj
 0001:00043a90       ?hidefrags@collectservmode@server@@UAE_NXZ 00444a90 f i server1.obj
 0001:00043a90       ?usesvertexarray@?$varenderer@$0A@@@UAE_NXZ 00444a90 f i renderparticles.obj
 0001:00043a90       ?hidefrags@collectclientmode@game@@UAE_NXZ 00444a90 f i client1.obj
 0001:00043a90       ?hidefrags@captureservmode@server@@UAE_NXZ 00444a90 f i server1.obj
 0001:00043aa0       ?cleanupblur@rendertarget@@QAEXXZ 00444aa0 f i glare.obj
 0001:00043b00       ?setupblur@rendertarget@@QAEXXZ 00444b00 f i glare.obj
 0001:00043c10       ?setup@rendertarget@@QAEXHH@Z 00444c10 f i glare.obj
 0001:00043eb0       ?rendertiles@rendertarget@@UAEXXZ 00444eb0 f i glare.obj
 0001:000442d0       ?blur@rendertarget@@QAEXHMHHHH_N@Z 004452d0 f i glare.obj
 0001:000444d0       ?doblur@rendertarget@@UAEXHM@Z 004454d0 f i glare.obj
 0001:00044560       ?scissorrender@rendertarget@@UAE_NAAH000@Z 00445560 f i glare.obj
 0001:00044780       ?scissorblur@rendertarget@@UAE_NAAH000@Z 00445780 f i glare.obj
 0001:00044980       ?render@rendertarget@@QAEXHHHM@Z 00445980 f i glare.obj
 0001:00044ea0       ?leavegame@servmode@server@@UAEXPAUclientinfo@2@_N@Z 00445ea0 f i server1.obj
 0001:00044ea0       ?died@servmode@server@@UAEXPAUclientinfo@2@0@Z 00445ea0 f i server1.obj
 0001:00044ea0       ?dodebug@rendertarget@@UAEXHH@Z 00445ea0 f i glare.obj
 0001:00044ea0       ?setglare@model@@UAEXMM@Z  00445ea0 f i rendermodel.obj
 0001:00044eb0       ?debug@rendertarget@@QAEXXZ 00445eb0 f i glare.obj
 0001:000450b0       ??_Erendertarget@@UAEPAXI@Z 004460b0 f i * CIL library *:* CIL module *
 0001:000450b0       ??_Grendertarget@@UAEPAXI@Z 004460b0 f i glare.obj
 0001:000450d0       ?dorender@glaretexture@@UAE_NXZ 004460d0 f i glare.obj
 0001:000450e0       ??_Edepthfxtexture@@UAEPAXI@Z 004460e0 f i * CIL library *:* CIL module *
 0001:000450e0       ??_Gdepthfxtexture@@UAEPAXI@Z 004460e0 f i renderparticles.obj
 0001:000450e0       ??_Eglaretexture@@UAEPAXI@Z 004460e0 f i * CIL library *:* CIL module *
 0001:000450e0       ??_Gglaretexture@@UAEPAXI@Z 004460e0 f i glare.obj
 0001:000450e0       ??_Eshadowmaptexture@@UAEPAXI@Z 004460e0 f i * CIL library *:* CIL module *
 0001:000450e0       ??_Gshadowmaptexture@@UAEPAXI@Z 004460e0 f i shadowmap.obj
 0001:00045130       ?growbuf@?$vector@Ugrassvert@@@@QAEXH@Z 00446130 f i grass.obj
 0001:000451b0       ?growbuf@?$vector@Ugrassgroup@@@@QAEXH@Z 004461b0 f i grass.obj
 0001:00045240       ??0QuadNode@@QAE@HHH@Z     00446240 f i material.obj
 0001:00045280       ?clear@QuadNode@@QAEXXZ    00446280 f i material.obj
 0001:000452c0       ??1QuadNode@@QAE@XZ        004462c0 f i material.obj
 0001:000452d0       ?insert@QuadNode@@QAEXHHH@Z 004462d0 f i material.obj
 0001:00045420       ?genmatsurfs@QuadNode@@QAEXGEEHAAPAUmaterialsurface@@@Z 00446420 f i material.obj
 0001:00045580       ?growbuf@?$vector@Umd5joint@@@@QAEXH@Z 00446580 f i rendermodel.obj
 0001:00045580       ?growbuf@?$vector@Umaterialsurface@@@@QAEXH@Z 00446580 f i material.obj
 0001:00045580       ?growbuf@?$vector@Uhitinfo@server@@@@QAEXH@Z 00446580 f i server1.obj
 0001:00045610       ?compressfind@unionfind@@QAEHH@Z 00446610 f i material.obj
 0001:00045640       ?unite@unionfind@@QAEXHH@Z 00446640 f i material.obj
 0001:00045740       ??$perspectivetransform@Uvec4@@@glmatrixf@@QBE?AUvec@@ABUvec4@@@Z 00446740 f i rendergl.obj
 0001:00045870       ?frustum@glmatrixf@@QAEXMMMMMM@Z 00446870 f i rendergl.obj
 0001:00045980       ?clip@glmatrixf@@QAEXABUplane@@ABU1@@Z 00446980 f i rendergl.obj
 0001:00045a80       ?transposedtransform@glmatrixf@@QBEXABUplane@@AAU2@@Z 00446a80 f i rendergl.obj
 0001:00045ba0       ?transpose@glmatrixf@@QAEXXZ 00446ba0 f i rendergl.obj
 0001:00045c70       ??$mul@MM@glmatrixf@@QAEXQBM0@Z 00446c70 f i rendergl.obj
 0001:00046010       ??0ragdollskel@@QAE@XZ     00447010 f i rendermodel.obj
 0001:00046110       ?setupjoints@ragdollskel@@QAEXXZ 00447110 f i rendermodel.obj
 0001:000465c0       ?setuprotfrictions@ragdollskel@@QAEXXZ 004475c0 f i rendermodel.obj
 0001:000466d0       ??0ragdolldata@@QAE@PAUragdollskel@@M@Z 004476d0 f i rendermodel.obj
 0001:00046880       ?calcanimjoint@ragdolldata@@QAEXHABUmatrix3x4@@@Z 00447880 f i rendermodel.obj
 0001:00046be0       ?calctris@ragdolldata@@QAEXXZ 00447be0 f i rendermodel.obj
 0001:00046e10       ?calcboundsphere@ragdolldata@@QAEXXZ 00447e10 f i rendermodel.obj
 0001:00046f40       ?init@ragdolldata@@QAEXPAUdynent@@@Z 00447f40 f i rendermodel.obj
 0001:00047090       ?collidevert@ragdolldata@@SA_NABUvec@@0M@Z 00448090 f i rendermodel.obj
 0001:00047260       ?applyrotlimit@ragdolldata@@QAEXAAUtri@ragdollskel@@0MABUvec@@@Z 00448260 f i rendermodel.obj
 0001:000480a0       ??_Gragdolldata@@QAEPAXI@Z 004490a0 f i rendermodel.obj
 0001:00048100       ?setframes@animpos@animmodel@@QAEXABUaniminfo@@@Z 00449100 f i rendermodel.obj
 0001:000481f0       ??0skin@animmodel@@QAE@XZ  004491f0 f i rendermodel.obj
 0001:00048290       ?setuptmus@skin@animmodel@@QAEXPBUanimstate@2@_N@Z 00449290 f i rendermodel.obj
 0001:00048820       ?setshaderparams@skin@animmodel@@QAEXPAUmesh@2@PBUanimstate@2@_N@Z 00449820 f i rendermodel.obj
 0001:00049040       ?loadshader@skin@animmodel@@QAEPAUShader@@_N0@Z 0044a040 f i rendermodel.obj
 0001:000492f0       ?bind@skin@animmodel@@QAEXPAUmesh@2@PBUanimstate@2@@Z 0044a2f0 f i rendermodel.obj
 0001:00049980       ??1mesh@animmodel@@UAE@XZ  0044a980 f i rendermodel.obj
 0001:000499b0       ?gentris@mesh@animmodel@@UAEXPAUTexture@@PAU?$vector@Utri@BIH@@@@ABUmatrix3x4@@@Z 0044a9b0 f i rendermodel.obj
 0001:000499b0       ?changeteam@collectservmode@server@@UAEXPAUclientinfo@2@PBD1@Z 0044a9b0 f i server1.obj
 0001:000499b0       ?drawhud@clientmode@game@@UAEXPAUfpsent@@HH@Z 0044a9b0 f i client1.obj
 0001:000499b0       ?initclient@servmode@server@@UAEXPAUclientinfo@2@AAUpacketbuf@@_N@Z 0044a9b0 f i server1.obj
 0001:000499b0       ?aifind@clientmode@game@@UAEXPAUfpsent@@AAUaistate@ai@@AAU?$vector@Uinterest@ai@@@@@Z 0044a9b0 f i client1.obj
 0001:000499b0       ?calcbb@mesh@animmodel@@UAEXAAUvec@@0ABUmatrix3x4@@@Z 0044a9b0 f i rendermodel.obj
 0001:000499b0       ?changeteam@servmode@server@@UAEXPAUclientinfo@2@PBD1@Z 0044a9b0 f i server1.obj
 0001:000499b0       ?setglow@model@@UAEXMMM@Z  0044a9b0 f i rendermodel.obj
 0001:000499b0       ?setenvmap@model@@UAEXMMPAUTexture@@@Z 0044a9b0 f i rendermodel.obj
 0001:000499c0       ?setshader@mesh@animmodel@@UAEXPAUShader@@@Z 0044a9c0 f i rendermodel.obj
 0001:00049a30       ??1meshgroup@animmodel@@UAE@XZ 0044aa30 f i rendermodel.obj
 0001:00049ae0       ?findtag@meshgroup@animmodel@@UAEHPBD@Z 0044aae0 f i rendermodel.obj
 0001:00049af0       ?concattagtransform@meshgroup@animmodel@@UAEXPAUpart@2@HABUmatrix3x4@@AAU4@@Z 0044aaf0 f i rendermodel.obj
 0001:00049b00       ?gentris@meshgroup@animmodel@@QAEXAAU?$vector@Uskin@animmodel@@@@PAU?$vector@Utri@BIH@@@@ABUmatrix3x4@@@Z 0044ab00 f i rendermodel.obj
 0001:00049b50       ?type@md3@@UBEHXZ          0044ab50 f i rendermodel.obj
 0001:00049b50       ?totalframes@meshgroup@animmodel@@UBEHXZ 0044ab50 f i rendermodel.obj
 0001:00049b60       ?setfullbright@model@@UAEXM@Z 0044ab60 f i rendermodel.obj
 0001:00049b60       ?process@gameevent@server@@UAEXPAUclientinfo@2@@Z 0044ab60 f i server1.obj
 0001:00049b60       ?setspec@model@@UAEXM@Z    0044ab60 f i rendermodel.obj
 0001:00049b60       ?setshader@model@@UAEXPAUShader@@@Z 0044ab60 f i rendermodel.obj
 0001:00049b60       ?preload@meshgroup@animmodel@@UAEXPAUpart@2@@Z 0044ab60 f i rendermodel.obj
 0001:00049b60       ?removeplayer@clientmode@game@@UAEXPAUfpsent@@@Z 0044ab60 f i client1.obj
 0001:00049b60       ?killpart@listrenderer@@UAEXPAUlistparticle@@@Z 0044ab60 f i renderparticles.obj
 0001:00049b60       ?init@partrenderer@@UAEXH@Z 0044ab60 f i renderparticles.obj
 0001:00049b60       ?setambient@model@@UAEXM@Z 0044ab60 f i rendermodel.obj
 0001:00049b60       ?resettracked@partrenderer@@UAEXPAUphysent@@@Z 0044ab60 f i renderparticles.obj
 0001:00049b60       ?respawned@captureclientmode@game@@UAEXPAUfpsent@@@Z 0044ab60 f i client1.obj
 0001:00049b60       ?spawned@servmode@server@@UAEXPAUclientinfo@2@@Z 0044ab60 f i server1.obj
 0001:00049b60       ?setalphatest@model@@UAEXM@Z 0044ab60 f i rendermodel.obj
 0001:00049b60       ?setalphablend@model@@UAEX_N@Z 0044ab60 f i rendermodel.obj
 0001:00049b60       ?getteamscores@clientmode@game@@UAEXAAU?$vector@Uteamscore@@@@@Z 0044ab60 f i client1.obj
 0001:00049b60       ?respawned@clientmode@game@@UAEXPAUfpsent@@@Z 0044ab60 f i client1.obj
 0001:00049b60       ?getteamscores@servmode@server@@UAEXAAU?$vector@Uteamscore@@@@@Z 0044ab60 f i server1.obj
 0001:00049b60       ?senditems@clientmode@game@@UAEXAAUpacketbuf@@@Z 0044ab60 f i client1.obj
 0001:00049b60       ?entergame@servmode@server@@UAEXPAUclientinfo@2@@Z 0044ab60 f i server1.obj
 0001:00049b60       ?setcullface@model@@UAEX_N@Z 0044ab60 f i rendermodel.obj
 0001:00049b60       ?checkitems@clientmode@game@@UAEXPAUfpsent@@@Z 0044ab60 f i client1.obj
 0001:00049b70       ?render@meshgroup@animmodel@@UAEXPBUanimstate@2@MABUvec@@1PAUdynent@@PAUpart@2@@Z 0044ab70 f i rendermodel.obj
 0001:00049b70       ?seedemitter@partrenderer@@UAEXAAUparticleemitter@@ABUvec@@1HMH@Z 0044ab70 f i renderparticles.obj
 0001:00049b80       ?adddepthfx@partrenderer@@UAEHAAUvec@@0@Z 0044ab80 f i renderparticles.obj
 0001:00049b80       ?loadmeshes@animmodel@@UAEPAUmeshgroup@1@PBDPAD@Z 0044ab80 f i rendermodel.obj
 0001:00049b80       ?read@stream@@UAEIPAXI@Z   0044ab80 f i stream.obj
 0001:00049b80       ?write@stream@@UAEIPBXI@Z  0044ab80 f i stream.obj
 0001:00049b80       ?clipconsole@clientmode@game@@UAEHHH@Z 0044ab80 f i client1.obj
 0001:00049b90       ?sharemeshes@animmodel@@QAAPAUmeshgroup@1@PBDZZ 0044ab90 f i rendermodel.obj
 0001:00049c40       ??0part@animmodel@@QAE@XZ  0044ac40 f i rendermodel.obj
 0001:00049d10       ??1part@animmodel@@UAE@XZ  0044ad10 f i rendermodel.obj
 0001:00049de0       ?cleanup@part@animmodel@@UAEXXZ 0044ade0 f i rendermodel.obj
 0001:00049df0       ?calcbb@part@animmodel@@QAEXAAUvec@@0ABUmatrix3x4@@@Z 0044adf0 f i rendermodel.obj
 0001:0004a050       ?gentris@part@animmodel@@QAEXPAU?$vector@Utri@BIH@@@@ABUmatrix3x4@@@Z 0044b050 f i rendermodel.obj
 0001:0004a290       ?link@part@animmodel@@QAE_NPAU12@PBDABUvec@@HHPAU3@@Z 0044b290 f i rendermodel.obj
 0001:0004a350       ?unlink@part@animmodel@@QAE_NPAU12@@Z 0044b350 f i rendermodel.obj
 0001:0004a3d0       ?initskins@part@animmodel@@QAEXPAUTexture@@0H@Z 0044b3d0 f i rendermodel.obj
 0001:0004a470       ?preloadshaders@part@animmodel@@QAEXXZ 0044b470 f i rendermodel.obj
 0001:0004a6c0       ?getdefaultanim@part@animmodel@@UAEXAAUaniminfo@@HIPAUdynent@@@Z 0044b6c0 f i rendermodel.obj
 0001:0004a6e0       ?calcanim@part@animmodel@@QAE_NHHHHPAUdynent@@HAAUaniminfo@@AAH@Z 0044b6e0 f i rendermodel.obj
 0001:0004ab10       ?render@part@animmodel@@QAEXHHHMABUvec@@0PAUdynent@@@Z 0044bb10 f i rendermodel.obj
 0001:0004ab50       ?render@part@animmodel@@QAEXHHHMABUvec@@0PAUdynent@@PAUanimstate@2@@Z 0044bb50 f i rendermodel.obj
 0001:0004b890       ?setanim@part@animmodel@@QAEXHHHHMH@Z 0044c890 f i rendermodel.obj
 0001:0004b9d0       ?loadanim@skelmeshgroup@skelmodel@@UAEPAUskelanimspec@2@PBD@Z 0044c9d0 f i rendermodel.obj
 0001:0004b9d0       ?getteamscore@servmode@server@@UAEHPBD@Z 0044c9d0 f i server1.obj
 0001:0004b9d0       ?respawnwait@clientmode@game@@UAEHPAUfpsent@@@Z 0044c9d0 f i client1.obj
 0001:0004b9d0       ?linktype@animmodel@@UBEHPAU1@@Z 0044c9d0 f i rendermodel.obj
 0001:0004b9d0       ?getteamscore@clientmode@game@@UAEHPBD@Z 0044c9d0 f i client1.obj
 0001:0004b9e0       ?render@animmodel@@QAEXHHHMABUvec@@0PAUdynent@@PAUmodelattach@@@Z 0044c9e0 f i rendermodel.obj
 0001:0004bca0       ?render@animmodel@@UAEXHHHABUvec@@MMPAUdynent@@PAUmodelattach@@00M@Z 0044cca0 f i rendermodel.obj
 0001:0004c400       ??0animmodel@@QAE@PBD@Z    0044d400 f i rendermodel.obj
 0001:0004c4c0       ??1animmodel@@UAE@XZ       0044d4c0 f i rendermodel.obj
 0001:0004c5c0       ?name@animmodel@@UBEPBDXZ  0044d5c0 f i rendermodel.obj
 0001:0004c5d0       ?cleanup@animmodel@@UAEXXZ 0044d5d0 f i rendermodel.obj
 0001:0004c610       ?initmatrix@animmodel@@QAEXAAUmatrix3x4@@@Z 0044d610 f i rendermodel.obj
 0001:0004c810       ?preloadBIH@animmodel@@UAEXXZ 0044d810 f i rendermodel.obj
 0001:0004c890       ?setBIH@animmodel@@UAEPAUBIH@@XZ 0044d890 f i rendermodel.obj
 0001:0004c970       ?envmapped@animmodel@@UAE_NXZ 0044d970 f i rendermodel.obj
 0001:0004ca10       ?preloadshaders@animmodel@@UAEXXZ 0044da10 f i rendermodel.obj
 0001:0004ca50       ?preloadmeshes@animmodel@@UAEXXZ 0044da50 f i rendermodel.obj
 0001:0004ca90       ?setshader@animmodel@@UAEXPAUShader@@@Z 0044da90 f i rendermodel.obj
 0001:0004caf0       ?setenvmap@animmodel@@UAEXMMPAUTexture@@@Z 0044daf0 f i rendermodel.obj
 0001:0004cb80       ?setspec@animmodel@@UAEXM@Z 0044db80 f i rendermodel.obj
 0001:0004cbf0       ?setambient@animmodel@@UAEXM@Z 0044dbf0 f i rendermodel.obj
 0001:0004cc60       ?setglow@animmodel@@UAEXMMM@Z 0044dc60 f i rendermodel.obj
 0001:0004cce0       ?setglare@animmodel@@UAEXMM@Z 0044dce0 f i rendermodel.obj
 0001:0004cd50       ?setalphatest@animmodel@@UAEXM@Z 0044dd50 f i rendermodel.obj
 0001:0004cdc0       ?setalphablend@animmodel@@UAEX_N@Z 0044ddc0 f i rendermodel.obj
 0001:0004ce30       ?setfullbright@animmodel@@UAEXM@Z 0044de30 f i rendermodel.obj
 0001:0004cea0       ?setcullface@animmodel@@UAEX_N@Z 0044dea0 f i rendermodel.obj
 0001:0004cf10       ?calcbb@animmodel@@UAEXAAUvec@@0@Z 0044df10 f i rendermodel.obj
 0001:0004d020       ?startrender@animmodel@@UAEXXZ 0044e020 f i rendermodel.obj
 0001:0004d1b0       ?disabletc@animmodel@@SAXXZ 0044e1b0 f i rendermodel.obj
 0001:0004d200       ?disablevbo@animmodel@@SAXXZ 0044e200 f i rendermodel.obj
 0001:0004d310       ?disableglow@animmodel@@SAXXZ 0044e310 f i rendermodel.obj
 0001:0004d360       ?endrender@animmodel@@UAEXXZ 0044e360 f i rendermodel.obj
 0001:0004d4a0       ??_Gmesh@animmodel@@UAEPAXI@Z 0044e4a0 f i rendermodel.obj
 0001:0004d4a0       ??_Emesh@animmodel@@UAEPAXI@Z 0044e4a0 f i * CIL library *:* CIL module *
 0001:0004d4e0       ??_Emeshgroup@animmodel@@UAEPAXI@Z 0044e4e0 f i * CIL library *:* CIL module *
 0001:0004d4e0       ??_Gmeshgroup@animmodel@@UAEPAXI@Z 0044e4e0 f i rendermodel.obj
 0001:0004d510       ??_Gpart@animmodel@@UAEPAXI@Z 0044e510 f i rendermodel.obj
 0001:0004d510       ??_Epart@animmodel@@UAEPAXI@Z 0044e510 f i * CIL library *:* CIL module *
 0001:0004d540       ??_Ganimmodel@@UAEPAXI@Z   0044e540 f i rendermodel.obj
 0001:0004d540       ??_Eanimmodel@@UAEPAXI@Z   0044e540 f i * CIL library *:* CIL module *
 0001:0004d570       ??0vertmesh@vertmodel@@QAE@XZ 0044e570 f i rendermodel.obj
 0001:0004d5f0       ??1vertmesh@vertmodel@@UAE@XZ 0044e5f0 f i rendermodel.obj
 0001:0004d6b0       ?buildnorms@vertmesh@vertmodel@@QAEX_N@Z 0044e6b0 f i rendermodel.obj
 0001:0004d940       ?calctangents@vertmesh@vertmodel@@QAEX_N@Z 0044e940 f i rendermodel.obj
 0001:0004d9f0       ?calcbb@vertmesh@vertmodel@@UAEXAAUvec@@0ABUmatrix3x4@@@Z 0044e9f0 f i rendermodel.obj
 0001:0004db10       ?gentris@vertmesh@vertmodel@@UAEXPAUTexture@@PAU?$vector@Utri@BIH@@@@ABUmatrix3x4@@@Z 0044eb10 f i rendermodel.obj
 0001:0004dde0       ?genvbo@vertmesh@vertmodel@@QAEHAAU?$vector@G@@H@Z 0044ede0 f i rendermodel.obj
 0001:0004dea0       ?interpverts@vertmesh@vertmodel@@QAEXABUanimstate@animmodel@@_N1PIAXAAUskin@4@@Z 0044eea0 f i rendermodel.obj
 0001:0004e900       ?render@vertmesh@vertmodel@@QAEXPBUanimstate@animmodel@@AAUskin@4@AAUvbocacheentry@2@@Z 0044f900 f i rendermodel.obj
 0001:0004ec20       ??0tag@vertmodel@@QAE@XZ   0044fc20 f i rendermodel.obj
 0001:0004ec20       ??0videobuffer@recorder@@QAE@XZ 0044fc20 f i movie.obj
 0001:0004ec30       ??1boneinfo@skelmodel@@QAE@XZ 0044fc30 f i rendermodel.obj
 0001:0004ec30       ??1tag@vertmodel@@QAE@XZ   0044fc30 f i rendermodel.obj
 0001:0004ec30       ??1soundsample@@QAE@XZ     0044fc30 f i sound.obj
 0001:0004ec30       ??1zipfile@@QAE@XZ         0044fc30 f i zip.obj
 0001:0004ec30       ??1videobuffer@recorder@@QAE@XZ 0044fc30 f i movie.obj
 0001:0004ec50       ??0vertmeshgroup@vertmodel@@QAE@XZ 0044fc50 f i rendermodel.obj
 0001:0004ed50       ??1vertmeshgroup@vertmodel@@UAE@XZ 0044fd50 f i rendermodel.obj
 0001:0004ee40       ?findtag@vertmeshgroup@vertmodel@@UAEHPBD@Z 0044fe40 f i rendermodel.obj
 0001:0004eea0       ?totalframes@vertmeshgroup@vertmodel@@UBEHXZ 0044fea0 f i rendermodel.obj
 0001:0004eea0       ?count@flarerenderer@@UAEHXZ 0044fea0 f i renderparticles.obj
 0001:0004eea0       ?animkey@skelmeshgroup@skelmodel@@UAEPAXXZ 0044fea0 f i rendermodel.obj
 0001:0004eeb0       ?concattagtransform@vertmeshgroup@vertmodel@@UAEXPAUpart@animmodel@@HABUmatrix3x4@@AAU5@@Z 0044feb0 f i rendermodel.obj
 0001:0004efa0       ?calctagmatrix@vertmeshgroup@vertmodel@@QAEXPAUpart@animmodel@@HABUanimstate@4@AAUglmatrixf@@@Z 0044ffa0 f i rendermodel.obj
 0001:0004f4c0       ?genvbo@vertmeshgroup@vertmodel@@QAEX_N0AAUvbocacheentry@2@@Z 004504c0 f i rendermodel.obj
 0001:0004fbe0       ?bindvbo@vertmeshgroup@vertmodel@@QAEXPBUanimstate@animmodel@@AAUvbocacheentry@2@@Z 00450be0 f i rendermodel.obj
 0001:0004fdb0       ?cleanup@vertmeshgroup@vertmodel@@UAEXXZ 00450db0 f i rendermodel.obj
 0001:0004fe40       ?preload@vertmeshgroup@vertmodel@@UAEXPAUpart@animmodel@@@Z 00450e40 f i rendermodel.obj
 0001:0004ff50       ?render@vertmeshgroup@vertmodel@@UAEXPBUanimstate@animmodel@@MABUvec@@1PAUdynent@@PAUpart@4@@Z 00450f50 f i rendermodel.obj
 0001:000503b0       ??_Evertmesh@vertmodel@@UAEPAXI@Z 004513b0 f i * CIL library *:* CIL module *
 0001:000503b0       ??_Gvertmesh@vertmodel@@UAEPAXI@Z 004513b0 f i rendermodel.obj
 0001:000503e0       ??_Gvertmeshgroup@vertmodel@@UAEPAXI@Z 004513e0 f i rendermodel.obj
 0001:000503e0       ??_Evertmeshgroup@vertmodel@@UAEPAXI@Z 004513e0 f i * CIL library *:* CIL module *
 0001:00050410       ??_Eskelmodel@@UAEPAXI@Z   00451410 f i * CIL library *:* CIL module *
 0001:00050410       ??_Evertmodel@@UAEPAXI@Z   00451410 f i * CIL library *:* CIL module *
 0001:00050410       ??_Gskelmodel@@UAEPAXI@Z   00451410 f i rendermodel.obj
 0001:00050410       ??_Gvertmodel@@UAEPAXI@Z   00451410 f i rendermodel.obj
 0001:00050470       ??1skelmodel@@UAE@XZ       00451470 f i rendermodel.obj
 0001:00050470       ??1vertmodel@@UAE@XZ       00451470 f i rendermodel.obj
 0001:000504b0       ?sortcmp@blendcombo@skelmodel@@SA_NABU12@0@Z 004514b0 f i rendermodel.obj
 0001:00050510       ?addweight@blendcombo@skelmodel@@QAEHHMH@Z 00451510 f i rendermodel.obj
 0001:00050640       ?finalize@blendcombo@skelmodel@@QAEXH@Z 00451640 f i rendermodel.obj
 0001:00050740       ?serialize@blendcombo@skelmodel@@QAEXAAUvvertw@2@@Z 00451740 f i rendermodel.obj
 0001:000508e0       ??1skelmesh@skelmodel@@UAE@XZ 004518e0 f i rendermodel.obj
 0001:00050990       ?calctangents@skelmesh@skelmodel@@QAEX_N@Z 00451990 f i rendermodel.obj
 0001:00050a10       ?calcbb@skelmesh@skelmodel@@UAEXAAUvec@@0ABUmatrix3x4@@@Z 00451a10 f i rendermodel.obj
 0001:00050b30       ?gentris@skelmesh@skelmodel@@UAEXPAUTexture@@PAU?$vector@Utri@BIH@@@@ABUmatrix3x4@@@Z 00451b30 f i rendermodel.obj
 0001:00050df0       ?assignvert@skelmesh@skelmodel@@QAEXAAUvvertbumpw@2@HAAUvert@2@AAUblendcombo@2@@Z 00451df0 f i rendermodel.obj
 0001:00050ea0       ?genvbo@skelmesh@skelmodel@@QAEHAAU?$vector@G@@H@Z 00451ea0 f i rendermodel.obj
 0001:00050fa0       ?fillbump@skelmesh@skelmodel@@QAEXPAEI@Z 00451fa0 f i rendermodel.obj
 0001:00051020       ?setshader@skelmesh@skelmodel@@UAEXPAUShader@@@Z 00452020 f i rendermodel.obj
 0001:000511c0       ?render@skelmesh@skelmodel@@QAEXPBUanimstate@animmodel@@AAUskin@4@AAUvbocacheentry@2@@Z 004521c0 f i rendermodel.obj
 0001:00051530       ??0boneinfo@skelmodel@@QAE@XZ 00452530 f i rendermodel.obj
 0001:000515a0       ??0skeleton@skelmodel@@QAE@XZ 004525a0 f i rendermodel.obj
 0001:00051710       ??1skeleton@skelmodel@@QAE@XZ 00452710 f i rendermodel.obj
 0001:000519e0       ?findskelanim@skeleton@skelmodel@@QAEPAUskelanimspec@2@PBDD@Z 004529e0 f i rendermodel.obj
 0001:00051b20       ?addskelanim@skeleton@skelmodel@@QAEAAUskelanimspec@2@PBD@Z 00452b20 f i rendermodel.obj
 0001:00051b90       ?findbone@skeleton@skelmodel@@QAEHPBD@Z 00452b90 f i rendermodel.obj
 0001:00051c00       ?findtag@skeleton@skelmodel@@QAEHPBD@Z 00452c00 f i rendermodel.obj
 0001:00051c60       ?addtag@skeleton@skelmodel@@QAE_NPBDHABUmatrix3x4@@@Z 00452c60 f i rendermodel.obj
 0001:00051d40       ?calcantipodes@skeleton@skelmodel@@QAEXXZ 00452d40 f i rendermodel.obj
 0001:00051fb0       ?remapbones@skeleton@skelmodel@@QAEXXZ 00452fb0 f i rendermodel.obj
 0001:00052360       ?addpitchdep@skeleton@skelmodel@@QAEXHH@Z 00453360 f i rendermodel.obj
 0001:00052400       ?findpitchcorrect@skeleton@skelmodel@@QAEHH@Z 00453400 f i rendermodel.obj
 0001:00052440       ?initpitchdeps@skeleton@skelmodel@@QAEXXZ 00453440 f i rendermodel.obj
 0001:000529e0       ?expandbonemask@skeleton@skelmodel@@QAEXPAEHH@Z 004539e0 f i rendermodel.obj
 0001:00052a30       ?applybonemask@skeleton@skelmodel@@QAEXPAGPAEH@Z 00453a30 f i rendermodel.obj
 0001:00052b30       ?linkchildren@skeleton@skelmodel@@QAEXXZ 00453b30 f i rendermodel.obj
 0001:00052b90       ?availgpubones@skeleton@skelmodel@@QBEHXZ 00453b90 f i rendermodel.obj
 0001:00052be0       ?calcdeviation@skeleton@skelmodel@@QAEMABUvec@@0ABUdualquat@@1@Z 00453be0 f i rendermodel.obj
 0001:000530a0       ?calcpitchcorrects@skeleton@skelmodel@@QAEXMABUvec@@0@Z 004540a0 f i rendermodel.obj
 0001:00053290       ?interpmatbones@skeleton@skelmodel@@QAEXPBUanimstate@animmodel@@MABUvec@@1HPBEAAUskelcacheentry@2@@Z 00454290 f i rendermodel.obj
 0001:00054b60       ?interpbones@skeleton@skelmodel@@QAEXPBUanimstate@animmodel@@MABUvec@@1HPBEAAUskelcacheentry@2@@Z 00455b60 f i rendermodel.obj
 0001:00056070       ?initmatragdoll@skeleton@skelmodel@@QAEXAAUragdolldata@@AAUskelcacheentry@2@PAUpart@animmodel@@@Z 00457070 f i rendermodel.obj
 0001:00056550       ?initragdoll@skeleton@skelmodel@@QAEXAAUragdolldata@@AAUskelcacheentry@2@PAUpart@animmodel@@@Z 00457550 f i rendermodel.obj
 0001:00056e60       ?genmatragdollbones@skeleton@skelmodel@@QAEXAAUragdolldata@@AAUskelcacheentry@2@PAUpart@animmodel@@@Z 00457e60 f i rendermodel.obj
 0001:000570f0       ?genragdollbones@skeleton@skelmodel@@QAEXAAUragdolldata@@AAUskelcacheentry@2@PAUpart@animmodel@@@Z 004580f0 f i rendermodel.obj
 0001:00057bf0       ?concattagtransform@skeleton@skelmodel@@QAEXPAUpart@animmodel@@HABUmatrix3x4@@AAU5@@Z 00458bf0 f i rendermodel.obj
 0001:00057cd0       ?calctags@skeleton@skelmodel@@QAEXPAUpart@animmodel@@PAUskelcacheentry@2@@Z 00458cd0 f i rendermodel.obj
 0001:00057f60       ?cleanup@skeleton@skelmodel@@QAEX_N@Z 00458f60 f i rendermodel.obj
 0001:000580a0       ?checkskelcache@skeleton@skelmodel@@QAEAAUskelcacheentry@2@PAUpart@animmodel@@PBUanimstate@5@MABUvec@@2PAUragdolldata@@@Z 004590a0 f i rendermodel.obj
 0001:000583e0       ?setasmbones@skeleton@skelmodel@@QAEXAAUskelcacheentry@2@H@Z 004593e0 f i rendermodel.obj
 0001:000585c0       ?getblendoffset@skeleton@skelmodel@@QAEHAAUUniformLoc@@@Z 004595c0 f i rendermodel.obj
 0001:00058680       ?setglslbones@skeleton@skelmodel@@QAEXAAUUniformLoc@@AAUskelcacheentry@2@1H@Z 00459680 f i rendermodel.obj
 0001:00058770       ??0skelmeshgroup@skelmodel@@QAE@XZ 00459770 f i rendermodel.obj
 0001:00058930       ??1skelmeshgroup@skelmodel@@UAE@XZ 00459930 f i rendermodel.obj
 0001:00058a90       ?shareskeleton@skelmeshgroup@skelmodel@@QAEXPAD@Z 00459a90 f i rendermodel.obj
 0001:00058c10       ?findtag@skelmeshgroup@skelmodel@@UAEHPBD@Z 00459c10 f i rendermodel.obj
 0001:00058c20       ?totalframes@skelmeshgroup@skelmodel@@UBEHXZ 00459c20 f i rendermodel.obj
 0001:00058c40       ?genvbo@skelmeshgroup@skelmodel@@QAEX_N0AAUvbocacheentry@2@@Z 00459c40 f i rendermodel.obj
 0001:00059780       ?bindvbo@skelmeshgroup@skelmodel@@QAEXPBUanimstate@animmodel@@AAUvbocacheentry@2@PAUskelcacheentry@2@PAUblendcacheentry@2@@Z 0045a780 f i rendermodel.obj
 0001:000599e0       ?concattagtransform@skelmeshgroup@skelmodel@@UAEXPAUpart@animmodel@@HABUmatrix3x4@@AAU5@@Z 0045a9e0 f i rendermodel.obj
 0001:000599f0       ?addblendcombo@skelmeshgroup@skelmodel@@QAEHABUblendcombo@2@@Z 0045a9f0 f i rendermodel.obj
 0001:00059b10       ?sortblendcombos@skelmeshgroup@skelmodel@@QAEXXZ 0045ab10 f i rendermodel.obj
 0001:00059be0       ?blendmatbones@skelmeshgroup@skelmodel@@QAEXABUskelcacheentry@2@AAUblendcacheentry@2@@Z 0045abe0 f i rendermodel.obj
 0001:00059cd0       ?blendbones@skelmeshgroup@skelmodel@@QAEXABUskelcacheentry@2@AAUblendcacheentry@2@@Z 0045acd0 f i rendermodel.obj
 0001:00059e70       ?cleanup@skelmeshgroup@skelmodel@@UAEXXZ 0045ae70 f i rendermodel.obj
 0001:00059f60       ?checkvbocache@skelmeshgroup@skelmodel@@QAEAAUvbocacheentry@2@AAUskelcacheentry@2@H@Z 0045af60 f i rendermodel.obj
 0001:0005a0e0       ?checkblendcache@skelmeshgroup@skelmodel@@QAEAAUblendcacheentry@2@AAUskelcacheentry@2@H@Z 0045b0e0 f i rendermodel.obj
 0001:0005a240       ?preload@skelmeshgroup@skelmodel@@UAEXPAUpart@animmodel@@@Z 0045b240 f i rendermodel.obj
 0001:0005a420       ?render@skelmeshgroup@skelmodel@@UAEXPBUanimstate@animmodel@@MABUvec@@1PAUdynent@@PAUpart@4@@Z 0045b420 f i rendermodel.obj
 0001:0005aa80       ?sharepartmask@skelpart@skelmodel@@QAEPAEPAUanimpartmask@2@@Z 0045ba80 f i rendermodel.obj
 0001:0005ab20       ?initanimparts@skelpart@skelmodel@@QAEXXZ 0045bb20 f i rendermodel.obj
 0001:0005ab80       ?linktype@skelmodel@@UBEHPAUanimmodel@@@Z 0045bb80 f i rendermodel.obj
 0001:0005abd0       ??_Gskelmesh@skelmodel@@UAEPAXI@Z 0045bbd0 f i rendermodel.obj
 0001:0005abd0       ??_Eskelmesh@skelmodel@@UAEPAXI@Z 0045bbd0 f i * CIL library *:* CIL module *
 0001:0005ac00       ??1?$hashtable@IH@@QAE@XZ  0045bc00 f i rendermodel.obj
 0001:0005ac40       ??_Eskelmeshgroup@skelmodel@@UAEPAXI@Z 0045bc40 f i * CIL library *:* CIL module *
 0001:0005ac40       ??_Gskelmeshgroup@skelmodel@@UAEPAXI@Z 0045bc40 f i rendermodel.obj
 0001:0005ac70       ??_Eskelpart@skelmodel@@UAEPAXI@Z 0045bc70 f i * CIL library *:* CIL module *
 0001:0005ac70       ??_Gskelpart@skelmodel@@UAEPAXI@Z 0045bc70 f i rendermodel.obj
 0001:0005acf0       ??1ragdollskel@@QAE@XZ     0045bcf0 f i rendermodel.obj
 0001:0005ae30       ?adjust@skeladjustment@@QAEXAAUdualquat@@@Z 0045be30 f i rendermodel.obj
 0001:0005b0a0       ?type@md2@@UBEHXZ          0045c0a0 f i rendermodel.obj
 0001:0005b0a0       ?setBIH@model@@UAEPAUBIH@@XZ 0045c0a0 f i rendermodel.obj
 0001:0005b0a0       __matherr                  0045c0a0 f i LIBCMT:matherr.obj
 0001:0005b0a0       ?getcrc@stream@@UAEIXZ     0045c0a0 f i stream.obj
 0001:0005b0b0       ?linktype@md2@@UBEHPAUanimmodel@@@Z 0045c0b0 f i rendermodel.obj
 0001:0005b0c0       ?genverts@md2meshgroup@md2@@QAEXPAHAAU?$vector@Utcvert@vertmodel@@@@AAU?$vector@G@@AAU?$vector@Utri@vertmodel@@@@@Z 0045c0c0 f i rendermodel.obj
 0001:0005b3d0       ?load@md2meshgroup@md2@@QAE_NPBD@Z 0045c3d0 f i rendermodel.obj
 0001:0005b910       ?getdefaultanim@md2part@md2@@UAEXAAUaniminfo@@HIPAUdynent@@@Z 0045c910 f i rendermodel.obj
 0001:0005b9c0       ?loadmeshes@md2@@UAEPAUmeshgroup@animmodel@@PBDPAD@Z 0045c9c0 f i rendermodel.obj
 0001:0005ba60       ?load@md2@@UAE_NXZ         0045ca60 f i rendermodel.obj
 0001:0005bd00       ??_Gsmd@@UAEPAXI@Z         0045cd00 f i rendermodel.obj
 0001:0005bd00       ??_Emd3@@UAEPAXI@Z         0045cd00 f i * CIL library *:* CIL module *
 0001:0005bd00       ??_Giqm@@UAEPAXI@Z         0045cd00 f i rendermodel.obj
 0001:0005bd00       ??_Gmd3@@UAEPAXI@Z         0045cd00 f i rendermodel.obj
 0001:0005bd00       ??_Gobj@@UAEPAXI@Z         0045cd00 f i rendermodel.obj
 0001:0005bd00       ??_Eobj@@UAEPAXI@Z         0045cd00 f i * CIL library *:* CIL module *
 0001:0005bd00       ??_Gmd2@@UAEPAXI@Z         0045cd00 f i rendermodel.obj
 0001:0005bd00       ??_Eiqm@@UAEPAXI@Z         0045cd00 f i * CIL library *:* CIL module *
 0001:0005bd00       ??_Esmd@@UAEPAXI@Z         0045cd00 f i * CIL library *:* CIL module *
 0001:0005bd00       ??_Gmd5@@UAEPAXI@Z         0045cd00 f i rendermodel.obj
 0001:0005bd00       ??_Emd5@@UAEPAXI@Z         0045cd00 f i * CIL library *:* CIL module *
 0001:0005bd00       ??_Emd2@@UAEPAXI@Z         0045cd00 f i * CIL library *:* CIL module *
 0001:0005bd60       ??_Emd2meshgroup@md2@@UAEPAXI@Z 0045cd60 f i * CIL library *:* CIL module *
 0001:0005bd60       ??_Gmd3meshgroup@md3@@UAEPAXI@Z 0045cd60 f i rendermodel.obj
 0001:0005bd60       ??_Gobjmeshgroup@obj@@UAEPAXI@Z 0045cd60 f i rendermodel.obj
 0001:0005bd60       ??_Gmd2meshgroup@md2@@UAEPAXI@Z 0045cd60 f i rendermodel.obj
 0001:0005bd60       ??_Emd3meshgroup@md3@@UAEPAXI@Z 0045cd60 f i * CIL library *:* CIL module *
 0001:0005bd60       ??_Eobjmeshgroup@obj@@UAEPAXI@Z 0045cd60 f i * CIL library *:* CIL module *
 0001:0005bdc0       ??_Gmd2part@md2@@UAEPAXI@Z 0045cdc0 f i rendermodel.obj
 0001:0005bdc0       ??_Emd2part@md2@@UAEPAXI@Z 0045cdc0 f i * CIL library *:* CIL module *
 0001:0005be20       ?load@md3meshgroup@md3@@QAE_NPBD@Z 0045ce20 f i rendermodel.obj
 0001:0005c5f0       ?loadmeshes@md3@@UAEPAUmeshgroup@animmodel@@PBDPAD@Z 0045d5f0 f i rendermodel.obj
 0001:0005c690       ?loaddefaultparts@md3@@UAE_NXZ 0045d690 f i rendermodel.obj
 0001:0005c800       ?load@md3@@UAE_NXZ         0045d800 f i rendermodel.obj
 0001:0005c970       ?type@md5@@UBEHXZ          0045d970 f i rendermodel.obj
 0001:0005c980       ??0md5mesh@md5@@QAE@XZ     0045d980 f i rendermodel.obj
 0001:0005ca30       ?buildverts@md5mesh@md5@@QAEXAAU?$vector@Umd5joint@@@@@Z 0045da30 f i rendermodel.obj
 0001:0005cd00       ?load@md5mesh@md5@@QAEXPAUstream@@PADI@Z 0045dd00 f i rendermodel.obj
 0001:0005d1a0       ?loadmesh@md5meshgroup@md5@@QAE_NPBDM@Z 0045e1a0 f i rendermodel.obj
 0001:0005da70       ?loadanim@md5meshgroup@md5@@UAEPAUskelanimspec@skelmodel@@PBD@Z 0045ea70 f i rendermodel.obj
 0001:0005e400       ?loadmeshes@md5@@UAEPAUmeshgroup@animmodel@@PBDPAD@Z 0045f400 f i rendermodel.obj
 0001:0005e500       ?loaddefaultparts@md5@@UAE_NXZ 0045f500 f i rendermodel.obj
 0001:0005e6c0       ?load@md5@@UAE_NXZ         0045f6c0 f i rendermodel.obj
 0001:0005e870       ??_Emd5mesh@md5@@UAEPAXI@Z 0045f870 f i * CIL library *:* CIL module *
 0001:0005e870       ??_Gmd5mesh@md5@@UAEPAXI@Z 0045f870 f i rendermodel.obj
 0001:0005e900       ??_Gsmdmeshgroup@smd@@UAEPAXI@Z 0045f900 f i rendermodel.obj
 0001:0005e900       ??_Emd5meshgroup@md5@@UAEPAXI@Z 0045f900 f i * CIL library *:* CIL module *
 0001:0005e900       ??_Gmd5meshgroup@md5@@UAEPAXI@Z 0045f900 f i rendermodel.obj
 0001:0005e900       ??_Eiqmmeshgroup@iqm@@UAEPAXI@Z 0045f900 f i * CIL library *:* CIL module *
 0001:0005e900       ??_Giqmmeshgroup@iqm@@UAEPAXI@Z 0045f900 f i rendermodel.obj
 0001:0005e900       ??_Esmdmeshgroup@smd@@UAEPAXI@Z 0045f900 f i * CIL library *:* CIL module *
 0001:0005e960       ?type@obj@@UBEHXZ          0045f960 f i rendermodel.obj
 0001:0005e970       ?parsevert@objmeshgroup@obj@@QAEXPADAAU?$vector@Uvec@@@@@Z 0045f970 f i rendermodel.obj
 0001:0005ea60       ?load@objmeshgroup@obj@@QAE_NPBDM@Z 0045fa60 f i rendermodel.obj
 0001:0005f6f0       ?loadmeshes@obj@@UAEPAUmeshgroup@animmodel@@PBDPAD@Z 004606f0 f i rendermodel.obj
 0001:0005f790       ?loaddefaultparts@obj@@UAE_NXZ 00460790 f i rendermodel.obj
 0001:0005f940       ?load@obj@@UAE_NXZ         00460940 f i rendermodel.obj
 0001:0005fab0       ?type@smd@@UBEHXZ          00460ab0 f i rendermodel.obj
 0001:0005fac0       ?skipcomment@smdmeshgroup@smd@@QAE_NAAPAD@Z 00460ac0 f i rendermodel.obj
 0001:0005fb60       ?skipsection@smdmeshgroup@smd@@QAEXPAUstream@@PADI@Z 00460b60 f i rendermodel.obj
 0001:0005fc30       ?readname@smdmeshgroup@smd@@QAEXAAPADPADI@Z 00460c30 f i rendermodel.obj
 0001:0005fcc0       ?readnodes@smdmeshgroup@smd@@QAEXPAUstream@@PADIAAU?$vector@Usmdbone@@@@@Z 00460cc0 f i rendermodel.obj
 0001:0005fe80       ?readmaterial@smdmeshgroup@smd@@QAEXAAPADPADI@Z 00460e80 f i rendermodel.obj
 0001:0005ff20       ?finalize@smdmeshdata@smdmeshgroup@smd@@QAEXXZ 00460f20 f i rendermodel.obj
 0001:00060080       ?readtriangles@smdmeshgroup@smd@@QAEXPAUstream@@PADI@Z 00461080 f i rendermodel.obj
 0001:000608b0       ?readskeleton@smdmeshgroup@smd@@QAEXPAUstream@@PADI@Z 004618b0 f i rendermodel.obj
 0001:00060cc0       ?loadmesh@smdmeshgroup@smd@@QAE_NPBD@Z 00461cc0 f i rendermodel.obj
 0001:00061040       ?readframes@smdmeshgroup@smd@@QAEHPAUstream@@PADIAAU?$vector@Udualquat@@@@@Z 00462040 f i rendermodel.obj
 0001:00061810       ?loadanim@smdmeshgroup@smd@@UAEPAUskelanimspec@skelmodel@@PBD@Z 00462810 f i rendermodel.obj
 0001:00061b80       ?loadmeshes@smd@@UAEPAUmeshgroup@animmodel@@PBDPAD@Z 00462b80 f i rendermodel.obj
 0001:00061c70       ?loaddefaultparts@smd@@UAE_NXZ 00462c70 f i rendermodel.obj
 0001:00061df0       ?load@smd@@UAE_NXZ         00462df0 f i rendermodel.obj
 0001:00061fa0       ??1?$hashtable@PBDUsmdmeshdata@smdmeshgroup@smd@@@@QAE@XZ 00462fa0 f i rendermodel.obj
 0001:00062000       ??0smdmesh@smd@@QAE@XZ     00463000 f i rendermodel.obj
 0001:00062090       ??_Esmdmesh@smd@@UAEPAXI@Z 00463090 f i * CIL library *:* CIL module *
 0001:00062090       ??_Gsmdmesh@smd@@UAEPAXI@Z 00463090 f i rendermodel.obj
 0001:000620f0       ?type@iqm@@UBEHXZ          004630f0 f i rendermodel.obj
 0001:00062100       ?loadiqmmeshes@iqmmeshgroup@iqm@@QAE_NPBDABUiqmheader@@PAE@Z 00463100 f i rendermodel.obj
 0001:00062e70       ?loadiqmanims@iqmmeshgroup@iqm@@QAE_NPBDABUiqmheader@@PAE@Z 00463e70 f i rendermodel.obj
 0001:00063be0       ?loadiqm@iqmmeshgroup@iqm@@QAE_NPBD_N1@Z 00464be0 f i rendermodel.obj
 0001:00063d20       ?loadanim@iqmmeshgroup@iqm@@UAEPAUskelanimspec@skelmodel@@PBD@Z 00464d20 f i rendermodel.obj
 0001:00063de0       ?loadmeshes@iqm@@UAEPAUmeshgroup@animmodel@@PBDPAD@Z 00464de0 f i rendermodel.obj
 0001:00063ed0       ?loaddefaultparts@iqm@@UAE_NXZ 00464ed0 f i rendermodel.obj
 0001:00064050       ?load@iqm@@UAE_NXZ         00465050 f i rendermodel.obj
 0001:00064200       ?add@?$vector@Ulinkedpart@animmodel@@@@QAEAAUlinkedpart@animmodel@@XZ 00465200 f i rendermodel.obj
 0001:000642a0       ?remove@?$vector@Ulinkedpart@animmodel@@@@QAEXHH@Z 004652a0 f i rendermodel.obj
 0001:00064320       ?access@?$hashtable@PBDPAUmeshgroup@animmodel@@@@QAEPAPAUmeshgroup@animmodel@@ABQBD@Z 00465320 f i rendermodel.obj
 0001:000643b0       ??A?$hashtable@PBDPAUmeshgroup@animmodel@@@@QAEAAPAUmeshgroup@animmodel@@ABQBD@Z 004653b0 f i rendermodel.obj
 0001:00064450       ??1?$hashset@U?$hashtableentry@PBDPAUmeshgroup@animmodel@@@@@@QAE@XZ 00465450 f i rendermodel.obj
 0001:000644a0       ??1?$vector@Uskelanimspec@skelmodel@@@@QAE@XZ 004654a0 f i rendermodel.obj
 0001:000644c0       ??1?$vector@Utag@skelmodel@@@@QAE@XZ 004654c0 f i rendermodel.obj
 0001:000644e0       ?add@?$vector@Utag@skelmodel@@@@QAEAAUtag@skelmodel@@XZ 004654e0 f i rendermodel.obj
 0001:00064560       ?insert@?$vector@Upitchdep@skelmodel@@@@QAEAAUpitchdep@skelmodel@@HABU23@@Z 00465560 f i rendermodel.obj
 0001:00064630       ??1?$hashset@U?$hashtableentry@IH@@@@QAE@XZ 00465630 f i rendermodel.obj
 0001:00064680       ?access@?$hashtable@PBDPAUskeleton@skelmodel@@@@QAEPAPAUskeleton@skelmodel@@ABQBD@Z 00465680 f i rendermodel.obj
 0001:00064710       ??A?$hashtable@PBDPAUskeleton@skelmodel@@@@QAEAAPAUskeleton@skelmodel@@ABQBD@Z 00465710 f i rendermodel.obj
 0001:000647b0       ??1?$hashset@U?$hashtableentry@PBDPAUskeleton@skelmodel@@@@@@QAE@XZ 004657b0 f i rendermodel.obj
 0001:00064800       ??A?$hashtable@Uivec@@H@@QAEAAHABUivec@@@Z 00465800 f i rendermodel.obj
 0001:00064860       ?clear@?$hashset@U?$hashtableentry@Uivec@@H@@@@QAEXXZ 00465860 f i rendermodel.obj
 0001:000648c0       ?add@?$vector@Umd5joint@@@@QAEAAUmd5joint@@ABU2@@Z 004658c0 f i rendermodel.obj
 0001:00064920       ?add@?$vector@Umd5hierarchy@@@@QAEAAUmd5hierarchy@@ABU2@@Z 00465920 f i rendermodel.obj
 0001:00064960       ??0?$skelcommands@Umd5@@@@QAE@XZ 00465960 f i rendermodel.obj
 0001:000649c0       ?inrange@?$vector@Usmdbone@@@@QBE_NH@Z 004659c0 f i rendermodel.obj
 0001:000649c0       ?inrange@?$vector@Ucharinfo@font@@@@QBE_NH@Z 004659c0 f i rendertext.obj
 0001:000649e0       ?access@?$hashtable@PBDUsmdmeshdata@smdmeshgroup@smd@@@@QAEPAUsmdmeshdata@smdmeshgroup@smd@@ABQBD@Z 004659e0 f i rendermodel.obj
 0001:00064a70       ??A?$hashtable@PBDUsmdmeshdata@smdmeshgroup@smd@@@@QAEAAUsmdmeshdata@smdmeshgroup@smd@@ABQBD@Z 00465a70 f i rendermodel.obj
 0001:00064b10       ??1?$hashset@U?$hashtableentry@PBDUsmdmeshdata@smdmeshgroup@smd@@@@@@QAE@XZ 00465b10 f i rendermodel.obj
 0001:00064b40       ??0?$hashset@H@@QAE@H@Z    00465b40 f i rendermodel.obj
 0001:00064bb0       ??1?$hashset@H@@QAE@XZ     00465bb0 f i rendermodel.obj
 0001:00064c00       ??0?$skelcommands@Usmd@@@@QAE@XZ 00465c00 f i rendermodel.obj
 0001:00064c60       ??0?$skelcommands@Uiqm@@@@QAE@XZ 00465c60 f i rendermodel.obj
 0001:00064cc0       ?access@?$hashtable@PBDPAUmodel@@@@QAEPAPAUmodel@@ABQBD@Z 00465cc0 f i rendermodel.obj
 0001:00064d50       ?access@?$hashtable@PBDPAUmodel@@@@QAEAAPAUmodel@@ABQBDABQAU2@@Z 00465d50 f i rendermodel.obj
 0001:00064e00       ??1?$hashset@U?$hashtableentry@PBDPAUmodel@@@@@@QAE@XZ 00465e00 f i rendermodel.obj
 0001:00064e50       ?add@?$vector@Umodelattach@@@@QAEAAUmodelattach@@ABU2@@Z 00465e50 f i rendermodel.obj
 0001:00064ec0       ?growbuf@?$vector@Umapmodelinfo@@@@QAEXH@Z 00465ec0 f i rendermodel.obj
 0001:00064f50       ?growbuf@?$vector@Uaviindexentry@@@@QAEXH@Z 00465f50 f i movie.obj
 0001:00064f50       ?growbuf@?$vector@Uanimspec@animmodel@@@@QAEXH@Z 00465f50 f i rendermodel.obj
 0001:00064f50       ?growbuf@?$vector@Udistlimit@ragdollskel@@@@QAEXH@Z 00465f50 f i rendermodel.obj
 0001:00064f50       ?growbuf@?$vector@Unode@wpcache@ai@@@@QAEXH@Z 00465f50 f i waypoint.obj
 0001:00064f50       ?growbuf@?$vector@Ucharinfo@font@@@@QAEXH@Z 00465f50 f i rendertext.obj
 0001:00064fd0       ?growbuf@?$vector@Uavisegmentinfo@@@@QAEXH@Z 00465fd0 f i movie.obj
 0001:00064fd0       ?growbuf@?$vector@Urotlimit@ragdollskel@@@@QAEXH@Z 00465fd0 f i rendermodel.obj
 0001:00064fd0       ?growbuf@?$vector@Uvvertbump@skelmodel@@@@QAEXH@Z 00465fd0 f i rendermodel.obj
 0001:00064fd0       ?growbuf@?$vector@Uvvertbump@vertmodel@@@@QAEXH@Z 00465fd0 f i rendermodel.obj
 0001:00065050       ?growbuf@?$vector@Urotfriction@ragdollskel@@@@QAEXH@Z 00466050 f i rendermodel.obj
 0001:000650d0       ?growbuf@?$vector@Ulinkedpart@animmodel@@@@QAEXH@Z 004660d0 f i rendermodel.obj
 0001:00065150       ?growbuf@?$vector@Uskin@animmodel@@@@QAEXH@Z 00466150 f i rendermodel.obj
 0001:000651d0       ??0?$hashset@U?$hashtableentry@PBDPAUmeshgroup@animmodel@@@@@@QAE@H@Z 004661d0 f i rendermodel.obj
 0001:00065260       ?growbuf@?$vector@Uflag@ctfservmode@server@@@@QAEXH@Z 00466260 f i server1.obj
 0001:00065260       ?growbuf@?$vector@Utri@BIH@@@@QAEXH@Z 00466260 f i rendermodel.obj
 0001:000652e0       ?shrink@?$vector@Uskelanimspec@skelmodel@@@@QAEXH@Z 004662e0 f i rendermodel.obj
 0001:00065320       ?shrink@?$vector@Utag@skelmodel@@@@QAEXH@Z 00466320 f i rendermodel.obj
 0001:00065370       ?growbuf@?$vector@Utag@skelmodel@@@@QAEXH@Z 00466370 f i rendermodel.obj
 0001:00065370       ?growbuf@?$vector@Uvvertbumpw@skelmodel@@@@QAEXH@Z 00466370 f i rendermodel.obj
 0001:00065400       ?growbuf@?$vector@Uskelcacheentry@skelmodel@@@@QAEXH@Z 00466400 f i rendermodel.obj
 0001:00065480       ??0?$hashset@U?$hashtableentry@IH@@@@QAE@H@Z 00466480 f i rendermodel.obj
 0001:000654f0       ??0?$hashset@U?$hashtableentry@PBDPAUskeleton@skelmodel@@@@@@QAE@H@Z 004664f0 f i rendermodel.obj
 0001:00065580       ?growbuf@?$vector@Utri@vertmodel@@@@QAEXH@Z 00466580 f i rendermodel.obj
 0001:00065580       ?growbuf@?$vector@Utri@skelmodel@@@@QAEXH@Z 00466580 f i rendermodel.obj
 0001:00065600       ?setpitch@?$vertcommands@Umd2@@@@SAXPAM000@Z 00466600 f i rendermodel.obj
 0001:000656b0       ?setanim@?$vertcommands@Umd2@@@@SAXPADPAH1PAM1@Z 004666b0 f i rendermodel.obj
 0001:000657e0       ?loadpart@?$vertcommands@Umd3@@@@SAXPADPAM@Z 004667e0 f i rendermodel.obj
 0001:000659c0       ?setpitch@?$vertcommands@Umd3@@@@SAXPAM000@Z 004669c0 f i rendermodel.obj
 0001:00065a70       ?setanim@?$vertcommands@Umd3@@@@SAXPADPAH1PAM1@Z 00466a70 f i rendermodel.obj
 0001:00065ba0       ??0?$modelcommands@Umd3@@Uvertmesh@vertmodel@@@@QAE@XZ 00466ba0 f i rendermodel.obj
 0001:00065c80       ?growbuf@?$vector@Umd5hierarchy@@@@QAEXH@Z 00466c80 f i rendermodel.obj
 0001:00065c80       ?growbuf@?$vector@UTex@Slot@@@@QAEXH@Z 00466c80 f i texture.obj
 0001:00065d00       ?loadpart@?$skelcommands@Umd5@@@@SAXPAD0PAM@Z 00466d00 f i rendermodel.obj
 0001:00065f10       ?settag@?$skelcommands@Umd5@@@@SAXPAD0PAM11111@Z 00466f10 f i rendermodel.obj
 0001:000661f0       ?setpitch@?$skelcommands@Umd5@@@@SAXPADPAM111@Z 004671f0 f i rendermodel.obj
 0001:00066360       ?setpitchtarget@?$skelcommands@Umd5@@@@SAXPAD0PAHPAM2@Z 00467360 f i rendermodel.obj
 0001:00066520       ?setpitchcorrect@?$skelcommands@Umd5@@@@SAXPAD0PAM11@Z 00467520 f i rendermodel.obj
 0001:000666a0       ?setanim@?$skelcommands@Umd5@@@@SAXPAD0PAMPAH22@Z 004676a0 f i rendermodel.obj
 0001:000668d0       ?setanimpart@?$skelcommands@Umd5@@@@SAXPAD@Z 004678d0 f i rendermodel.obj
 0001:00066b40       ?setadjust@?$skelcommands@Umd5@@@@SAXPADPAM11111@Z 00467b40 f i rendermodel.obj
 0001:00066d00       ??0?$modelcommands@Umd5@@Uskelmesh@skelmodel@@@@QAE@XZ 00467d00 f i rendermodel.obj
 0001:00066df0       ?loadpart@?$vertcommands@Uobj@@@@SAXPADPAM@Z 00467df0 f i rendermodel.obj
 0001:00066fd0       ?setpitch@?$vertcommands@Uobj@@@@SAXPAM000@Z 00467fd0 f i rendermodel.obj
 0001:00067080       ??0?$modelcommands@Uobj@@Uvertmesh@vertmodel@@@@QAE@XZ 00468080 f i rendermodel.obj
 0001:00067160       ?growbuf@?$vector@Uscore@captureservmode@server@@@@QAEXH@Z 00468160 f i server1.obj
 0001:00067160       ?growbuf@?$vector@Usmdbone@@@@QAEXH@Z 00468160 f i rendermodel.obj
 0001:00067160       ?growbuf@?$vector@Uscore@captureclientmode@game@@@@QAEXH@Z 00468160 f i client1.obj
 0001:000671e0       ??0?$hashset@U?$hashtableentry@PBDUsmdmeshdata@smdmeshgroup@smd@@@@@@QAE@H@Z 004681e0 f i rendermodel.obj
 0001:00067250       ?deletechunks@?$hashset@U?$hashtableentry@PBDUsmdmeshdata@smdmeshgroup@smd@@@@@@QAEXXZ 00468250 f i rendermodel.obj
 0001:000672c0       ?loadpart@?$skelcommands@Usmd@@@@SAXPAD0PAM@Z 004682c0 f i rendermodel.obj
 0001:000674d0       ?settag@?$skelcommands@Usmd@@@@SAXPAD0PAM11111@Z 004684d0 f i rendermodel.obj
 0001:000677b0       ?setpitch@?$skelcommands@Usmd@@@@SAXPADPAM111@Z 004687b0 f i rendermodel.obj
 0001:00067920       ?setpitchtarget@?$skelcommands@Usmd@@@@SAXPAD0PAHPAM2@Z 00468920 f i rendermodel.obj
 0001:00067ae0       ?setpitchcorrect@?$skelcommands@Usmd@@@@SAXPAD0PAM11@Z 00468ae0 f i rendermodel.obj
 0001:00067c60       ?setanim@?$skelcommands@Usmd@@@@SAXPAD0PAMPAH22@Z 00468c60 f i rendermodel.obj
 0001:00067e90       ?setanimpart@?$skelcommands@Usmd@@@@SAXPAD@Z 00468e90 f i rendermodel.obj
 0001:00068100       ?setadjust@?$skelcommands@Usmd@@@@SAXPADPAM11111@Z 00469100 f i rendermodel.obj
 0001:000682c0       ??0?$modelcommands@Usmd@@Uskelmesh@skelmodel@@@@QAE@XZ 004692c0 f i rendermodel.obj
 0001:000683b0       ?loadpart@?$skelcommands@Uiqm@@@@SAXPAD0PAM@Z 004693b0 f i rendermodel.obj
 0001:000685c0       ?settag@?$skelcommands@Uiqm@@@@SAXPAD0PAM11111@Z 004695c0 f i rendermodel.obj
 0001:000688a0       ?setpitch@?$skelcommands@Uiqm@@@@SAXPADPAM111@Z 004698a0 f i rendermodel.obj
 0001:00068a10       ?setpitchtarget@?$skelcommands@Uiqm@@@@SAXPAD0PAHPAM2@Z 00469a10 f i rendermodel.obj
 0001:00068bd0       ?setpitchcorrect@?$skelcommands@Uiqm@@@@SAXPAD0PAM11@Z 00469bd0 f i rendermodel.obj
 0001:00068d50       ?setanim@?$skelcommands@Uiqm@@@@SAXPAD0PAMPAH22@Z 00469d50 f i rendermodel.obj
 0001:00068f80       ?setanimpart@?$skelcommands@Uiqm@@@@SAXPAD@Z 00469f80 f i rendermodel.obj
 0001:000691f0       ?setadjust@?$skelcommands@Uiqm@@@@SAXPADPAM11111@Z 0046a1f0 f i rendermodel.obj
 0001:000693b0       ??0?$modelcommands@Uiqm@@Uskelmesh@skelmodel@@@@QAE@XZ 0046a3b0 f i rendermodel.obj
 0001:000694a0       ??0?$hashset@U?$hashtableentry@PBDPAUmodel@@@@@@QAE@H@Z 0046a4a0 f i rendermodel.obj
 0001:00069530       ?growbuf@?$vector@Ubatchedmodel@@@@QAEXH@Z 0046a530 f i rendermodel.obj
 0001:000695b0       ?growbuf@?$vector@PAUmodelbatch@@@@QAEXH@Z 0046a5b0 f i rendermodel.obj
 0001:00069640       ?growbuf@?$vector@Umodelattach@@@@QAEXH@Z 0046a640 f i rendermodel.obj
 0001:000696d0       ??1chain@?$hashset@U?$hashtableentry@PBDUsmdmeshdata@smdmeshgroup@smd@@@@@@QAE@XZ 0046a6d0 f i rendermodel.obj
 0001:00069720       ??1?$hashtableentry@PBDUsmdmeshdata@smdmeshgroup@smd@@@@QAE@XZ 0046a720 f i rendermodel.obj
 0001:00069760       ??1smdmeshdata@smdmeshgroup@smd@@QAE@XZ 0046a760 f i rendermodel.obj
 0001:000697e0       ?insert@?$hashset@U?$hashtableentry@PBDPAUmeshgroup@animmodel@@@@@@QAEPAUchain@1@I@Z 0046a7e0 f i rendermodel.obj
 0001:00069970       ?insert@?$vector@Upitchcorrect@skelmodel@@@@QAEAAUpitchcorrect@skelmodel@@HABU23@@Z 0046a970 f i rendermodel.obj
 0001:00069a20       ?insert@?$hashset@U?$hashtableentry@PADPAUfilesval@@@@@@QAEPAUchain@1@I@Z 0046aa20 f i console.obj
 0001:00069a20       ?insert@?$hashset@U?$hashtableentry@IH@@@@QAEPAUchain@1@I@Z 0046aa20 f i rendermodel.obj
 0001:00069b90       ?insert@?$hashset@U?$hashtableentry@PBDPAUskeleton@skelmodel@@@@@@QAEPAUchain@1@I@Z 0046ab90 f i rendermodel.obj
 0001:00069d20       ?setdir@?$modelcommands@Umd2@@Uvertmesh@vertmodel@@@@SAXPAD@Z 0046ad20 f i rendermodel.obj
 0001:00069d60       ?setdir@?$modelcommands@Umd3@@Uvertmesh@vertmodel@@@@SAXPAD@Z 0046ad60 f i rendermodel.obj
 0001:00069da0       ?setskin@?$modelcommands@Umd3@@Uvertmesh@vertmodel@@@@SAXPAD00PAM1@Z 0046ada0 f i rendermodel.obj
 0001:00069f10       ?setspec@?$modelcommands@Umd3@@Uvertmesh@vertmodel@@@@SAXPADPAH@Z 0046af10 f i rendermodel.obj
 0001:0006a020       ?setambient@?$modelcommands@Umd3@@Uvertmesh@vertmodel@@@@SAXPADPAH@Z 0046b020 f i rendermodel.obj
 0001:0006a130       ?setglow@?$modelcommands@Umd3@@Uvertmesh@vertmodel@@@@SAXPADPAH1PAM@Z 0046b130 f i rendermodel.obj
 0001:0006a280       ?setglare@?$modelcommands@Umd3@@Uvertmesh@vertmodel@@@@SAXPADPAM1@Z 0046b280 f i rendermodel.obj
 0001:0006a380       ?setalphatest@?$modelcommands@Umd3@@Uvertmesh@vertmodel@@@@SAXPADPAM@Z 0046b380 f i rendermodel.obj
 0001:0006a490       ?setalphablend@?$modelcommands@Umd3@@Uvertmesh@vertmodel@@@@SAXPADPAH@Z 0046b490 f i rendermodel.obj
 0001:0006a590       ?setcullface@?$modelcommands@Umd3@@Uvertmesh@vertmodel@@@@SAXPADPAH@Z 0046b590 f i rendermodel.obj
 0001:0006a690       ?setenvmap@?$modelcommands@Umd3@@Uvertmesh@vertmodel@@@@SAXPAD0@Z 0046b690 f i rendermodel.obj
 0001:0006a7a0       ?setbumpmap@?$modelcommands@Umd3@@Uvertmesh@vertmodel@@@@SAXPAD00@Z 0046b7a0 f i rendermodel.obj
 0001:0006a910       ?setfullbright@?$modelcommands@Umd3@@Uvertmesh@vertmodel@@@@SAXPADPAM@Z 0046b910 f i rendermodel.obj
 0001:0006aa10       ?setshader@?$modelcommands@Umd3@@Uvertmesh@vertmodel@@@@SAXPAD0@Z 0046ba10 f i rendermodel.obj
 0001:0006ab10       ?setscroll@?$modelcommands@Umd3@@Uvertmesh@vertmodel@@@@SAXPADPAM1@Z 0046bb10 f i rendermodel.obj
 0001:0006ac10       ?setnoclip@?$modelcommands@Umd3@@Uvertmesh@vertmodel@@@@SAXPADPAH@Z 0046bc10 f i rendermodel.obj
 0001:0006ad00       ?setlink@?$modelcommands@Umd3@@Uvertmesh@vertmodel@@@@SAXPAH0PADPAM22@Z 0046bd00 f i rendermodel.obj
 0001:0006add0       ?setdir@?$modelcommands@Umd5@@Uskelmesh@skelmodel@@@@SAXPAD@Z 0046bdd0 f i rendermodel.obj
 0001:0006ae10       ?setskin@?$modelcommands@Umd5@@Uskelmesh@skelmodel@@@@SAXPAD00PAM1@Z 0046be10 f i rendermodel.obj
 0001:0006af80       ?setspec@?$modelcommands@Umd5@@Uskelmesh@skelmodel@@@@SAXPADPAH@Z 0046bf80 f i rendermodel.obj
 0001:0006b090       ?setambient@?$modelcommands@Umd5@@Uskelmesh@skelmodel@@@@SAXPADPAH@Z 0046c090 f i rendermodel.obj
 0001:0006b1a0       ?setglow@?$modelcommands@Umd5@@Uskelmesh@skelmodel@@@@SAXPADPAH1PAM@Z 0046c1a0 f i rendermodel.obj
 0001:0006b2f0       ?setglare@?$modelcommands@Umd5@@Uskelmesh@skelmodel@@@@SAXPADPAM1@Z 0046c2f0 f i rendermodel.obj
 0001:0006b3f0       ?setalphatest@?$modelcommands@Umd5@@Uskelmesh@skelmodel@@@@SAXPADPAM@Z 0046c3f0 f i rendermodel.obj
 0001:0006b500       ?setalphablend@?$modelcommands@Umd5@@Uskelmesh@skelmodel@@@@SAXPADPAH@Z 0046c500 f i rendermodel.obj
 0001:0006b600       ?setcullface@?$modelcommands@Umd5@@Uskelmesh@skelmodel@@@@SAXPADPAH@Z 0046c600 f i rendermodel.obj
 0001:0006b700       ?setenvmap@?$modelcommands@Umd5@@Uskelmesh@skelmodel@@@@SAXPAD0@Z 0046c700 f i rendermodel.obj
 0001:0006b810       ?setbumpmap@?$modelcommands@Umd5@@Uskelmesh@skelmodel@@@@SAXPAD00@Z 0046c810 f i rendermodel.obj
 0001:0006b980       ?setfullbright@?$modelcommands@Umd5@@Uskelmesh@skelmodel@@@@SAXPADPAM@Z 0046c980 f i rendermodel.obj
 0001:0006ba80       ?setshader@?$modelcommands@Umd5@@Uskelmesh@skelmodel@@@@SAXPAD0@Z 0046ca80 f i rendermodel.obj
 0001:0006bb80       ?setscroll@?$modelcommands@Umd5@@Uskelmesh@skelmodel@@@@SAXPADPAM1@Z 0046cb80 f i rendermodel.obj
 0001:0006bc80       ?setnoclip@?$modelcommands@Umd5@@Uskelmesh@skelmodel@@@@SAXPADPAH@Z 0046cc80 f i rendermodel.obj
 0001:0006bd70       ?setlink@?$modelcommands@Umd5@@Uskelmesh@skelmodel@@@@SAXPAH0PADPAM22@Z 0046cd70 f i rendermodel.obj
 0001:0006be40       ?setdir@?$modelcommands@Uobj@@Uvertmesh@vertmodel@@@@SAXPAD@Z 0046ce40 f i rendermodel.obj
 0001:0006be80       ?setskin@?$modelcommands@Uobj@@Uvertmesh@vertmodel@@@@SAXPAD00PAM1@Z 0046ce80 f i rendermodel.obj
 0001:0006bff0       ?setspec@?$modelcommands@Uobj@@Uvertmesh@vertmodel@@@@SAXPADPAH@Z 0046cff0 f i rendermodel.obj
 0001:0006c100       ?setambient@?$modelcommands@Uobj@@Uvertmesh@vertmodel@@@@SAXPADPAH@Z 0046d100 f i rendermodel.obj
 0001:0006c210       ?setglow@?$modelcommands@Uobj@@Uvertmesh@vertmodel@@@@SAXPADPAH1PAM@Z 0046d210 f i rendermodel.obj
 0001:0006c360       ?setglare@?$modelcommands@Uobj@@Uvertmesh@vertmodel@@@@SAXPADPAM1@Z 0046d360 f i rendermodel.obj
 0001:0006c460       ?setalphatest@?$modelcommands@Uobj@@Uvertmesh@vertmodel@@@@SAXPADPAM@Z 0046d460 f i rendermodel.obj
 0001:0006c570       ?setalphablend@?$modelcommands@Uobj@@Uvertmesh@vertmodel@@@@SAXPADPAH@Z 0046d570 f i rendermodel.obj
 0001:0006c670       ?setcullface@?$modelcommands@Uobj@@Uvertmesh@vertmodel@@@@SAXPADPAH@Z 0046d670 f i rendermodel.obj
 0001:0006c770       ?setenvmap@?$modelcommands@Uobj@@Uvertmesh@vertmodel@@@@SAXPAD0@Z 0046d770 f i rendermodel.obj
 0001:0006c880       ?setbumpmap@?$modelcommands@Uobj@@Uvertmesh@vertmodel@@@@SAXPAD00@Z 0046d880 f i rendermodel.obj
 0001:0006c9f0       ?setfullbright@?$modelcommands@Uobj@@Uvertmesh@vertmodel@@@@SAXPADPAM@Z 0046d9f0 f i rendermodel.obj
 0001:0006caf0       ?setshader@?$modelcommands@Uobj@@Uvertmesh@vertmodel@@@@SAXPAD0@Z 0046daf0 f i rendermodel.obj
 0001:0006cbf0       ?setscroll@?$modelcommands@Uobj@@Uvertmesh@vertmodel@@@@SAXPADPAM1@Z 0046dbf0 f i rendermodel.obj
 0001:0006ccf0       ?setnoclip@?$modelcommands@Uobj@@Uvertmesh@vertmodel@@@@SAXPADPAH@Z 0046dcf0 f i rendermodel.obj
 0001:0006cde0       ?setlink@?$modelcommands@Uobj@@Uvertmesh@vertmodel@@@@SAXPAH0PADPAM22@Z 0046dde0 f i rendermodel.obj
 0001:0006ceb0       ?insert@?$hashset@U?$hashtableentry@PBDUsmdmeshdata@smdmeshgroup@smd@@@@@@QAEPAUchain@1@I@Z 0046deb0 f i rendermodel.obj
 0001:0006d060       ?setdir@?$modelcommands@Usmd@@Uskelmesh@skelmodel@@@@SAXPAD@Z 0046e060 f i rendermodel.obj
 0001:0006d0a0       ?setskin@?$modelcommands@Usmd@@Uskelmesh@skelmodel@@@@SAXPAD00PAM1@Z 0046e0a0 f i rendermodel.obj
 0001:0006d210       ?setspec@?$modelcommands@Usmd@@Uskelmesh@skelmodel@@@@SAXPADPAH@Z 0046e210 f i rendermodel.obj
 0001:0006d320       ?setambient@?$modelcommands@Usmd@@Uskelmesh@skelmodel@@@@SAXPADPAH@Z 0046e320 f i rendermodel.obj
 0001:0006d430       ?setglow@?$modelcommands@Usmd@@Uskelmesh@skelmodel@@@@SAXPADPAH1PAM@Z 0046e430 f i rendermodel.obj
 0001:0006d580       ?setglare@?$modelcommands@Usmd@@Uskelmesh@skelmodel@@@@SAXPADPAM1@Z 0046e580 f i rendermodel.obj
 0001:0006d680       ?setalphatest@?$modelcommands@Usmd@@Uskelmesh@skelmodel@@@@SAXPADPAM@Z 0046e680 f i rendermodel.obj
 0001:0006d790       ?setalphablend@?$modelcommands@Usmd@@Uskelmesh@skelmodel@@@@SAXPADPAH@Z 0046e790 f i rendermodel.obj
 0001:0006d890       ?setcullface@?$modelcommands@Usmd@@Uskelmesh@skelmodel@@@@SAXPADPAH@Z 0046e890 f i rendermodel.obj
 0001:0006d990       ?setenvmap@?$modelcommands@Usmd@@Uskelmesh@skelmodel@@@@SAXPAD0@Z 0046e990 f i rendermodel.obj
 0001:0006daa0       ?setbumpmap@?$modelcommands@Usmd@@Uskelmesh@skelmodel@@@@SAXPAD00@Z 0046eaa0 f i rendermodel.obj
 0001:0006dc10       ?setfullbright@?$modelcommands@Usmd@@Uskelmesh@skelmodel@@@@SAXPADPAM@Z 0046ec10 f i rendermodel.obj
 0001:0006dd10       ?setshader@?$modelcommands@Usmd@@Uskelmesh@skelmodel@@@@SAXPAD0@Z 0046ed10 f i rendermodel.obj
 0001:0006de10       ?setscroll@?$modelcommands@Usmd@@Uskelmesh@skelmodel@@@@SAXPADPAM1@Z 0046ee10 f i rendermodel.obj
 0001:0006df10       ?setnoclip@?$modelcommands@Usmd@@Uskelmesh@skelmodel@@@@SAXPADPAH@Z 0046ef10 f i rendermodel.obj
 0001:0006e000       ?setlink@?$modelcommands@Usmd@@Uskelmesh@skelmodel@@@@SAXPAH0PADPAM22@Z 0046f000 f i rendermodel.obj
 0001:0006e0d0       ?setdir@?$modelcommands@Uiqm@@Uskelmesh@skelmodel@@@@SAXPAD@Z 0046f0d0 f i rendermodel.obj
 0001:0006e110       ?setskin@?$modelcommands@Uiqm@@Uskelmesh@skelmodel@@@@SAXPAD00PAM1@Z 0046f110 f i rendermodel.obj
 0001:0006e280       ?setspec@?$modelcommands@Uiqm@@Uskelmesh@skelmodel@@@@SAXPADPAH@Z 0046f280 f i rendermodel.obj
 0001:0006e390       ?setambient@?$modelcommands@Uiqm@@Uskelmesh@skelmodel@@@@SAXPADPAH@Z 0046f390 f i rendermodel.obj
 0001:0006e4a0       ?setglow@?$modelcommands@Uiqm@@Uskelmesh@skelmodel@@@@SAXPADPAH1PAM@Z 0046f4a0 f i rendermodel.obj
 0001:0006e5f0       ?setglare@?$modelcommands@Uiqm@@Uskelmesh@skelmodel@@@@SAXPADPAM1@Z 0046f5f0 f i rendermodel.obj
 0001:0006e6f0       ?setalphatest@?$modelcommands@Uiqm@@Uskelmesh@skelmodel@@@@SAXPADPAM@Z 0046f6f0 f i rendermodel.obj
 0001:0006e800       ?setalphablend@?$modelcommands@Uiqm@@Uskelmesh@skelmodel@@@@SAXPADPAH@Z 0046f800 f i rendermodel.obj
 0001:0006e900       ?setcullface@?$modelcommands@Uiqm@@Uskelmesh@skelmodel@@@@SAXPADPAH@Z 0046f900 f i rendermodel.obj
 0001:0006ea00       ?setenvmap@?$modelcommands@Uiqm@@Uskelmesh@skelmodel@@@@SAXPAD0@Z 0046fa00 f i rendermodel.obj
 0001:0006eb10       ?setbumpmap@?$modelcommands@Uiqm@@Uskelmesh@skelmodel@@@@SAXPAD00@Z 0046fb10 f i rendermodel.obj
 0001:0006ec80       ?setfullbright@?$modelcommands@Uiqm@@Uskelmesh@skelmodel@@@@SAXPADPAM@Z 0046fc80 f i rendermodel.obj
 0001:0006ed80       ?setshader@?$modelcommands@Uiqm@@Uskelmesh@skelmodel@@@@SAXPAD0@Z 0046fd80 f i rendermodel.obj
 0001:0006ee80       ?setscroll@?$modelcommands@Uiqm@@Uskelmesh@skelmodel@@@@SAXPADPAM1@Z 0046fe80 f i rendermodel.obj
 0001:0006ef80       ?setnoclip@?$modelcommands@Uiqm@@Uskelmesh@skelmodel@@@@SAXPADPAH@Z 0046ff80 f i rendermodel.obj
 0001:0006f070       ?setlink@?$modelcommands@Uiqm@@Uskelmesh@skelmodel@@@@SAXPAH0PADPAM22@Z 00470070 f i rendermodel.obj
 0001:0006f140       ?insert@?$hashset@U?$hashtableentry@PBDPAUmodel@@@@@@QAEPAUchain@1@I@Z 00470140 f i rendermodel.obj
 0001:0006f2d0       ?deletearrays@?$vector@PAD@@QAEXXZ 004702d0 f i rendermodel.obj
 0001:0006f300       ??0chain@?$hashset@U?$hashtableentry@PBDUsmdmeshdata@smdmeshgroup@smd@@@@@@QAE@XZ 00470300 f i rendermodel.obj
 0001:0006f380       ?growbuf@?$vector@Upitchtarget@skelmodel@@@@QAEXH@Z 00470380 f i rendermodel.obj
 0001:0006f410       ??$smoothnorms@Uvert@vertmodel@@Utri@2@@mesh@animmodel@@QAEXPAUvert@vertmodel@@HPAUtri@3@HM_N@Z 00470410 f i rendermodel.obj
 0001:0006f950       ??$calctangents@Ubumpvert@vertmodel@@Uvert@2@Utcvert@2@Utri@2@@mesh@animmodel@@QAEXPAUbumpvert@vertmodel@@PAUvert@3@PAUtcvert@3@HPAUtri@3@H_N@Z 00470950 f i rendermodel.obj
 0001:00070060       ??$genvbo@Uvvertbump@vertmodel@@@vertmesh@vertmodel@@QAEHAAU?$vector@G@@HAAU?$vector@Uvvertbump@vertmodel@@@@PAHH@Z 00471060 f i rendermodel.obj
 0001:00070410       ??$genvbo@Uvvert@vertmodel@@@vertmesh@vertmodel@@QAEHAAU?$vector@G@@HAAU?$vector@Uvvert@vertmodel@@@@PAHH@Z 00471410 f i rendermodel.obj
 0001:00070730       ??$genvbo@Uvvertff@vertmodel@@@vertmesh@vertmodel@@QAEHAAU?$vector@G@@HAAU?$vector@Uvvertff@vertmodel@@@@PAHH@Z 00471730 f i rendermodel.obj
 0001:00070a10       ??$smoothnorms@Uvert@skelmodel@@Utri@2@@mesh@animmodel@@QAEXPAUvert@skelmodel@@HPAUtri@3@HM_N@Z 00471a10 f i rendermodel.obj
 0001:00070f50       ??$buildnorms@Uvert@skelmodel@@Utri@2@@mesh@animmodel@@QAEXPAUvert@skelmodel@@HPAUtri@3@H_N@Z 00471f50 f i rendermodel.obj
 0001:00071180       ??$calctangents@Ubumpvert@skelmodel@@Uvert@2@U32@Utri@2@@mesh@animmodel@@QAEXPAUbumpvert@skelmodel@@PAUvert@3@1HPAUtri@3@H_N@Z 00472180 f i rendermodel.obj
 0001:00071880       ??$genvbo@Uvvertbumpw@skelmodel@@@skelmesh@skelmodel@@QAEHAAU?$vector@G@@HAAU?$vector@Uvvertbumpw@skelmodel@@@@@Z 00472880 f i rendermodel.obj
 0001:000719d0       ??$genvbo@Uvvertw@skelmodel@@@skelmesh@skelmodel@@QAEHAAU?$vector@G@@HAAU?$vector@Uvvertw@skelmodel@@@@@Z 004729d0 f i rendermodel.obj
 0001:00071b60       ??$genvbo@Uvvertbump@skelmodel@@@skelmesh@skelmodel@@QAEHAAU?$vector@G@@HAAU?$vector@Uvvertbump@skelmodel@@@@PAHH@Z 00472b60 f i rendermodel.obj
 0001:00071f20       ??$genvbo@Uvvertn@skelmodel@@@skelmesh@skelmodel@@QAEHAAU?$vector@G@@HAAU?$vector@Uvvertn@skelmodel@@@@PAHH@Z 00472f20 f i rendermodel.obj
 0001:00072210       ??$genvbo@Uvvert@skelmodel@@@skelmesh@skelmodel@@QAEHAAU?$vector@G@@HAAU?$vector@Uvvert@skelmodel@@@@PAHH@Z 00473210 f i rendermodel.obj
 0001:000724d0       ??$blendbones@Umatrix3x4@@@skelmeshgroup@skelmodel@@SAXAAUmatrix3x4@@PBU2@ABUblendcombo@1@@Z 004734d0 f i rendermodel.obj
 0001:000728b0       ??$blendbones@Udualquat@@@skelmeshgroup@skelmodel@@SAXAAUdualquat@@PBU2@ABUblendcombo@1@@Z 004738b0 f i rendermodel.obj
 0001:00072c40       ??$interpverts@Umatrix3x4@@@skelmesh@skelmodel@@QAEXPIBUmatrix3x4@@0_N1PIAXAAUskin@animmodel@@@Z 00473c40 f i rendermodel.obj
 0001:00073260       ??$interpverts@Udualquat@@@skelmesh@skelmodel@@QAEXPIBUdualquat@@0_N1PIAXAAUskin@animmodel@@@Z 00474260 f i rendermodel.obj
 0001:00073e30       ??$remove@PAD@?$hashset@U?$hashtableentry@PBDPAUmodel@@@@@@QAE_NABQAD@Z 00474e30 f i rendermodel.obj
 0001:00073f20       ??$modelcommand@$$A6AXPAM000@Z@?$modelcommands@Umd2@@Uvertmesh@vertmodel@@@@QAEXP6AXPAM000@ZPBD2@Z 00474f20 f i rendermodel.obj
 0001:00073fa0       ??$modelcommand@$$A6AXPADPAH1PAM1@Z@?$modelcommands@Umd2@@Uvertmesh@vertmodel@@@@QAEXP6AXPADPAH1PAM1@ZPBD4@Z 00474fa0 f i rendermodel.obj
 0001:00074020       ??$modelcommand@$$A6AXPADPAM@Z@?$modelcommands@Umd3@@Uvertmesh@vertmodel@@@@QAEXP6AXPADPAM@ZPBD3@Z 00475020 f i rendermodel.obj
 0001:000740b0       ??$modelcommand@$$A6AXPAM000@Z@?$modelcommands@Umd3@@Uvertmesh@vertmodel@@@@QAEXP6AXPAM000@ZPBD2@Z 004750b0 f i rendermodel.obj
 0001:00074130       ??$modelcommand@$$A6AXPADPAH1PAM1@Z@?$modelcommands@Umd3@@Uvertmesh@vertmodel@@@@QAEXP6AXPADPAH1PAM1@ZPBD4@Z 00475130 f i rendermodel.obj
 0001:000741b0       ??$modelcommand@$$A6AXPAD0PAM@Z@?$modelcommands@Umd5@@Uskelmesh@skelmodel@@@@QAEXP6AXPAD0PAM@ZPBD3@Z 004751b0 f i rendermodel.obj
 0001:00074230       ??$modelcommand@$$A6AXPAD0PAM11111@Z@?$modelcommands@Umd5@@Uskelmesh@skelmodel@@@@QAEXP6AXPAD0PAM11111@ZPBD3@Z 00475230 f i rendermodel.obj
 0001:000742b0       ??$modelcommand@$$A6AXPADPAM111@Z@?$modelcommands@Umd5@@Uskelmesh@skelmodel@@@@QAEXP6AXPADPAM111@ZPBD3@Z 004752b0 f i rendermodel.obj
 0001:00074330       ??$modelcommand@$$A6AXPAD0PAHPAM2@Z@?$modelcommands@Umd5@@Uskelmesh@skelmodel@@@@QAEXP6AXPAD0PAHPAM2@ZPBD4@Z 00475330 f i rendermodel.obj
 0001:000743b0       ??$modelcommand@$$A6AXPAD0PAM11@Z@?$modelcommands@Umd5@@Uskelmesh@skelmodel@@@@QAEXP6AXPAD0PAM11@ZPBD3@Z 004753b0 f i rendermodel.obj
 0001:00074430       ??$modelcommand@$$A6AXPAD0PAMPAH22@Z@?$modelcommands@Umd5@@Uskelmesh@skelmodel@@@@QAEXP6AXPAD0PAMPAH22@ZPBD4@Z 00475430 f i rendermodel.obj
 0001:000744b0       ??$modelcommand@$$A6AXPAD@Z@?$modelcommands@Umd5@@Uskelmesh@skelmodel@@@@QAEXP6AXPAD@ZPBD2@Z 004754b0 f i rendermodel.obj
 0001:00074540       ??$modelcommand@$$A6AXPADPAM11111@Z@?$modelcommands@Umd5@@Uskelmesh@skelmodel@@@@QAEXP6AXPADPAM11111@ZPBD3@Z 00475540 f i rendermodel.obj
 0001:000745c0       ??$modelcommand@$$A6AXPADPAM@Z@?$modelcommands@Uobj@@Uvertmesh@vertmodel@@@@QAEXP6AXPADPAM@ZPBD3@Z 004755c0 f i rendermodel.obj
 0001:00074650       ??$modelcommand@$$A6AXPAM000@Z@?$modelcommands@Uobj@@Uvertmesh@vertmodel@@@@QAEXP6AXPAM000@ZPBD2@Z 00475650 f i rendermodel.obj
 0001:000746d0       ??$modelcommand@$$A6AXPAD0PAM@Z@?$modelcommands@Usmd@@Uskelmesh@skelmodel@@@@QAEXP6AXPAD0PAM@ZPBD3@Z 004756d0 f i rendermodel.obj
 0001:00074750       ??$modelcommand@$$A6AXPAD0PAM11111@Z@?$modelcommands@Usmd@@Uskelmesh@skelmodel@@@@QAEXP6AXPAD0PAM11111@ZPBD3@Z 00475750 f i rendermodel.obj
 0001:000747d0       ??$modelcommand@$$A6AXPADPAM111@Z@?$modelcommands@Usmd@@Uskelmesh@skelmodel@@@@QAEXP6AXPADPAM111@ZPBD3@Z 004757d0 f i rendermodel.obj
 0001:00074850       ??$modelcommand@$$A6AXPAD0PAHPAM2@Z@?$modelcommands@Usmd@@Uskelmesh@skelmodel@@@@QAEXP6AXPAD0PAHPAM2@ZPBD4@Z 00475850 f i rendermodel.obj
 0001:000748d0       ??$modelcommand@$$A6AXPAD0PAM11@Z@?$modelcommands@Usmd@@Uskelmesh@skelmodel@@@@QAEXP6AXPAD0PAM11@ZPBD3@Z 004758d0 f i rendermodel.obj
 0001:00074950       ??$modelcommand@$$A6AXPAD0PAMPAH22@Z@?$modelcommands@Usmd@@Uskelmesh@skelmodel@@@@QAEXP6AXPAD0PAMPAH22@ZPBD4@Z 00475950 f i rendermodel.obj
 0001:000749d0       ??$modelcommand@$$A6AXPAD@Z@?$modelcommands@Usmd@@Uskelmesh@skelmodel@@@@QAEXP6AXPAD@ZPBD2@Z 004759d0 f i rendermodel.obj
 0001:00074a60       ??$modelcommand@$$A6AXPADPAM11111@Z@?$modelcommands@Usmd@@Uskelmesh@skelmodel@@@@QAEXP6AXPADPAM11111@ZPBD3@Z 00475a60 f i rendermodel.obj
 0001:00074ae0       ??$modelcommand@$$A6AXPAD0PAM@Z@?$modelcommands@Uiqm@@Uskelmesh@skelmodel@@@@QAEXP6AXPAD0PAM@ZPBD3@Z 00475ae0 f i rendermodel.obj
 0001:00074b60       ??$modelcommand@$$A6AXPAD0PAM11111@Z@?$modelcommands@Uiqm@@Uskelmesh@skelmodel@@@@QAEXP6AXPAD0PAM11111@ZPBD3@Z 00475b60 f i rendermodel.obj
 0001:00074be0       ??$modelcommand@$$A6AXPADPAM111@Z@?$modelcommands@Uiqm@@Uskelmesh@skelmodel@@@@QAEXP6AXPADPAM111@ZPBD3@Z 00475be0 f i rendermodel.obj
 0001:00074c60       ??$modelcommand@$$A6AXPAD0PAHPAM2@Z@?$modelcommands@Uiqm@@Uskelmesh@skelmodel@@@@QAEXP6AXPAD0PAHPAM2@ZPBD4@Z 00475c60 f i rendermodel.obj
 0001:00074ce0       ??$modelcommand@$$A6AXPAD0PAM11@Z@?$modelcommands@Uiqm@@Uskelmesh@skelmodel@@@@QAEXP6AXPAD0PAM11@ZPBD3@Z 00475ce0 f i rendermodel.obj
 0001:00074d60       ??$modelcommand@$$A6AXPAD0PAMPAH22@Z@?$modelcommands@Uiqm@@Uskelmesh@skelmodel@@@@QAEXP6AXPAD0PAMPAH22@ZPBD4@Z 00475d60 f i rendermodel.obj
 0001:00074de0       ??$modelcommand@$$A6AXPAD@Z@?$modelcommands@Uiqm@@Uskelmesh@skelmodel@@@@QAEXP6AXPAD@ZPBD2@Z 00475de0 f i rendermodel.obj
 0001:00074e70       ??$modelcommand@$$A6AXPADPAM11111@Z@?$modelcommands@Uiqm@@Uskelmesh@skelmodel@@@@QAEXP6AXPADPAM11111@ZPBD3@Z 00475e70 f i rendermodel.obj
 0001:00074ef0       ??$modelcommand@$$A6AXPAD@Z@?$modelcommands@Umd2@@Uvertmesh@vertmodel@@@@QAEXP6AXPAD@ZPBD2@Z 00475ef0 f i rendermodel.obj
 0001:00074f70       ??$modelcommand@$$A6AXPAD@Z@?$modelcommands@Umd3@@Uvertmesh@vertmodel@@@@QAEXP6AXPAD@ZPBD2@Z 00475f70 f i rendermodel.obj
 0001:00074ff0       ??$modelcommand@$$A6AXPAD00PAM1@Z@?$modelcommands@Umd3@@Uvertmesh@vertmodel@@@@QAEXP6AXPAD00PAM1@ZPBD3@Z 00475ff0 f i rendermodel.obj
 0001:00075070       ??$modelcommand@$$A6AXPADPAH@Z@?$modelcommands@Umd3@@Uvertmesh@vertmodel@@@@QAEXP6AXPADPAH@ZPBD3@Z 00476070 f i rendermodel.obj
 0001:00075100       ??$modelcommand@$$A6AXPADPAH1PAM@Z@?$modelcommands@Umd3@@Uvertmesh@vertmodel@@@@QAEXP6AXPADPAH1PAM@ZPBD4@Z 00476100 f i rendermodel.obj
 0001:00075180       ??$modelcommand@$$A6AXPADPAM1@Z@?$modelcommands@Umd3@@Uvertmesh@vertmodel@@@@QAEXP6AXPADPAM1@ZPBD3@Z 00476180 f i rendermodel.obj
 0001:00075210       ??$modelcommand@$$A6AXPAD0@Z@?$modelcommands@Umd3@@Uvertmesh@vertmodel@@@@QAEXP6AXPAD0@ZPBD2@Z 00476210 f i rendermodel.obj
 0001:000752a0       ??$modelcommand@$$A6AXPAD00@Z@?$modelcommands@Umd3@@Uvertmesh@vertmodel@@@@QAEXP6AXPAD00@ZPBD2@Z 004762a0 f i rendermodel.obj
 0001:00075320       ??$modelcommand@$$A6AXPAH0PADPAM22@Z@?$modelcommands@Umd3@@Uvertmesh@vertmodel@@@@QAEXP6AXPAH0PADPAM22@ZPBD4@Z 00476320 f i rendermodel.obj
 0001:000753a0       ??$modelcommand@$$A6AXPAD00PAM1@Z@?$modelcommands@Umd5@@Uskelmesh@skelmodel@@@@QAEXP6AXPAD00PAM1@ZPBD3@Z 004763a0 f i rendermodel.obj
 0001:00075420       ??$modelcommand@$$A6AXPADPAH@Z@?$modelcommands@Umd5@@Uskelmesh@skelmodel@@@@QAEXP6AXPADPAH@ZPBD3@Z 00476420 f i rendermodel.obj
 0001:000754b0       ??$modelcommand@$$A6AXPADPAH1PAM@Z@?$modelcommands@Umd5@@Uskelmesh@skelmodel@@@@QAEXP6AXPADPAH1PAM@ZPBD4@Z 004764b0 f i rendermodel.obj
 0001:00075530       ??$modelcommand@$$A6AXPADPAM1@Z@?$modelcommands@Umd5@@Uskelmesh@skelmodel@@@@QAEXP6AXPADPAM1@ZPBD3@Z 00476530 f i rendermodel.obj
 0001:000755c0       ??$modelcommand@$$A6AXPADPAM@Z@?$modelcommands@Umd5@@Uskelmesh@skelmodel@@@@QAEXP6AXPADPAM@ZPBD3@Z 004765c0 f i rendermodel.obj
 0001:00075650       ??$modelcommand@$$A6AXPAD0@Z@?$modelcommands@Umd5@@Uskelmesh@skelmodel@@@@QAEXP6AXPAD0@ZPBD2@Z 00476650 f i rendermodel.obj
 0001:000756e0       ??$modelcommand@$$A6AXPAD00@Z@?$modelcommands@Umd5@@Uskelmesh@skelmodel@@@@QAEXP6AXPAD00@ZPBD2@Z 004766e0 f i rendermodel.obj
 0001:00075760       ??$modelcommand@$$A6AXPAH0PADPAM22@Z@?$modelcommands@Umd5@@Uskelmesh@skelmodel@@@@QAEXP6AXPAH0PADPAM22@ZPBD4@Z 00476760 f i rendermodel.obj
 0001:000757e0       ??$modelcommand@$$A6AXPAD@Z@?$modelcommands@Uobj@@Uvertmesh@vertmodel@@@@QAEXP6AXPAD@ZPBD2@Z 004767e0 f i rendermodel.obj
 0001:00075860       ??$modelcommand@$$A6AXPAD00PAM1@Z@?$modelcommands@Uobj@@Uvertmesh@vertmodel@@@@QAEXP6AXPAD00PAM1@ZPBD3@Z 00476860 f i rendermodel.obj
 0001:000758e0       ??$modelcommand@$$A6AXPADPAH@Z@?$modelcommands@Uobj@@Uvertmesh@vertmodel@@@@QAEXP6AXPADPAH@ZPBD3@Z 004768e0 f i rendermodel.obj
 0001:00075970       ??$modelcommand@$$A6AXPADPAH1PAM@Z@?$modelcommands@Uobj@@Uvertmesh@vertmodel@@@@QAEXP6AXPADPAH1PAM@ZPBD4@Z 00476970 f i rendermodel.obj
 0001:000759f0       ??$modelcommand@$$A6AXPADPAM1@Z@?$modelcommands@Uobj@@Uvertmesh@vertmodel@@@@QAEXP6AXPADPAM1@ZPBD3@Z 004769f0 f i rendermodel.obj
 0001:00075a80       ??$modelcommand@$$A6AXPAD0@Z@?$modelcommands@Uobj@@Uvertmesh@vertmodel@@@@QAEXP6AXPAD0@ZPBD2@Z 00476a80 f i rendermodel.obj
 0001:00075b10       ??$modelcommand@$$A6AXPAD00@Z@?$modelcommands@Uobj@@Uvertmesh@vertmodel@@@@QAEXP6AXPAD00@ZPBD2@Z 00476b10 f i rendermodel.obj
 0001:00075b90       ??$modelcommand@$$A6AXPAH0PADPAM22@Z@?$modelcommands@Uobj@@Uvertmesh@vertmodel@@@@QAEXP6AXPAH0PADPAM22@ZPBD4@Z 00476b90 f i rendermodel.obj
 0001:00075c10       ??$modelcommand@$$A6AXPAD00PAM1@Z@?$modelcommands@Usmd@@Uskelmesh@skelmodel@@@@QAEXP6AXPAD00PAM1@ZPBD3@Z 00476c10 f i rendermodel.obj
 0001:00075c90       ??$modelcommand@$$A6AXPADPAH@Z@?$modelcommands@Usmd@@Uskelmesh@skelmodel@@@@QAEXP6AXPADPAH@ZPBD3@Z 00476c90 f i rendermodel.obj
 0001:00075d20       ??$modelcommand@$$A6AXPADPAH1PAM@Z@?$modelcommands@Usmd@@Uskelmesh@skelmodel@@@@QAEXP6AXPADPAH1PAM@ZPBD4@Z 00476d20 f i rendermodel.obj
 0001:00075da0       ??$modelcommand@$$A6AXPADPAM1@Z@?$modelcommands@Usmd@@Uskelmesh@skelmodel@@@@QAEXP6AXPADPAM1@ZPBD3@Z 00476da0 f i rendermodel.obj
 0001:00075e30       ??$modelcommand@$$A6AXPADPAM@Z@?$modelcommands@Usmd@@Uskelmesh@skelmodel@@@@QAEXP6AXPADPAM@ZPBD3@Z 00476e30 f i rendermodel.obj
 0001:00075ec0       ??$modelcommand@$$A6AXPAD0@Z@?$modelcommands@Usmd@@Uskelmesh@skelmodel@@@@QAEXP6AXPAD0@ZPBD2@Z 00476ec0 f i rendermodel.obj
 0001:00075f50       ??$modelcommand@$$A6AXPAD00@Z@?$modelcommands@Usmd@@Uskelmesh@skelmodel@@@@QAEXP6AXPAD00@ZPBD2@Z 00476f50 f i rendermodel.obj
 0001:00075fd0       ??$modelcommand@$$A6AXPAH0PADPAM22@Z@?$modelcommands@Usmd@@Uskelmesh@skelmodel@@@@QAEXP6AXPAH0PADPAM22@ZPBD4@Z 00476fd0 f i rendermodel.obj
 0001:00076050       ??$modelcommand@$$A6AXPAD00PAM1@Z@?$modelcommands@Uiqm@@Uskelmesh@skelmodel@@@@QAEXP6AXPAD00PAM1@ZPBD3@Z 00477050 f i rendermodel.obj
 0001:000760d0       ??$modelcommand@$$A6AXPADPAH@Z@?$modelcommands@Uiqm@@Uskelmesh@skelmodel@@@@QAEXP6AXPADPAH@ZPBD3@Z 004770d0 f i rendermodel.obj
 0001:00076160       ??$modelcommand@$$A6AXPADPAH1PAM@Z@?$modelcommands@Uiqm@@Uskelmesh@skelmodel@@@@QAEXP6AXPADPAH1PAM@ZPBD4@Z 00477160 f i rendermodel.obj
 0001:000761e0       ??$modelcommand@$$A6AXPADPAM1@Z@?$modelcommands@Uiqm@@Uskelmesh@skelmodel@@@@QAEXP6AXPADPAM1@ZPBD3@Z 004771e0 f i rendermodel.obj
 0001:00076270       ??$modelcommand@$$A6AXPADPAM@Z@?$modelcommands@Uiqm@@Uskelmesh@skelmodel@@@@QAEXP6AXPADPAM@ZPBD3@Z 00477270 f i rendermodel.obj
 0001:00076300       ??$modelcommand@$$A6AXPAD0@Z@?$modelcommands@Uiqm@@Uskelmesh@skelmodel@@@@QAEXP6AXPAD0@ZPBD2@Z 00477300 f i rendermodel.obj
 0001:00076390       ??$modelcommand@$$A6AXPAD00@Z@?$modelcommands@Uiqm@@Uskelmesh@skelmodel@@@@QAEXP6AXPAD00@ZPBD2@Z 00477390 f i rendermodel.obj
 0001:00076410       ??$modelcommand@$$A6AXPAH0PADPAM22@Z@?$modelcommands@Uiqm@@Uskelmesh@skelmodel@@@@QAEXP6AXPAH0PADPAM22@ZPBD4@Z 00477410 f i rendermodel.obj
 0001:00076490       ?insert@?$hashset@H@@QAEPAUchain@1@I@Z 00477490 f i rendermodel.obj
 0001:000765e0       ?feetpos@physent@@QBE?AUvec@@M@Z 004775e0 f i rendermodel.obj
 0001:00076620       ??_Gmodel@@UAEPAXI@Z       00477620 f i rendermodel.obj
 0001:00076620       ??_Emodel@@UAEPAXI@Z       00477620 f i * CIL library *:* CIL module *
 0001:00076690       ??0matrix3x3@@QAE@ABUquat@@@Z 00477690 f i rendermodel.obj
 0001:000767f0       ??0dualquat@@QAE@ABUquat@@ABUvec@@@Z 004777f0 f i rendermodel.obj
 0001:00076900       ?mulorient@dualquat@@QAEXABUquat@@@Z 00477900 f i rendermodel.obj
 0001:00076b00       ?transposemul@matrix3x4@@QAEXABUmatrix3x3@@ABUvec@@ABU1@@Z 00477b00 f i rendermodel.obj
 0001:00076e40       ?transposemul@matrix3x4@@QAEXABU1@0@Z 00477e40 f i rendermodel.obj
 0001:00077210       ?mulorient@dualquat@@QAEXABUquat@@ABU1@@Z 00478210 f i rendermodel.obj
 0001:000777f0       ??0matrix3x4@@QAE@ABUdualquat@@@Z 004787f0 f i rendermodel.obj
 0001:00077ad0       ?mul@dualquat@@QAEXABU1@0@Z 00478ad0 f i rendermodel.obj
 0001:00077de0       ??0glmatrixf@@QAE@ABUmatrix3x4@@@Z 00478de0 f i rendermodel.obj
 0001:00077e50       ?mul@matrix3x4@@QAEXABU1@0@Z 00478e50 f i rendermodel.obj
 0001:00078190       ??1model@@UAE@XZ           00479190 f i rendermodel.obj
 0001:000781f0       ?preloadBIH@model@@UAEXXZ  004791f0 f i rendermodel.obj
 0001:00078200       ??0model@@QAE@XZ           00479200 f i rendermodel.obj
 0001:000782e0       ?rotate_around_z@glmatrixf@@QAEXM@Z 004792e0 f i rendermodel.obj
 0001:000783d0       ??9animinfo@@QBE_NABU0@@Z  004793d0 f i rendermodel.obj
 0001:00078420       ?setvariant_@Shader@@QAEXHHPAU1@@Z 00479420 f i rendermodel.obj
 0001:000784d0       ?calcangleaxis@matrix3x3@@QAE_NAAMAAUvec@@M@Z 004794d0 f i rendermodel.obj
 0001:00078770       ?mul@matrix3x3@@QAEXABU1@0@Z 00479770 f i rendermodel.obj
 0001:00078a20       ?transposemul@matrix3x3@@QAEXABU1@0@Z 00479a20 f i rendermodel.obj
 0001:00078cd0       ?mul@matrix3x4@@QAEXABUmatrix3x3@@ABUvec@@ABU1@@Z 00479cd0 f i rendermodel.obj
 0001:00079010       ??0matrix3x4@@QAE@ABUmatrix3x3@@ABUvec@@@Z 0047a010 f i rendermodel.obj
 0001:00079070       ?addblurtiles@rendertarget@@QAE_NMMMMM@Z 0047a070 f i renderparticles.obj
 0001:00079250       ?debugscissor@rendertarget@@QAEXHH_N@Z 0047a250 f i renderparticles.obj
 0001:00079380       ?debugblurtiles@rendertarget@@QAEXHH_N@Z 0047a380 f i renderparticles.obj
 0001:00079680       ?finalize@particleemitter@@QAEXXZ 0047a680 f i renderparticles.obj
 0001:000798c0       ??1partrenderer@@UAE@XZ    0047a8c0 f i renderparticles.obj
 0001:000798d0       ?calc@partrenderer@@QAEXPAUparticle@@AAH1AAUvec@@2_N@Z 0047a8d0 f i renderparticles.obj
 0001:00079bb0       ??_Epartrenderer@@UAEPAXI@Z 0047abb0 f i * CIL library *:* CIL module *
 0001:00079bb0       ??_Gpartrenderer@@UAEPAXI@Z 0047abb0 f i renderparticles.obj
 0001:00079bd0       ??1listrenderer@@UAE@XZ    0047abd0 f i renderparticles.obj
 0001:00079c10       ?reset@listrenderer@@UAEXXZ 0047ac10 f i renderparticles.obj
 0001:00079c60       ?resettracked@listrenderer@@UAEXPAUphysent@@@Z 0047ac60 f i renderparticles.obj
 0001:00079cb0       ?addpart@listrenderer@@UAEPAUparticle@@ABUvec@@0HHMH@Z 0047acb0 f i renderparticles.obj
 0001:00079eb0       ?count@listrenderer@@UAEHXZ 0047aeb0 f i renderparticles.obj
 0001:00079ed0       ?haswork@listrenderer@@UAE_NXZ 0047aed0 f i renderparticles.obj
 0001:00079ee0       ?render@listrenderer@@UAEXXZ 0047aee0 f i renderparticles.obj
 0001:00079fb0       ??_Elistrenderer@@UAEPAXI@Z 0047afb0 f i * CIL library *:* CIL module *
 0001:00079fb0       ??_Glistrenderer@@UAEPAXI@Z 0047afb0 f i renderparticles.obj
 0001:0007a010       ?startrender@meterrenderer@@UAEXXZ 0047b010 f i renderparticles.obj
 0001:0007a060       ?endrender@meterrenderer@@UAEXXZ 0047b060 f i renderparticles.obj
 0001:0007a0b0       ?renderpart@meterrenderer@@UAEXPAUlistparticle@@ABUvec@@1HHPAE@Z 0047b0b0 f i renderparticles.obj
 0001:0007a5b0       ??_Gmeterrenderer@@UAEPAXI@Z 0047b5b0 f i renderparticles.obj
 0001:0007a5b0       ??_Gtextrenderer@@UAEPAXI@Z 0047b5b0 f i renderparticles.obj
 0001:0007a5b0       ??_Emeterrenderer@@UAEPAXI@Z 0047b5b0 f i * CIL library *:* CIL module *
 0001:0007a5b0       ??_Etextrenderer@@UAEPAXI@Z 0047b5b0 f i * CIL library *:* CIL module *
 0001:0007a5b0       ??_Glightningrenderer@@UAEPAXI@Z 0047b5b0 f i renderparticles.obj
 0001:0007a5b0       ??_Efireballrenderer@@UAEPAXI@Z 0047b5b0 f i * CIL library *:* CIL module *
 0001:0007a5b0       ??_Gfireballrenderer@@UAEPAXI@Z 0047b5b0 f i renderparticles.obj
 0001:0007a5b0       ??_Elightningrenderer@@UAEPAXI@Z 0047b5b0 f i * CIL library *:* CIL module *
 0001:0007a610       ??0textrenderer@@QAE@H@Z   0047b610 f i renderparticles.obj
 0001:0007a6c0       ?killpart@textrenderer@@UAEXPAUlistparticle@@@Z 0047b6c0 f i renderparticles.obj
 0001:0007a6e0       ?renderpart@textrenderer@@UAEXPAUlistparticle@@ABUvec@@1HHPAE@Z 0047b6e0 f i renderparticles.obj
 0001:0007a8f0       ??$genpos@$01@@YAXABUvec@@0MHHPAUpartvert@@@Z 0047b8f0 f i renderparticles.obj
 0001:0007ab40       ??$genrotpos@$0A@@@YAXABUvec@@0MHHPAUpartvert@@H@Z 0047bb40 f i renderparticles.obj
 0001:0007ae50       ?colorformats@depthfxtexture@@UBEPBIXZ 0047be50 f i renderparticles.obj
 0001:0007aec0       ?addscissorbox@depthfxtexture@@QAE_NABUvec@@0@Z 0047bec0 f i renderparticles.obj
 0001:0007b060       ?screenview@depthfxtexture@@UBE_NXZ 0047c060 f i renderparticles.obj
 0001:0007b070       ?texrect@depthfxtexture@@UBE_NXZ 0047c070 f i renderparticles.obj
 0001:0007b090       ?filter@depthfxtexture@@UBE_NXZ 0047c090 f i renderparticles.obj
 0001:0007b0a0       ?highprecision@depthfxtexture@@QBE_NXZ 0047c0a0 f i renderparticles.obj
 0001:0007b0c0       ?shouldrender@depthfxtexture@@UAE_NXZ 0047c0c0 f i renderparticles.obj
 0001:0007b110       ?dorender@depthfxtexture@@UAE_NXZ 0047c110 f i renderparticles.obj
 0001:0007b1d0       ?dodebug@depthfxtexture@@UAEXHH@Z 0047c1d0 f i renderparticles.obj
 0001:0007b260       ?startrender@fireballrenderer@@UAEXXZ 0047c260 f i renderparticles.obj
 0001:0007b270       ?endrender@fireballrenderer@@UAEXXZ 0047c270 f i renderparticles.obj
 0001:0007b2b0       ?cleanup@fireballrenderer@@UAEXXZ 0047c2b0 f i renderparticles.obj
 0001:0007b2c0       ?finddepthfxranges@fireballrenderer@@QAEHPAPAXPAMHHAAUvec@@2@Z 0047c2c0 f i renderparticles.obj
 0001:0007b880       ?seedemitter@fireballrenderer@@UAEXAAUparticleemitter@@ABUvec@@1HMH@Z 0047c880 f i renderparticles.obj
 0001:0007b970       ?renderpart@fireballrenderer@@UAEXPAUlistparticle@@ABUvec@@1HHPAE@Z 0047c970 f i renderparticles.obj
 0001:0007c260       ??0flarerenderer@@QAE@PBDH@Z 0047d260 f i renderparticles.obj
 0001:0007c340       ?reset@flarerenderer@@UAEXXZ 0047d340 f i renderparticles.obj
 0001:0007c350       ?newflare@flarerenderer@@QAEXAAUvec@@ABU2@EEEMM_N2@Z 0047d350 f i renderparticles.obj
 0001:0007c4d0       ?addflare@flarerenderer@@QAEXAAUvec@@EEE_N1@Z 0047d4d0 f i renderparticles.obj
 0001:0007c730       ?makelightflares@flarerenderer@@QAEXXZ 0047d730 f i renderparticles.obj
 0001:0007c9b0       ?haswork@flarerenderer@@UAE_NXZ 0047d9b0 f i renderparticles.obj
 0001:0007c9e0       ?render@flarerenderer@@UAEXXZ 0047d9e0 f i renderparticles.obj
 0001:0007cee0       ?addpart@flarerenderer@@UAEPAUparticle@@ABUvec@@0HHMH@Z 0047dee0 f i renderparticles.obj
 0001:0007cef0       ??_E?$varenderer@$01@@UAEPAXI@Z 0047def0 f i * CIL library *:* CIL module *
 0001:0007cef0       ??_E?$varenderer@$00@@UAEPAXI@Z 0047def0 f i * CIL library *:* CIL module *
 0001:0007cef0       ??_G?$varenderer@$01@@UAEPAXI@Z 0047def0 f i renderparticles.obj
 0001:0007cef0       ??_Gflarerenderer@@UAEPAXI@Z 0047def0 f i renderparticles.obj
 0001:0007cef0       ??_G?$varenderer@$00@@UAEPAXI@Z 0047def0 f i renderparticles.obj
 0001:0007cef0       ??_E?$varenderer@$0A@@@UAEPAXI@Z 0047def0 f i * CIL library *:* CIL module *
 0001:0007cef0       ??_G?$varenderer@$0A@@@UAEPAXI@Z 0047def0 f i renderparticles.obj
 0001:0007cef0       ??_Eflarerenderer@@UAEPAXI@Z 0047def0 f i * CIL library *:* CIL module *
 0001:0007cf40       ??0lightningrenderer@@QAE@XZ 0047df40 f i renderparticles.obj
 0001:0007cff0       ?startrender@lightningrenderer@@UAEXXZ 0047dff0 f i renderparticles.obj
 0001:0007d000       ?endrender@lightningrenderer@@UAEXXZ 0047e000 f i renderparticles.obj
 0001:0007d010       ?update@lightningrenderer@@UAEXXZ 0047e010 f i renderparticles.obj
 0001:0007d060       ?seedemitter@lightningrenderer@@UAEXAAUparticleemitter@@ABUvec@@1HMH@Z 0047e060 f i renderparticles.obj
 0001:0007d1b0       ?renderpart@lightningrenderer@@UAEXPAUlistparticle@@ABUvec@@1HHPAE@Z 0047e1b0 f i renderparticles.obj
 0001:0007d230       ?add@?$vector@Uparticleemitter@@@@QAEAAUparticleemitter@@ABU2@@Z 0047e230 f i renderparticles.obj
 0001:0007d2c0       ?init@?$varenderer@$01@@UAEXH@Z 0047e2c0 f i renderparticles.obj
 0001:0007d2c0       ?init@?$varenderer@$00@@UAEXH@Z 0047e2c0 f i renderparticles.obj
 0001:0007d2c0       ?init@?$varenderer@$0A@@@UAEXH@Z 0047e2c0 f i renderparticles.obj
 0001:0007d3a0       ?reset@?$varenderer@$01@@UAEXXZ 0047e3a0 f i renderparticles.obj
 0001:0007d3a0       ?reset@?$varenderer@$0A@@@UAEXXZ 0047e3a0 f i renderparticles.obj
 0001:0007d3a0       ?reset@?$varenderer@$00@@UAEXXZ 0047e3a0 f i renderparticles.obj
 0001:0007d3b0       ?resettracked@?$varenderer@$00@@UAEXPAUphysent@@@Z 0047e3b0 f i renderparticles.obj
 0001:0007d3b0       ?resettracked@?$varenderer@$01@@UAEXPAUphysent@@@Z 0047e3b0 f i renderparticles.obj
 0001:0007d3b0       ?resettracked@?$varenderer@$0A@@@UAEXPAUphysent@@@Z 0047e3b0 f i renderparticles.obj
 0001:0007d400       ?count@?$varenderer@$0A@@@UAEHXZ 0047e400 f i renderparticles.obj
 0001:0007d400       ?count@?$varenderer@$00@@UAEHXZ 0047e400 f i renderparticles.obj
 0001:0007d400       ?count@?$varenderer@$01@@UAEHXZ 0047e400 f i renderparticles.obj
 0001:0007d410       ?haswork@?$varenderer@$01@@UAE_NXZ 0047e410 f i renderparticles.obj
 0001:0007d410       ?haswork@?$varenderer@$0A@@@UAE_NXZ 0047e410 f i renderparticles.obj
 0001:0007d410       ?haswork@?$varenderer@$00@@UAE_NXZ 0047e410 f i renderparticles.obj
 0001:0007d420       ?addpart@?$varenderer@$0A@@@UAEPAUparticle@@ABUvec@@0HHMH@Z 0047e420 f i renderparticles.obj
 0001:0007d420       ?addpart@?$varenderer@$01@@UAEPAUparticle@@ABUvec@@0HHMH@Z 0047e420 f i renderparticles.obj
 0001:0007d420       ?addpart@?$varenderer@$00@@UAEPAUparticle@@ABUvec@@0HHMH@Z 0047e420 f i renderparticles.obj
 0001:0007d510       ?seedemitter@?$varenderer@$0A@@@UAEXAAUparticleemitter@@ABUvec@@1HMH@Z 0047e510 f i renderparticles.obj
 0001:0007d790       ?update@?$varenderer@$0A@@@UAEXXZ 0047e790 f i renderparticles.obj
 0001:0007daf0       ?render@?$varenderer@$00@@UAEXXZ 0047eaf0 f i renderparticles.obj
 0001:0007daf0       ?render@?$varenderer@$01@@UAEXXZ 0047eaf0 f i renderparticles.obj
 0001:0007daf0       ?render@?$varenderer@$0A@@@UAEXXZ 0047eaf0 f i renderparticles.obj
 0001:0007db70       ?seedemitter@?$varenderer@$01@@UAEXAAUparticleemitter@@ABUvec@@1HMH@Z 0047eb70 f i renderparticles.obj
 0001:0007df50       ?update@?$varenderer@$01@@UAEXXZ 0047ef50 f i renderparticles.obj
 0001:0007e290       ?seedemitter@?$varenderer@$00@@UAEXAAUparticleemitter@@ABUvec@@1HMH@Z 0047f290 f i renderparticles.obj
 0001:0007e5c0       ?update@?$varenderer@$00@@UAEXXZ 0047f5c0 f i renderparticles.obj
 0001:0007ece0       ?growbuf@?$vector@Uparticleemitter@@@@QAEXH@Z 0047fce0 f i renderparticles.obj
 0001:0007ed70       ?genverts@?$varenderer@$0A@@@QAEXPAUparticle@@PAUpartvert@@_N@Z 0047fd70 f i renderparticles.obj
 0001:0007eff0       ?genverts@?$varenderer@$01@@QAEXPAUparticle@@PAUpartvert@@_N@Z 0047fff0 f i renderparticles.obj
 0001:0007f250       ?genverts@?$varenderer@$00@@QAEXPAUparticle@@PAUpartvert@@_N@Z 00480250 f i renderparticles.obj
 0001:0007f7e0       ??4?$vector@PAUTexture@@@@QAEAAU0@ABU0@@Z 004807e0 f i rendertext.obj
 0001:0007f840       ??4?$vector@Ucharinfo@font@@@@QAEAAU0@ABU0@@Z 00480840 f i rendertext.obj
 0001:0007f8c0       ??0?$hashset@Ufont@@@@QAE@H@Z 004808c0 f i rendertext.obj
 0001:0007f950       ?deletechunks@?$hashset@Ufont@@@@QAEXXZ 00480950 f i rendertext.obj
 0001:0007f9c0       ?growbuf@?$vector@PAUfont@@@@QAEXH@Z 004809c0 f i rendertext.obj
 0001:0007fa50       ??1chain@?$hashset@Ufont@@@@QAE@XZ 00480a50 f i rendertext.obj
 0001:0007fa90       ??$?APBD@?$hashset@Ufont@@@@QAEAAUfont@@ABQBD@Z 00480a90 f i rendertext.obj
 0001:0007fa90       ??$?APAD@?$hashset@Ufont@@@@QAEAAUfont@@ABQAD@Z 00480a90 f i rendertext.obj
 0001:0007fb20       ??$access@PBD@?$hashset@Ufont@@@@QAEPAUfont@@ABQBD@Z 00480b20 f i rendertext.obj
 0001:0007fbb0       ?insert@?$hashset@Ufont@@@@QAEPAUchain@1@I@Z 00480bb0 f i rendertext.obj
 0001:0007fd70       ??0chain@?$hashset@Ufont@@@@QAE@XZ 00480d70 f i rendertext.obj
 0001:0007fde0       ??1font@@QAE@XZ            00480de0 f i rendertext.obj
 0001:0007fe70       ??0renderstate@@QAE@XZ     00480e70 f i renderva.obj
 0001:0007ffd0       ??0geombatch@@QAE@ABUelementset@@PAGPAUvtxarray@@@Z 00480fd0 f i renderva.obj
 0001:00080060       ?compare@geombatch@@QBEHABU1@@Z 00481060 f i renderva.obj
 0001:00080120       ?growbuf@?$vector@Ugeombatch@@@@QAEXH@Z 00481120 f i renderva.obj
 0001:000801b0       ?setvariant@Shader@@QAEXHHAAUSlot@@AAUVSlot@@@Z 004811b0 f i renderva.obj
 0001:000801f0       ?access@?$hashtable@PBDUShader@@@@QAEPAUShader@@ABQBD@Z 004811f0 f i shader.obj
 0001:00080280       ??A?$hashtable@PBDUShader@@@@QAEAAUShader@@ABQBD@Z 00481280 f i shader.obj
 0001:00080330       ??1?$hashset@U?$hashtableentry@PBDUShader@@@@@@QAE@XZ 00481330 f i shader.obj
 0001:00080360       ?insert@?$vector@D@@QAEPADHPBDH@Z 00481360 f i shader.obj
 0001:000803f0       ??0?$hashset@PBD@@QAE@H@Z  004813f0 f i shader.obj
 0001:00080480       ??1?$hashset@PBD@@QAE@XZ   00481480 f i shader.obj
 0001:000804d0       ?add@?$vector@Upostfxpass@@@@QAEAAUpostfxpass@@XZ 004814d0 f i shader.obj
 0001:00080570       ?growbuf@?$vector@ULocalShaderParamState@@@@QAEXH@Z 00481570 f i shader.obj
 0001:00080570       ?growbuf@?$vector@Utoken@collectclientmode@game@@@@QAEXH@Z 00481570 f i client1.obj
 0001:000805f0       ?growbuf@?$vector@UUniformLoc@@@@QAEXH@Z 004815f0 f i shader.obj
 0001:000805f0       ?growbuf@?$vector@Uident@@@@QAEXH@Z 004815f0 f i command.obj
 0001:00080670       ??0?$hashset@U?$hashtableentry@PBDUShader@@@@@@QAE@H@Z 00481670 f i shader.obj
 0001:00080700       ?deletechunks@?$hashset@U?$hashtableentry@PBDUShader@@@@@@QAEXXZ 00481700 f i shader.obj
 0001:00080770       ?growbuf@?$vector@Upostfxtex@@@@QAEXH@Z 00481770 f i shader.obj
 0001:00080800       ?growbuf@?$vector@Upostfxpass@@@@QAEXH@Z 00481800 f i shader.obj
 0001:00080890       ??1chain@?$hashset@U?$hashtableentry@PBDUShader@@@@@@QAE@XZ 00481890 f i shader.obj
 0001:000808e0       ??1?$hashtableentry@PBDUShader@@@@QAE@XZ 004818e0 f i shader.obj
 0001:00080920       ?insert@?$hashset@U?$hashtableentry@PBDUShader@@@@@@QAEPAUchain@1@I@Z 00481920 f i shader.obj
 0001:00080b00       ??0chain@?$hashset@U?$hashtableentry@PBDUShader@@@@@@QAE@XZ 00481b00 f i shader.obj
 0001:00080b50       ??$remove@PAD@?$hashset@U?$hashtableentry@PBDUShader@@@@@@QAE_NABQAD@Z 00481b50 f i shader.obj
 0001:00080c70       ??$access@PBD@?$hashset@PBD@@QAEPAPBDABQBD@Z 00481c70 f i shader.obj
 0001:00080d00       ??$?APBD@?$hashset@PBD@@QAEAAPBDABQBD@Z 00481d00 f i shader.obj
 0001:00080d90       ?insert@?$hashset@PBD@@QAEPAUchain@1@I@Z 00481d90 f i shader.obj
 0001:00080ef0       ??0Shader@@QAE@XZ          00481ef0 f i shader.obj
 0001:00081050       ??1Shader@@QAE@XZ          00482050 f i shader.obj
 0001:000811c0       ?checkblurtiles@rendertarget@@QAE_NMMMMM@Z 004821c0 f i shadowmap.obj
 0001:00081340       ?attachment@shadowmaptexture@@UBEIXZ 00482340 f i shadowmap.obj
 0001:00081360       ?colorformats@shadowmaptexture@@UBEPBIXZ 00482360 f i shadowmap.obj
 0001:000813b0       ?shadowcompare@shadowmaptexture@@UBE_NXZ 004823b0 f i shadowmap.obj
 0001:000813c0       ?filter@shadowmaptexture@@UBE_NXZ 004823c0 f i shadowmap.obj
 0001:000813e0       ?swaptexs@shadowmaptexture@@UBE_NXZ 004823e0 f i shadowmap.obj
 0001:000813f0       ?scissorblur@shadowmaptexture@@UAE_NAAH000@Z 004823f0 f i shadowmap.obj
 0001:000815b0       ?scissorrender@shadowmaptexture@@UAE_NAAH000@Z 004825b0 f i shadowmap.obj
 0001:000815f0       ?doclear@shadowmaptexture@@UAEXXZ 004825f0 f i shadowmap.obj
 0001:000816a0       ?dorender@shadowmaptexture@@UAE_NXZ 004826a0 f i shadowmap.obj
 0001:00081fb0       ?dodebug@shadowmaptexture@@UAEXHH@Z 00482fb0 f i shadowmap.obj
 0001:00082010       ?projective@glmatrixf@@QAEXMM@Z 00483010 f i shadowmap.obj
 0001:000820f0       ??1MSlot@@QAE@XZ           004830f0 f i texture.obj
 0001:00082170       ?add@?$vector@PAUSlot@@@@QAEAAPAUSlot@@ABQAU2@@Z 00483170 f i texture.obj
 0001:000821c0       ?deletecontents@?$vector@PAUSlot@@@@QAEXXZ 004831c0 f i texture.obj
 0001:00082270       ?deletecontents@?$vector@PAUVSlot@@@@QAEXXZ 00483270 f i texture.obj
 0001:00082300       ?access@?$hashtable@PADUTexture@@@@QAEPAUTexture@@ABQAD@Z 00483300 f i texture.obj
 0001:00082390       ??A?$hashtable@PADUTexture@@@@QAEAAUTexture@@ABQAD@Z 00483390 f i texture.obj
 0001:00082430       ??1?$hashset@U?$hashtableentry@PADUTexture@@@@@@QAE@XZ 00483430 f i texture.obj
 0001:00082480       ?growbuf@?$vector@PAUSlot@@@@QAEXH@Z 00483480 f i texture.obj
 0001:00082510       ??0?$hashset@U?$hashtableentry@PADUTexture@@@@@@QAE@H@Z 00483510 f i texture.obj
 0001:000825a0       ?growbuf@?$vector@Uenvmap@@@@QAEXH@Z 004835a0 f i texture.obj
 0001:00082640       ?insert@?$hashset@U?$hashtableentry@PADUTexture@@@@@@QAEPAUchain@1@I@Z 00483640 f i texture.obj
 0001:00082800       ??$remove@PAD@?$hashset@U?$hashtableentry@PADUTexture@@@@@@QAE_NABQAD@Z 00483800 f i texture.obj
 0001:00082900       ??_GImageData@@QAEPAXI@Z   00483900 f i texture.obj
 0001:00082950       ?reset@Slot@@QAEXXZ        00483950 f i texture.obj
 0001:000829f0       ??0Slot@@QAE@H@Z           004839f0 f i texture.obj
 0001:00082a90       ??1Slot@@QAE@XZ            00483a90 f i texture.obj
 0001:00082b10       ??0MSlot@@QAE@XZ           00483b10 f i texture.obj
 0001:00082b70       ?wrap@ImageData@@QAEXPAUSDL_Surface@@@Z 00483b70 f i texture.obj
 0001:00082c00       ?replace@ImageData@@QAEXAAU1@@Z 00483c00 f i texture.obj
 0001:00082c80       ??0Reflection@@QAE@XZ      00483c80 f i water.obj
 0001:00082d00       ??1Reflection@@QAE@XZ      00483d00 f i water.obj
 0001:00082d50       ??Rsortfun@@QAE_NABUsortitem@@0@Z 00483d50 f i command.obj
 0001:00082e00       ??0?$hashset@Uident@@@@QAE@H@Z 00483e00 f i command.obj
 0001:00082e90       ??1?$hashset@Uident@@@@QAE@XZ 00483e90 f i command.obj
 0001:00082ee0       ?add@?$vector@Uident@@@@QAEAAUident@@ABU2@@Z 00483ee0 f i command.obj
 0001:00082f40       ?reserve@?$vector@I@@QAE?AU?$databuf@I@@H@Z 00483f40 f i command.obj
 0001:00082f80       ?remove@?$vector@Usleepcmd@@@@QAE?AUsleepcmd@@H@Z 00483f80 f i command.obj
 0001:00082ff0       ?growbuf@?$vector@Usleepcmd@@@@QAEXH@Z 00483ff0 f i command.obj
 0001:00083070       ??$access@PBDUident@@@?$hashset@Uident@@@@QAEAAUident@@ABQBDABU1@@Z 00484070 f i command.obj
 0001:00083120       ??$access@PBD@?$hashset@Uident@@@@QAEPAUident@@ABQBD@Z 00484120 f i command.obj
 0001:00083120       ??$access@PAD@?$hashset@Uident@@@@QAEPAUident@@ABQAD@Z 00484120 f i command.obj
 0001:000831b0       ?insert@?$hashset@Uident@@@@QAEPAUchain@1@I@Z 004841b0 f i command.obj
 0001:00083360       ?getval@ident@@QBEXAAUtagval@@@Z 00484360 f i command.obj
 0001:000833e0       ?getfloat@ident@@QBEMXZ    004843e0 f i command.obj
 0001:00083430       ?getint@ident@@QBEHXZ      00484430 f i command.obj
 0001:00083480       ?getstr@tagval@@QBEPBDXZ   00484480 f i command.obj
 0001:000834d0       ?getstr@ident@@QBEPBDXZ    004844d0 f i command.obj
 0001:00083520       ??0keym@@QAE@XZ            00484520 f i console.obj
 0001:00083570       ??1keym@@QAE@XZ            00484570 f i console.obj
 0001:000835c0       ?restore@hline@@QAEXXZ     004845c0 f i console.obj
 0001:000836f0       ?shouldsave@hline@@QAE_NXZ 004846f0 f i console.obj
 0001:000837e0       ?save@hline@@QAEXXZ        004847e0 f i console.obj
 0001:000838b0       ?run@hline@@QAEXXZ         004848b0 f i console.obj
 0001:00083900       ??_Ghline@@QAEPAXI@Z       00484900 f i console.obj
 0001:00083900       ??_Gauthkey@game@@QAEPAXI@Z 00484900 f i client1.obj
 0001:00083960       ??0filesval@@QAE@HPBD0@Z   00484960 f i console.obj
 0001:00083a20       ?comparefiles@filesval@@SA_NPBD0@Z 00484a20 f i console.obj
 0001:00083a60       ?update@filesval@@QAEXXZ   00484a60 f i console.obj
 0001:00083b50       ??1?$hashset@U?$hashtableentry@HUkeym@@@@@@QAE@XZ 00484b50 f i console.obj
 0001:00083b80       ?clear@?$hashset@U?$hashtableentry@HUkeym@@@@@@QAEXXZ 00484b80 f i console.obj
 0001:00083c30       ?add@?$vector@PAUhline@@@@QAEAAPAUhline@@ABQAU2@@Z 00484c30 f i console.obj
 0001:00083c80       ?remove@?$vector@PAUhline@@@@QAEXHH@Z 00484c80 f i console.obj
 0001:00083cc0       ?access@?$hashtable@Ufileskey@@PAUfilesval@@@@QAEPAPAUfilesval@@ABUfileskey@@@Z 00484cc0 f i console.obj
 0001:00083d30       ??A?$hashtable@Ufileskey@@PAUfilesval@@@@QAEAAPAUfilesval@@ABUfileskey@@@Z 00484d30 f i console.obj
 0001:00083db0       ??1?$hashset@U?$hashtableentry@Ufileskey@@PAUfilesval@@@@@@QAE@XZ 00484db0 f i console.obj
 0001:00083e00       ?access@?$hashtable@PADPAUfilesval@@@@QAEPAPAUfilesval@@ABQAD@Z 00484e00 f i console.obj
 0001:00083e90       ??A?$hashtable@PADPAUfilesval@@@@QAEAAPAUfilesval@@ABQAD@Z 00484e90 f i console.obj
 0001:00083f30       ??1?$hashset@U?$hashtableentry@PADPAUfilesval@@@@@@QAE@XZ 00484f30 f i console.obj
 0001:00083f80       ??0?$hashset@U?$hashtableentry@HUkeym@@@@@@QAE@H@Z 00484f80 f i console.obj
 0001:00084010       ?deletechunks@?$hashset@U?$hashtableentry@HUkeym@@@@@@QAEXXZ 00485010 f i console.obj
 0001:00084080       ?growbuf@?$vector@PAUhline@@@@QAEXH@Z 00485080 f i console.obj
 0001:00084110       ?growbuf@?$vector@Ureleaseaction@@@@QAEXH@Z 00485110 f i console.obj
 0001:000841a0       ??0?$hashset@U?$hashtableentry@Ufileskey@@PAUfilesval@@@@@@QAE@H@Z 004851a0 f i console.obj
 0001:00084230       ??0?$hashset@U?$hashtableentry@PADPAUfilesval@@@@@@QAE@H@Z 00485230 f i console.obj
 0001:000842c0       ??1chain@?$hashset@U?$hashtableentry@HUkeym@@@@@@QAE@XZ 004852c0 f i console.obj
 0001:00084310       ??1?$hashtableentry@HUkeym@@@@QAE@XZ 00485310 f i console.obj
 0001:00084350       ?insert@?$hashset@U?$hashtableentry@HUkeym@@@@@@QAEPAUchain@1@I@Z 00485350 f i console.obj
 0001:00084500       ?insert@?$hashset@U?$hashtableentry@Ufileskey@@PAUfilesval@@@@@@QAEPAUchain@1@I@Z 00485500 f i console.obj
 0001:000846a0       ??0chain@?$hashset@U?$hashtableentry@HUkeym@@@@@@QAE@XZ 004856a0 f i console.obj
 0001:000846f0       ?add@?$vector@TSDL_Event@@@@QAEAATSDL_Event@@ABT2@@Z 004856f0 f i main.obj
 0001:00084750       ?remove@?$vector@TSDL_Event@@@@QAEXHH@Z 00485750 f i main.obj
 0001:000847b0       ?remove@?$vector@TSDL_Event@@@@QAE?ATSDL_Event@@H@Z 004857b0 f i main.obj
 0001:00084820       ?growbuf@?$vector@TSDL_Event@@@@QAEXH@Z 00485820 f i main.obj
 0001:000848b0       ?gui@menu@@UAEXAAUg3d_gui@@_N@Z 004858b0 f i menus.obj
 0001:00084930       ?clear@menu@@UAEXXZ        00485930 f i menus.obj
 0001:00084950       ??1menu@@UAE@XZ            00485950 f i menus.obj
 0001:00084990       ?schedule@delayedupdate@@QAEXPBD@Z 00485990 f i menus.obj
 0001:000849e0       ?getstring@delayedupdate@@QBEPBDXZ 004859e0 f i menus.obj
 0001:00084a60       ?run@delayedupdate@@QAEXXZ 00485a60 f i menus.obj
 0001:00084b80       ?gui@applymenu@@UAEXAAUg3d_gui@@_N@Z 00485b80 f i menus.obj
 0001:00084df0       ?clear@applymenu@@UAEXXZ   00485df0 f i menus.obj
 0001:00084e20       ??0applymenu@@QAE@XZ       00485e20 f i menus.obj
 0001:00084eb0       ??_Gapplymenu@@UAEPAXI@Z   00485eb0 f i menus.obj
 0001:00084eb0       ??_Eapplymenu@@UAEPAXI@Z   00485eb0 f i * CIL library *:* CIL module *
 0001:00084f00       ?access@?$hashtable@PBDUmenu@@@@QAEPAUmenu@@ABQBD@Z 00485f00 f i menus.obj
 0001:00084f90       ??A?$hashtable@PBDUmenu@@@@QAEAAUmenu@@ABQBD@Z 00485f90 f i menus.obj
 0001:00085030       ??1?$hashset@U?$hashtableentry@PBDUmenu@@@@@@QAE@XZ 00486030 f i menus.obj
 0001:00085060       ?insert@?$vector@PAUmenu@@@@QAEAAPAUmenu@@HABQAU2@@Z 00486060 f i menus.obj
 0001:000850e0       ?add@?$vector@Udelayedupdate@@@@QAEAAUdelayedupdate@@XZ 004860e0 f i menus.obj
 0001:00085170       ?shrink@?$vector@Udelayedupdate@@@@QAEXH@Z 00486170 f i menus.obj
 0001:000851d0       ?remove@?$vector@Uchange@@@@QAE?AUchange@@H@Z 004861d0 f i menus.obj
 0001:00085230       ??0?$hashset@U?$hashtableentry@PBDUmenu@@@@@@QAE@H@Z 00486230 f i menus.obj
 0001:000852c0       ?deletechunks@?$hashset@U?$hashtableentry@PBDUmenu@@@@@@QAEXXZ 004862c0 f i menus.obj
 0001:00085330       ?growbuf@?$vector@PAUmenu@@@@QAEXH@Z 00486330 f i menus.obj
 0001:000853c0       ?growbuf@?$vector@Udelayedupdate@@@@QAEXH@Z 004863c0 f i menus.obj
 0001:00085450       ?growbuf@?$vector@Uchange@@@@QAEXH@Z 00486450 f i menus.obj
 0001:000854e0       ??1chain@?$hashset@U?$hashtableentry@PBDUmenu@@@@@@QAE@XZ 004864e0 f i menus.obj
 0001:00085530       ??1?$hashtableentry@PBDUmenu@@@@QAE@XZ 00486530 f i menus.obj
 0001:00085580       ?insert@?$hashset@U?$hashtableentry@PBDUmenu@@@@@@QAEPAUchain@1@I@Z 00486580 f i menus.obj
 0001:00085740       ??0chain@?$hashset@U?$hashtableentry@PBDUmenu@@@@@@QAE@XZ 00486740 f i menus.obj
 0001:000857c0       ?addindex@aviwriter@@QAEAAUaviindexentry@@HHH@Z 004867c0 f i movie.obj
 0001:00085860       ?startchunk@aviwriter@@QAEXPBDI@Z 00486860 f i movie.obj
 0001:000858c0       ?listchunk@aviwriter@@QAEXPBD0@Z 004868c0 f i movie.obj
 0001:00085930       ?endlistchunk@aviwriter@@QAEXXZ 00486930 f i movie.obj
 0001:000859a0       ?writechunk@aviwriter@@QAEXPBDPBXI@Z 004869a0 f i movie.obj
 0001:00085a00       ?close@aviwriter@@QAEXXZ   00486a00 f i movie.obj
 0001:00085d50       ??0aviwriter@@QAE@PBDIII_N@Z 00486d50 f i movie.obj
 0001:00085f20       ??1aviwriter@@QAE@XZ       00486f20 f i movie.obj
 0001:00085fd0       ?open@aviwriter@@QAE_NXZ   00486fd0 f i movie.obj
 0001:00087040       ?boxsample@aviwriter@@SAXPBEIIIIIIIIAAI11@Z 00488040 f i movie.obj
 0001:00087450       ?scaleyuv@aviwriter@@QAEXPBEII@Z 00488450 f i movie.obj
 0001:000879c0       ?encodeyuv@aviwriter@@QAEXPBE@Z 004889c0 f i movie.obj
 0001:00087c90       ?compressyuv@aviwriter@@QAEXPBE@Z 00488c90 f i movie.obj
 0001:00087e30       ?writesound@aviwriter@@QAE_NPAEII@Z 00488e30 f i movie.obj
 0001:00088050       ?flushsegment@aviwriter@@QAEXXZ 00489050 f i movie.obj
 0001:00088550       ?nextsegment@aviwriter@@QAE_NXZ 00489550 f i movie.obj
 0001:00088640       ?writevideoframe@aviwriter@@QAE_NPBEIIHI@Z 00489640 f i movie.obj
 0001:00088750       ??0soundbuffer@recorder@@QAE@XZ 00489750 f i movie.obj
 0001:00088760       ??1soundbuffer@recorder@@QAE@XZ 00489760 f i movie.obj
 0001:00088790       ?load@soundbuffer@recorder@@QAEXPAEII@Z 00489790 f i movie.obj
 0001:000887f0       ?insert@?$vector@Uaviindexentry@@@@QAEAAUaviindexentry@@HABU2@@Z 004897f0 f i movie.obj
 0001:00088870       ??0?$queue@Usoundbuffer@recorder@@$0IA@@@QAE@XZ 00489870 f i movie.obj
 0001:000888f0       ?add@?$queue@Usoundbuffer@recorder@@$0IA@@@QAEAAUsoundbuffer@recorder@@XZ 004898f0 f i movie.obj
 0001:00088930       ??0?$queue@Uvideobuffer@recorder@@$01@@QAE@XZ 00489930 f i movie.obj
 0001:000889b0       ?add@?$queue@Uvideobuffer@recorder@@$01@@QAEAAUvideobuffer@recorder@@XZ 004899b0 f i movie.obj
 0001:000889f0       ?hasslot@soundconfig@@QBE_NPBUsoundslot@@ABU?$vector@Usoundslot@@@@@Z 004899f0 f i sound.obj
 0001:00088a30       ?inrange@?$vector@Usoundchannel@@@@QBE_NH@Z 00489a30 f i sound.obj
 0001:00088a50       ?access@?$hashtable@PBDUsoundsample@@@@QAEPAUsoundsample@@ABQBD@Z 00489a50 f i sound.obj
 0001:00088ae0       ??A?$hashtable@PBDUsoundsample@@@@QAEAAUsoundsample@@ABQBD@Z 00489ae0 f i sound.obj
 0001:00088b80       ??1?$hashset@U?$hashtableentry@PBDUsoundsample@@@@@@QAE@XZ 00489b80 f i sound.obj
 0001:00088bb0       ?clear@?$hashset@U?$hashtableentry@PBDUsoundsample@@@@@@QAEXXZ 00489bb0 f i sound.obj
 0001:00088c50       ?remove@?$vector@Usoundconfig@@@@QAE?AUsoundconfig@@H@Z 00489c50 f i sound.obj
 0001:00088cd0       ?growbuf@?$vector@Usoundchannel@@@@QAEXH@Z 00489cd0 f i sound.obj
 0001:00088d60       ??0?$hashset@U?$hashtableentry@PBDUsoundsample@@@@@@QAE@H@Z 00489d60 f i sound.obj
 0001:00088df0       ?deletechunks@?$hashset@U?$hashtableentry@PBDUsoundsample@@@@@@QAEXXZ 00489df0 f i sound.obj
 0001:00088e60       ??1chain@?$hashset@U?$hashtableentry@PBDUsoundsample@@@@@@QAE@XZ 00489e60 f i sound.obj
 0001:00088e60       ??1chain@?$hashset@U?$hashtableentry@PBDUzipfile@@@@@@QAE@XZ 00489e60 f i zip.obj
 0001:00088ec0       ??1?$hashtableentry@PBDUsoundsample@@@@QAE@XZ 00489ec0 f i sound.obj
 0001:00088ec0       ??1?$hashtableentry@PBDUzipfile@@@@QAE@XZ 00489ec0 f i zip.obj
 0001:00088f10       ?insert@?$hashset@U?$hashtableentry@PBDUsoundsample@@@@@@QAEPAUchain@1@I@Z 00489f10 f i sound.obj
 0001:000890c0       ??0chain@?$hashset@U?$hashtableentry@PBDUsoundsample@@@@@@QAE@XZ 0048a0c0 f i sound.obj
 0001:00089110       ?invert@gfield@@QAE_NABU1@@Z 0048a110 f i crypto.obj
 0001:00089450       ?sqrt@gfield@@QAE_NABU1@@Z 0048a450 f i crypto.obj
 0001:00089560       ?mul2@ecjacobian@@QAEXXZ   0048a560 f i crypto.obj
 0001:00089960       ?add@ecjacobian@@QAEXABU1@@Z 0048a960 f i crypto.obj
 0001:00089e20       ?normalize@ecjacobian@@QAEXXZ 0048ae20 f i crypto.obj
 0001:00089ed0       ?calcy@ecjacobian@@QAE_N_N@Z 0048aed0 f i crypto.obj
 0001:0008a040       ?parse@ecjacobian@@QAEXPBD@Z 0048b040 f i crypto.obj
 0001:0008a0b0       ?printdigits@?$bigint@$0M@@@QBEXAAU?$vector@D@@@Z 0048b0b0 f i crypto.obj
 0001:0008a0b0       ?printdigits@?$bigint@$0N@@@QBEXAAU?$vector@D@@@Z 0048b0b0 f i crypto.obj
 0001:0008a140       ?rshift@?$bigint@$0N@@@QAEAAU1@H@Z 0048b140 f i crypto.obj
 0001:0008a240       ?parsedigits@?$bigint@$0N@@@SAHPAGHPBD@Z 0048b240 f i crypto.obj
 0001:0008a310       ??$add@$0N@$00@?$bigint@$0N@@@QAEAAU0@ABU0@ABU?$bigint@$00@@@Z 0048b310 f i crypto.obj
 0001:0008a310       ??$add@$0N@$0N@@?$bigint@$0N@@@QAEAAU0@ABU0@0@Z 0048b310 f i crypto.obj
 0001:0008a3d0       ??$?M$0N@@?$bigint@$0N@@@QBE_NABU0@@Z 0048b3d0 f i crypto.obj
 0001:0008a430       ??$sub@$0N@$0N@@?$bigint@$0N@@@QAEAAU0@ABU0@0@Z 0048b430 f i crypto.obj
 0001:0008a430       ??$sub@$0N@$00@?$bigint@$0N@@@QAEAAU0@ABU0@ABU?$bigint@$00@@@Z 0048b430 f i crypto.obj
 0001:0008a4f0       ??$legendre@$0N@@gfield@@SAHABU?$bigint@$0N@@@@Z 0048b4f0 f i crypto.obj
 0001:0008a5d0       ??$pow@$0N@$0N@@gfield@@QAEAAU0@ABU?$bigint@$0N@@@0@Z 0048b5d0 f i crypto.obj
 0001:0008a6b0       ??$sub@$0N@$0N@@gfield@@QAEAAU0@ABU?$bigint@$0N@@@0@Z 0048b6b0 f i crypto.obj
 0001:0008a710       ??$sub@$0N@@gfield@@QAEAAU0@ABU?$bigint@$0N@@@@Z 0048b710 f i crypto.obj
 0001:0008a760       ?numbits@?$bigint@$0M@@@QBEHXZ 0048b760 f i crypto.obj
 0001:0008a760       ?numbits@?$bigint@$0N@@@QBEHXZ 0048b760 f i crypto.obj
 0001:0008a7b0       ??$mul@$0N@$0N@@?$bigint@$0BK@@@QAEAAU0@ABU?$bigint@$0N@@@0@Z 0048b7b0 f i crypto.obj
 0001:0008a8b0       ??$reduce@$0BK@@gfield@@QAEXABU?$bigint@$0BK@@@@Z 0048b8b0 f i crypto.obj
 0001:0008aaf0       ??$mul@$0M@@ecjacobian@@QAEXABU0@ABU?$bigint@$0M@@@@Z 0048baf0 f i crypto.obj
 0001:0008aaf0       ??$mul@$0N@@ecjacobian@@QAEXABU0@ABU?$bigint@$0N@@@@Z 0048baf0 f i crypto.obj
 0001:0008ab90       ?close@filestream@@UAEXXZ  0048bb90 f i stream.obj
 0001:0008abb0       ?end@filestream@@UAE_NXZ   0048bbb0 f i stream.obj
 0001:0008abd0       ?tell@filestream@@UAE_JXZ  0048bbd0 f i stream.obj
 0001:0008abe0       ?seek@filestream@@UAE_N_JH@Z 0048bbe0 f i stream.obj
 0001:0008ac10       ?read@filestream@@UAEIPAXI@Z 0048bc10 f i stream.obj
 0001:0008ac30       ?write@filestream@@UAEIPBXI@Z 0048bc30 f i stream.obj
 0001:0008ac50       ?flush@filestream@@UAE_NXZ 0048bc50 f i stream.obj
 0001:0008ac70       ?getchar@filestream@@UAEHXZ 0048bc70 f i stream.obj
 0001:0008ac80       ?putchar@filestream@@UAE_NH@Z 0048bc80 f i stream.obj
 0001:0008aca0       ?getline@filestream@@UAE_NPADI@Z 0048bca0 f i stream.obj
 0001:0008acc0       ?putstring@filestream@@UAE_NPBD@Z 0048bcc0 f i stream.obj
 0001:0008ace0       ?printf@filestream@@UAAIPBDZZ 0048bce0 f i stream.obj
 0001:0008ad10       ??_Gfilestream@@UAEPAXI@Z  0048bd10 f i stream.obj
 0001:0008ad10       ??_Efilestream@@UAEPAXI@Z  0048bd10 f i * CIL library *:* CIL module *
 0001:0008ad90       ??0gzstream@@QAE@XZ        0048bd90 f i stream.obj
 0001:0008ae30       ?readbyte@gzstream@@QAEEI@Z 0048be30 f i stream.obj
 0001:0008ae80       ?skipbytes@gzstream@@QAEXI@Z 0048be80 f i stream.obj
 0001:0008aed0       ?checkheader@gzstream@@QAE_NXZ 0048bed0 f i stream.obj
 0001:0008b100       ?open@gzstream@@QAE_NPAUstream@@PBD_NH@Z 0048c100 f i stream.obj
 0001:0008b240       ?getcrc@gzstream@@UAEIXZ   0048c240 f i stream.obj
 0001:0008b250       ?finishreading@gzstream@@QAEXXZ 0048c250 f i stream.obj
 0001:0008b370       ?stopreading@gzstream@@QAEXXZ 0048c370 f i stream.obj
 0001:0008b390       ?finishwriting@gzstream@@QAEXXZ 0048c390 f i stream.obj
 0001:0008b470       ?stopwriting@gzstream@@QAEXXZ 0048c470 f i stream.obj
 0001:0008b490       ?close@gzstream@@UAEXXZ    0048c490 f i stream.obj
 0001:0008b510       ?end@gzstream@@UAE_NXZ     0048c510 f i stream.obj
 0001:0008b530       ?tell@gzstream@@UAE_JXZ    0048c530 f i stream.obj
 0001:0008b550       ?rawtell@gzstream@@UAE_JXZ 0048c550 f i stream.obj
 0001:0008b570       ?size@gzstream@@UAE_JXZ    0048c570 f i stream.obj
 0001:0008b600       ?rawsize@gzstream@@UAE_JXZ 0048c600 f i stream.obj
 0001:0008b620       ?seek@gzstream@@UAE_N_JH@Z 0048c620 f i stream.obj
 0001:0008b7a0       ?read@gzstream@@UAEIPAXI@Z 0048c7a0 f i stream.obj
 0001:0008b880       ?flush@gzstream@@UAE_NXZ   0048c880 f i stream.obj
 0001:0008b8f0       ?write@gzstream@@UAEIPBXI@Z 0048c8f0 f i stream.obj
 0001:0008b9b0       ??_Egzstream@@UAEPAXI@Z    0048c9b0 f i * CIL library *:* CIL module *
 0001:0008b9b0       ??_Ggzstream@@UAEPAXI@Z    0048c9b0 f i stream.obj
 0001:0008ba20       ??0utf8stream@@QAE@XZ      0048ca20 f i stream.obj
 0001:0008baa0       ?readbuf@utf8stream@@QAE_NI@Z 0048caa0 f i stream.obj
 0001:0008bb80       ?checkheader@utf8stream@@QAE_NXZ 0048cb80 f i stream.obj
 0001:0008bbc0       ?open@utf8stream@@QAE_NPAUstream@@PBD_N@Z 0048cbc0 f i stream.obj
 0001:0008bc50       ?close@utf8stream@@UAEXXZ  0048cc50 f i stream.obj
 0001:0008bc90       ?end@utf8stream@@UAE_NXZ   0048cc90 f i stream.obj
 0001:0008bcb0       ?tell@utf8stream@@UAE_JXZ  0048ccb0 f i stream.obj
 0001:0008bcd0       ?seek@utf8stream@@UAE_N_JH@Z 0048ccd0 f i stream.obj
 0001:0008be30       ?read@utf8stream@@UAEIPAXI@Z 0048ce30 f i stream.obj
 0001:0008bec0       ?getline@utf8stream@@UAE_NPADI@Z 0048cec0 f i stream.obj
 0001:0008bf90       ?write@utf8stream@@UAEIPBXI@Z 0048cf90 f i stream.obj
 0001:0008c1b0       ?flush@utf8stream@@UAE_NXZ 0048d1b0 f i stream.obj
 0001:0008c1c0       ??_Gutf8stream@@UAEPAXI@Z  0048d1c0 f i stream.obj
 0001:0008c1c0       ??_Eutf8stream@@UAEPAXI@Z  0048d1c0 f i * CIL library *:* CIL module *
 0001:0008c250       ?growbuf@?$vector@Upackagedir@@@@QAEXH@Z 0048d250 f i stream.obj
 0001:0008c2d0       ??_Estream@@UAEPAXI@Z      0048d2d0 f i * CIL library *:* CIL module *
 0001:0008c2d0       ??_Gstream@@UAEPAXI@Z      0048d2d0 f i stream.obj
 0001:0008c2f0       ?rawtell@stream@@UAE_JXZ   0048d2f0 f i stream.obj
 0001:0008c300       ?rawsize@stream@@UAE_JXZ   0048d300 f i stream.obj
 0001:0008c310       ?getchar@stream@@UAEHXZ    0048d310 f i stream.obj
 0001:0008c330       ?putstring@stream@@UAE_NPBD@Z 0048d330 f i stream.obj
 0001:0008c360       ?putchar@stream@@UAE_NH@Z  0048d360 f i stream.obj
 0001:0008c380       ?putline@stream@@UAE_NPBD@Z 0048d380 f i stream.obj
 0001:0008c3b0       ??1stream@@UAE@XZ          0048d3b0 f i stream.obj
 0001:0008c3c0       ?tell@stream@@UAE_JXZ      0048d3c0 f i stream.obj
 0001:0008c3d0       ?seek@stream@@UAE_N_JH@Z   0048d3d0 f i stream.obj
 0001:0008c3e0       ?put@packetbuf@@QAEXABE@Z  0048d3e0 f i tools.obj
 0001:0008c440       ??0ziparchive@@QAE@XZ      0048d440 f i zip.obj
 0001:0008c4b0       ??1ziparchive@@QAE@XZ      0048d4b0 f i zip.obj
 0001:0008c550       ??1?$hashtable@PBDUzipfile@@@@QAE@XZ 0048d550 f i zip.obj
 0001:0008c5b0       ?readbuf@zipstream@@QAEXI@Z 0048d5b0 f i zip.obj
 0001:0008c650       ?open@zipstream@@QAE_NPAUziparchive@@PAUzipfile@@@Z 0048d650 f i zip.obj
 0001:0008c710       ?stopreading@zipstream@@QAEXXZ 0048d710 f i zip.obj
 0001:0008c780       ?close@zipstream@@UAEXXZ   0048d780 f i zip.obj
 0001:0008c7c0       ?size@zipstream@@UAE_JXZ   0048d7c0 f i zip.obj
 0001:0008c7d0       ?end@zipstream@@UAE_NXZ    0048d7d0 f i zip.obj
 0001:0008c7f0       ?tell@zipstream@@UAE_JXZ   0048d7f0 f i zip.obj
 0001:0008c820       ?seek@zipstream@@UAE_N_JH@Z 0048d820 f i zip.obj
 0001:0008ca30       ?read@zipstream@@UAEIPAXI@Z 0048da30 f i zip.obj
 0001:0008cb50       ??_Gzipstream@@UAEPAXI@Z   0048db50 f i zip.obj
 0001:0008cb50       ??_Ezipstream@@UAEPAXI@Z   0048db50 f i * CIL library *:* CIL module *
 0001:0008cbf0       ?access@?$hashtable@PBDUzipfile@@@@QAEPAUzipfile@@ABQBD@Z 0048dbf0 f i zip.obj
 0001:0008cc80       ??A?$hashtable@PBDUzipfile@@@@QAEAAUzipfile@@ABQBD@Z 0048dc80 f i zip.obj
 0001:0008cd20       ??1?$hashset@U?$hashtableentry@PBDUzipfile@@@@@@QAE@XZ 0048dd20 f i zip.obj
 0001:0008cd50       ??1?$vector@Uzipfile@@@@QAE@XZ 0048dd50 f i zip.obj
 0001:0008cd70       ?add@?$vector@Uzipfile@@@@QAEAAUzipfile@@XZ 0048dd70 f i zip.obj
 0001:0008ce00       ?add@?$vector@PAUziparchive@@@@QAEAAPAUziparchive@@ABQAU2@@Z 0048de00 f i zip.obj
 0001:0008ce50       ?removeobj@?$vector@PAUziparchive@@@@QAEXABQAUziparchive@@@Z 0048de50 f i zip.obj
 0001:0008ceb0       ??0?$hashset@U?$hashtableentry@PBDUzipfile@@@@@@QAE@H@Z 0048deb0 f i zip.obj
 0001:0008cf20       ?deletechunks@?$hashset@U?$hashtableentry@PBDUzipfile@@@@@@QAEXXZ 0048df20 f i zip.obj
 0001:0008cf90       ?shrink@?$vector@Uzipfile@@@@QAEXH@Z 0048df90 f i zip.obj
 0001:0008cfd0       ?growbuf@?$vector@PAUziparchive@@@@QAEXH@Z 0048dfd0 f i zip.obj
 0001:0008d060       ?insert@?$hashset@U?$hashtableentry@PBDUzipfile@@@@@@QAEPAUchain@1@I@Z 0048e060 f i zip.obj
 0001:0008d210       ??0chain@?$hashset@U?$hashtableentry@PBDUzipfile@@@@@@QAE@XZ 0048e210 f i zip.obj
 0001:0008d270       ?add@?$vector@Uinterest@ai@@@@QAEAAUinterest@ai@@XZ 0048e270 f i ai.obj
 0001:0008d300       ?removeunordered@?$vector@Uinterest@ai@@@@QAE?AUinterest@ai@@H@Z 0048e300 f i ai.obj
 0001:0008d350       ?abovehead@dynent@@QAE?AUvec@@XZ 0048e350 f i ai.obj
 0001:0008d390       ?remove@?$vector@Uaistate@ai@@@@QAE?AUaistate@ai@@H@Z 0048e390 f i ai.obj
 0001:0008d3f0       ?add@avoidset@ai@@QAEXAAU12@@Z 0048e3f0 f i ai.obj
 0001:0008d520       ?addprevnode@aiinfo@ai@@QAEXH@Z 0048e520 f i ai.obj
 0001:0008d550       ?canpickup@fpsstate@@QAE_NH@Z 0048e550 f i ai.obj
 0001:0008d610       ?switchstate@aiinfo@ai@@QAEAAUaistate@2@AAU32@HHH@Z 0048e610 f i ai.obj
 0001:0008d670       ?find@avoidset@ai@@QBE_NHPAUfpsent@@@Z 0048e670 f i ai.obj
 0001:0008d6f0       ??1aiinfo@ai@@QAE@XZ       0048e6f0 f i ai.obj
 0001:0008d770       ?clearsetup@aiinfo@ai@@QAEXXZ 0048e770 f i ai.obj
 0001:0008d830       ?addstate@aiinfo@ai@@QAEAAUaistate@2@HHH@Z 0048e830 f i ai.obj
 0001:0008d8b0       ?wipe@aiinfo@ai@@QAEX_N@Z  0048e8b0 f i ai.obj
 0001:0008d940       ?reset@aiinfo@ai@@QAEX_N@Z 0048e940 f i ai.obj
 0001:0008d9a0       ??0aiinfo@ai@@QAE@XZ       0048e9a0 f i ai.obj
 0001:0008da80       ?pickup@fpsstate@@QAEXH@Z  0048ea80 f i entities.obj
 0001:0008db60       ?removeobj@?$vector@PAUfpsent@@@@QAEXABQAUfpsent@@@Z 0048eb60 f i fps.obj
 0001:0008dbc0       ?buttonf@g3d_gui@@QAAHPBDH0ZZ 0048ebc0 f i fps.obj
 0001:0008dc20       ??1fpsent@@QAE@XZ          0048ec20 f i fps.obj
 0001:0008dd00       ??0dynent@@QAE@XZ          0048ed00 f i fps.obj
 0001:0008df30       ??1dynent@@QAE@XZ          0048ef30 f i fps.obj
 0001:0008df50       ??0fpsent@@QAE@XZ          0048ef50 f i fps.obj
 0001:0008e110       ?spawnstate@fpsstate@@QAEXH@Z 0048f110 f i fps.obj
 0001:0008e2f0       ?reset@dynent@@QAEXXZ      0048f2f0 f i fps.obj
 0001:0008e380       ?respawn@fpsent@@QAEXXZ    0048f380 f i fps.obj
 0001:0008e4d0       ??0monster@game@@QAE@HHHHHH@Z 0048f4d0 f i monster.obj
 0001:0008e720       ?transition@monster@game@@QAEXHHHH@Z 0048f720 f i monster.obj
 0001:0008e790       ?monsteraction@monster@game@@QAEXH@Z 0048f790 f i monster.obj
 0001:0008f010       ?monsterpain@monster@game@@QAEXHPAUfpsent@@@Z 00490010 f i monster.obj
 0001:0008f250       ?growbuf@?$vector@PAUmonster@game@@@@QAEXH@Z 00490250 f i monster.obj
 0001:0008f2e0       ??0movable@game@@QAE@ABUentity@@@Z 004902e0 f i movable.obj
 0001:0008f530       ?explode@movable@game@@QAEXPAUdynent@@@Z 00490530 f i movable.obj
 0001:0008f560       ?deletecontents@?$vector@PAUmovable@game@@@@QAEXXZ 00490560 f i movable.obj
 0001:0008f5e0       ?growbuf@?$vector@PAUmovable@game@@@@QAEXH@Z 004905e0 f i movable.obj
 0001:0008f670       ?deletecontents@?$vector@PAUfpsent@@@@QAEXXZ 00490670 f i render.obj
 0001:0008f6b0       ??$htfind@$$BY0BAE@D@?$vector@PBD@@QAEHAAY0BAE@$$CBD@Z 004906b0 f i render.obj
 0001:0008f720       ?show@scoreboardgui@game@@QAEX_N@Z 00490720 f i scoreboard.obj
 0001:0008f810       ?gui@scoreboardgui@game@@UAEXAAUg3d_gui@@_N@Z 00490810 f i scoreboard.obj
 0001:0008f840       ?clear@?$hashset@Uteaminfo@@@@QAEXXZ 00490840 f i scoreboard.obj
 0001:0008f8a0       ?growbuf@?$vector@PAUscoregroup@game@@@@QAEXH@Z 004908a0 f i scoreboard.obj
 0001:0008f930       ??$access@PBD@?$hashset@Uteaminfo@@@@QAEPAUteaminfo@@ABQBD@Z 00490930 f i scoreboard.obj
 0001:0008f9c0       ??$?APBD@?$hashset@Uteaminfo@@@@QAEAAUteaminfo@@ABQBD@Z 004909c0 f i scoreboard.obj
 0001:0008fa50       ??$access@$$BY0BAE@D@?$hashset@Uteaminfo@@@@QAEPAUteaminfo@@AAY0BAE@$$CBD@Z 00490a50 f i scoreboard.obj
 0001:0008fae0       ?insert@?$hashset@Uteaminfo@@@@QAEPAUchain@1@I@Z 00490ae0 f i scoreboard.obj
 0001:0008fc30       ?textf@g3d_gui@@QAAHPBDH0ZZ 00490c30 f i scoreboard.obj
 0001:0008fc90       ?titlef@g3d_gui@@QAAHPBDH0ZZ 00490c90 f i scoreboard.obj
 0001:0008fcf0       ?compare@teamscore@@SA_NABU1@0@Z 00490cf0 f i scoreboard.obj
 0001:0008fd50       ??0wpcache@ai@@QAE@XZ      00490d50 f i waypoint.obj
 0001:0008fe00       ?build@wpcache@ai@@QAEXHH@Z 00490e00 f i waypoint.obj
 0001:00090010       ?build@wpcache@ai@@QAEXPAHHABUvec@@1@Z 00491010 f i waypoint.obj
 0001:000906f0       ?add@?$vector@Uwaypoint@ai@@@@QAEAAUwaypoint@ai@@ABU23@@Z 004916f0 f i waypoint.obj
 0001:00090760       ?add@?$vector@PAUwaypoint@ai@@@@QAEAAPAUwaypoint@ai@@ABQAU23@@Z 00491760 f i waypoint.obj
 0001:000907b0       ?upheap@?$vector@PAUwaypoint@ai@@@@QAEHH@Z 004917b0 f i waypoint.obj
 0001:00090820       ?addheap@?$vector@PAUwaypoint@ai@@@@QAEAAPAUwaypoint@ai@@ABQAU23@@Z 00491820 f i waypoint.obj
 0001:00090880       ?growbuf@?$vector@Uwaypoint@ai@@@@QAEXH@Z 00491880 f i waypoint.obj
 0001:00090910       ?growbuf@?$vector@PAUnode@wpcache@ai@@@@QAEXH@Z 00491910 f i waypoint.obj
 0001:000909a0       ?growbuf@?$vector@PAUwaypoint@ai@@@@QAEXH@Z 004919a0 f i waypoint.obj
 0001:00090a30       ?downheap@?$vector@PAUwaypoint@ai@@@@QAEHH@Z 00491a30 f i waypoint.obj
 0001:00090b10       ??0waypoint@ai@@QAE@ABUvec@@H@Z 00491b10 f i waypoint.obj
 0001:00090b40       ?find@waypoint@ai@@QAEHH@Z 00491b40 f i waypoint.obj
 0001:00090b70       ?add@avoidset@ai@@QAEXPAXMH@Z 00491b70 f i waypoint.obj
 0001:00090c10       ??0bouncer@game@@QAE@XZ    00491c10 f i weapon.obj
 0001:00090c90       ?add@?$vector@Uhitmsg@game@@@@QAEAAUhitmsg@game@@XZ 00491c90 f i weapon.obj
 0001:00090cf0       ?deletecontents@?$vector@PAUbouncer@game@@@@QAEXXZ 00491cf0 f i weapon.obj
 0001:00090d30       ?remove@?$vector@PAUbouncer@game@@@@QAEPAUbouncer@game@@H@Z 00491d30 f i weapon.obj
 0001:00090d80       ?add@?$vector@Uprojectile@game@@@@QAEAAUprojectile@game@@XZ 00491d80 f i weapon.obj
 0001:00090e20       ?remove@?$vector@Uprojectile@game@@@@QAE?AUprojectile@game@@H@Z 00491e20 f i weapon.obj
 0001:00090ea0       ?growbuf@?$vector@Uhitmsg@game@@@@QAEXH@Z 00491ea0 f i weapon.obj
 0001:00090f40       ?growbuf@?$vector@PAUbouncer@game@@@@QAEXH@Z 00491f40 f i weapon.obj
 0001:00090fd0       ?growbuf@?$vector@Uprojectile@game@@@@QAEXH@Z 00491fd0 f i weapon.obj
 0001:00091050       ?hitpush@fpsent@@QAEXHABUvec@@PAU1@H@Z 00492050 f i weapon.obj
 0001:00091120       ??0baseinfo@captureclientmode@game@@QAE@XZ 00492120 f i client1.obj
 0001:000911c0       ?getteamscore@captureclientmode@game@@UAEHPBD@Z 004921c0 f i client1.obj
 0001:000911c0       ?getteamscore@captureservmode@server@@UAEHPBD@Z 004921c0 f i server1.obj
 0001:00091230       ?getteamscores@captureservmode@server@@UAEXAAU?$vector@Uteamscore@@@@@Z 00492230 f i server1.obj
 0001:00091230       ?getteamscores@captureclientmode@game@@UAEXAAU?$vector@Uteamscore@@@@@Z 00492230 f i client1.obj
 0001:000912a0       ?findscore@captureclientmode@game@@QAEAAUscore@12@PBD@Z 004922a0 f i client1.obj
 0001:00091380       ?initbase@captureclientmode@game@@QAEXHHPBD0HH@Z 00492380 f i client1.obj
 0001:00091440       ?disttoenemy@captureclientmode@game@@QAEMAAUbaseinfo@12@@Z 00492440 f i client1.obj
 0001:00091510       ??0captureclientmode@game@@QAE@XZ 00492510 f i client1.obj
 0001:000915c0       ?replenishammo@captureclientmode@game@@QAEXXZ 004925c0 f i client1.obj
 0001:000916f0       ?receiveammo@captureclientmode@game@@QAEXPAUfpsent@@H@Z 004926f0 f i client1.obj
 0001:000917a0       ?checkitems@captureclientmode@game@@UAEXPAUfpsent@@@Z 004927a0 f i client1.obj
 0001:000919e0       ?rendertether@captureclientmode@game@@QAEXPAUfpsent@@@Z 004929e0 f i client1.obj
 0001:00091f20       ?preload@captureclientmode@game@@UAEXXZ 00492f20 f i client1.obj
 0001:00092060       ?rendergame@captureclientmode@game@@UAEXXZ 00493060 f i client1.obj
 0001:000927d0       ?drawblips@captureclientmode@game@@QAEXPAUfpsent@@MHHH_N@Z 004937d0 f i client1.obj
 0001:00092d70       ?respawnwait@captureclientmode@game@@UAEHPAUfpsent@@@Z 00493d70 f i client1.obj
 0001:00092dd0       ?clipconsole@collectclientmode@game@@UAEHHH@Z 00493dd0 f i client1.obj
 0001:00092dd0       ?clipconsole@captureclientmode@game@@UAEHHH@Z 00493dd0 f i client1.obj
 0001:00092dd0       ?clipconsole@ctfclientmode@game@@UAEHHH@Z 00493dd0 f i client1.obj
 0001:00092df0       ?drawhud@captureclientmode@game@@UAEXPAUfpsent@@HH@Z 00493df0 f i client1.obj
 0001:000932c0       ?setup@captureclientmode@game@@UAEXXZ 004942c0 f i client1.obj
 0001:00093590       ?senditems@captureclientmode@game@@UAEXAAUpacketbuf@@@Z 00494590 f i client1.obj
 0001:00093640       ?updatebase@captureclientmode@game@@QAEXHPBD0HH@Z 00494640 f i client1.obj
 0001:00093a50       ?setscore@captureclientmode@game@@QAEXHPBDH@Z 00494a50 f i client1.obj
 0001:00093bd0       ?closesttoenemy@captureclientmode@game@@QAEHPBD_N1@Z 00494bd0 f i client1.obj
 0001:00093ce0       ?pickteamspawn@captureclientmode@game@@QAEHPBD@Z 00494ce0 f i client1.obj
 0001:00093e40       ?pickspawn@captureclientmode@game@@UAEXPAUfpsent@@@Z 00494e40 f i client1.obj
 0001:00093e70       ?aicheck@captureclientmode@game@@UAE_NPAUfpsent@@AAUaistate@ai@@@Z 00494e70 f i client1.obj
 0001:00093e70       ?extinfoteam@servmode@server@@UAE_NPBDAAU?$databuf@E@@@Z 00494e70 f i server1.obj
 0001:00093e70       ?aipursue@clientmode@game@@UAE_NPAUfpsent@@AAUaistate@ai@@@Z 00494e70 f i client1.obj
 0001:00093e70       ?aidefend@clientmode@game@@UAE_NPAUfpsent@@AAUaistate@ai@@@Z 00494e70 f i client1.obj
 0001:00093e70       ?aicheck@clientmode@game@@UAE_NPAUfpsent@@AAUaistate@ai@@@Z 00494e70 f i client1.obj
 0001:00093e80       ?aifind@captureclientmode@game@@UAEXPAUfpsent@@AAUaistate@ai@@AAU?$vector@Uinterest@ai@@@@@Z 00494e80 f i client1.obj
 0001:000943a0       ?aidefend@captureclientmode@game@@UAE_NPAUfpsent@@AAUaistate@ai@@@Z 004953a0 f i client1.obj
 0001:00094750       ?aipursue@captureclientmode@game@@UAE_NPAUfpsent@@AAUaistate@ai@@@Z 00495750 f i client1.obj
 0001:00094770       ??_Gcaptureclientmode@game@@UAEPAXI@Z 00495770 f i client1.obj
 0001:00094770       ??_Gctfclientmode@game@@UAEPAXI@Z 00495770 f i client1.obj
 0001:00094770       ??_Ectfclientmode@game@@UAEPAXI@Z 00495770 f i * CIL library *:* CIL module *
 0001:00094770       ??_Ecaptureclientmode@game@@UAEPAXI@Z 00495770 f i * CIL library *:* CIL module *
 0001:000947a0       ??1captureclientmode@game@@UAE@XZ 004957a0 f i client1.obj
 0001:000947a0       ??1ctfclientmode@game@@UAE@XZ 004957a0 f i client1.obj
 0001:00094830       ?reset@flag@ctfclientmode@game@@QAEXXZ 00495830 f i client1.obj
 0001:00094900       ?pos@flag@ctfclientmode@game@@QAEABUvec@@XZ 00495900 f i client1.obj
 0001:00094920       ?addflag@ctfclientmode@game@@QAE_NHABUvec@@HH@Z 00495920 f i client1.obj
 0001:00094980       ?ownflag@ctfclientmode@game@@QAEXHPAUfpsent@@H@Z 00495980 f i client1.obj
 0001:000949f0       ?dropflag@ctfclientmode@game@@QAEXHABUvec@@MH@Z 004959f0 f i client1.obj
 0001:00094a60       ?returnflag@ctfclientmode@game@@QAEXHH@Z 00495a60 f i client1.obj
 0001:00094ad0       ?getteamscore@ctfclientmode@game@@UAEHPBD@Z 00495ad0 f i client1.obj
 0001:00094ad0       ?getteamscore@ctfservmode@server@@UAEHPBD@Z 00495ad0 f i server1.obj
 0001:00094b70       ?getteamscores@ctfservmode@server@@UAEXAAU?$vector@Uteamscore@@@@@Z 00495b70 f i server1.obj
 0001:00094b70       ?getteamscores@ctfclientmode@game@@UAEXAAU?$vector@Uteamscore@@@@@Z 00495b70 f i client1.obj
 0001:00094be0       ?preload@ctfclientmode@game@@UAEXXZ 00495be0 f i client1.obj
 0001:00094c90       ?drawblip@ctfclientmode@game@@QAEXPAUfpsent@@MMMABUvec@@_N@Z 00495c90 f i client1.obj
 0001:00094e80       ?drawblip@ctfclientmode@game@@QAEXPAUfpsent@@MMMH_N@Z 00495e80 f i client1.obj
 0001:000950a0       ?drawhud@ctfclientmode@game@@UAEXPAUfpsent@@HH@Z 004960a0 f i client1.obj
 0001:00095850       ?removeplayer@ctfclientmode@game@@UAEXPAUfpsent@@@Z 00496850 f i client1.obj
 0001:00095920       ?interpflagpos@ctfclientmode@game@@QAE?AUvec@@AAUflag@12@AAM@Z 00496920 f i client1.obj
 0001:00095b10       ?rendergame@ctfclientmode@game@@UAEXXZ 00496b10 f i client1.obj
 0001:00096390       ?setup@ctfclientmode@game@@UAEXXZ 00497390 f i client1.obj
 0001:00096650       ?senditems@ctfclientmode@game@@UAEXAAUpacketbuf@@@Z 00497650 f i client1.obj
 0001:00096790       ?parseflags@ctfclientmode@game@@QAEXAAU?$databuf@E@@_N@Z 00497790 f i client1.obj
 0001:000969f0       ?trydropflag@ctfclientmode@game@@QAEXXZ 004979f0 f i client1.obj
 0001:00096a60       ?teamcolorflag@ctfclientmode@game@@QAEPBDAAUflag@12@@Z 00497a60 f i client1.obj
 0001:00096ad0       ?dropflag@ctfclientmode@game@@QAEXPAUfpsent@@HHABUvec@@@Z 00497ad0 f i client1.obj
 0001:00096be0       ?flagexplosion@ctfclientmode@game@@QAEXHHABUvec@@@Z 00497be0 f i client1.obj
 0001:00096dc0       ?flageffect@ctfclientmode@game@@QAEXHHABUvec@@0@Z 00497dc0 f i client1.obj
 0001:00096f90       ?returnflag@ctfclientmode@game@@QAEXPAUfpsent@@HH@Z 00497f90 f i client1.obj
 0001:00097100       ?spawnflag@ctfclientmode@game@@QAEXAAUflag@12@@Z 00498100 f i client1.obj
 0001:00097150       ?resetflag@ctfclientmode@game@@QAEXHHHHH@Z 00498150 f i client1.obj
 0001:000972c0       ?scoreflag@ctfclientmode@game@@QAEXPAUfpsent@@HHHHHHHH@Z 004982c0 f i client1.obj
 0001:00097710       ?takeflag@ctfclientmode@game@@QAEXPAUfpsent@@HH@Z 00498710 f i client1.obj
 0001:00097840       ?invisflag@ctfclientmode@game@@QAEXHH@Z 00498840 f i client1.obj
 0001:00097880       ?checkitems@ctfclientmode@game@@UAEXPAUfpsent@@@Z 00498880 f i client1.obj
 0001:00097a90       ?respawned@ctfclientmode@game@@UAEXPAUfpsent@@@Z 00498a90 f i client1.obj
 0001:00097c00       ?respawnwait@ctfclientmode@game@@UAEHPAUfpsent@@@Z 00498c00 f i client1.obj
 0001:00097c70       ?pickholdspawn@ctfclientmode@game@@QAE_NPAUfpsent@@@Z 00498c70 f i client1.obj
 0001:00097f70       ?pickspawn@ctfclientmode@game@@UAEXPAUfpsent@@@Z 00498f70 f i client1.obj
 0001:00098080       ?aihomerun@ctfclientmode@game@@QAE_NPAUfpsent@@AAUaistate@ai@@@Z 00499080 f i client1.obj
 0001:00098790       ?aicheck@ctfclientmode@game@@UAE_NPAUfpsent@@AAUaistate@ai@@@Z 00499790 f i client1.obj
 0001:00098a90       ?aifind@ctfclientmode@game@@UAEXPAUfpsent@@AAUaistate@ai@@AAU?$vector@Uinterest@ai@@@@@Z 00499a90 f i client1.obj
 0001:000995a0       ?aidefend@ctfclientmode@game@@UAE_NPAUfpsent@@AAUaistate@ai@@@Z 0049a5a0 f i client1.obj
 0001:00099d10       ?aipursue@ctfclientmode@game@@UAE_NPAUfpsent@@AAUaistate@ai@@@Z 0049ad10 f i client1.obj
 0001:00099fb0       ??0base@collectclientmode@game@@QAE@XZ 0049afb0 f i client1.obj
 0001:0009a030       ??0token@collectclientmode@game@@QAE@XZ 0049b030 f i client1.obj
 0001:0009a0a0       ?addbase@collectclientmode@game@@QAE_NHABUvec@@H@Z 0049b0a0 f i client1.obj
 0001:0009a180       ?droptoken@collectclientmode@game@@QAEAAUtoken@12@HABUvec@@HH@Z 0049b180 f i client1.obj
 0001:0009a230       ?removetoken@collectclientmode@game@@QAE_NH@Z 0049b230 f i client1.obj
 0001:0009a2b0       ?getteamscore@collectservmode@server@@UAEHPBD@Z 0049b2b0 f i server1.obj
 0001:0009a2b0       ?getteamscore@collectclientmode@game@@UAEHPBD@Z 0049b2b0 f i client1.obj
 0001:0009a350       ?getteamscores@collectclientmode@game@@UAEXAAU?$vector@Uteamscore@@@@@Z 0049b350 f i client1.obj
 0001:0009a350       ?getteamscores@collectservmode@server@@UAEXAAU?$vector@Uteamscore@@@@@Z 0049b350 f i server1.obj
 0001:0009a3c0       ?preload@collectclientmode@game@@UAEXXZ 0049b3c0 f i client1.obj
 0001:0009a450       ?drawblip@collectclientmode@game@@QAEXPAUfpsent@@MMMABUvec@@M@Z 0049b450 f i client1.obj
 0001:0009a600       ?drawbaseblip@collectclientmode@game@@QAEXPAUfpsent@@MMMH@Z 0049b600 f i client1.obj
 0001:0009a700       ?drawhud@collectclientmode@game@@UAEXPAUfpsent@@HH@Z 0049b700 f i client1.obj
 0001:0009ac30       ?rendergame@collectclientmode@game@@UAEXXZ 0049bc30 f i client1.obj
 0001:0009b330       ?setup@collectclientmode@game@@UAEXXZ 0049c330 f i client1.obj
 0001:0009b4a0       ?senditems@collectclientmode@game@@UAEXAAUpacketbuf@@@Z 0049c4a0 f i client1.obj
 0001:0009b530       ?movetoken@collectclientmode@game@@QAE?AUvec@@ABU3@H@Z 0049c530 f i client1.obj
 0001:0009b720       ?parsetokens@collectclientmode@game@@QAEXAAU?$databuf@E@@_N@Z 0049c720 f i client1.obj
 0001:0009b940       ?baseexplosion@collectclientmode@game@@QAEXHHABUvec@@@Z 0049c940 f i client1.obj
 0001:0009bb10       ?baseeffect@collectclientmode@game@@QAEXHHABUvec@@0_N1@Z 0049cb10 f i client1.obj
 0001:0009bc40       ?expiretoken@collectclientmode@game@@QAEXH@Z 0049cc40 f i client1.obj
 0001:0009bcb0       ?taketoken@collectclientmode@game@@QAEXPAUfpsent@@HH@Z 0049ccb0 f i client1.obj
 0001:0009bdd0       ?droptoken@collectclientmode@game@@QAEPAUtoken@12@PAUfpsent@@HABUvec@@HHH@Z 0049cdd0 f i client1.obj
 0001:0009c120       ?stealtoken@collectclientmode@game@@QAEXPAUfpsent@@HABUvec@@HHHHHH@Z 0049d120 f i client1.obj
 0001:0009c320       ?deposittokens@collectclientmode@game@@QAEXPAUfpsent@@HHHHH@Z 0049d320 f i client1.obj
 0001:0009c540       ?checkitems@collectclientmode@game@@UAEXPAUfpsent@@@Z 0049d540 f i client1.obj
 0001:0009c920       ?respawnwait@collectclientmode@game@@UAEHPAUfpsent@@@Z 0049d920 f i client1.obj
 0001:0009c960       ?pickspawn@collectclientmode@game@@UAEXPAUfpsent@@@Z 0049d960 f i client1.obj
 0001:0009ca10       ?aicheck@collectclientmode@game@@UAE_NPAUfpsent@@AAUaistate@ai@@@Z 0049da10 f i client1.obj
 0001:0009cdf0       ?aifind@collectclientmode@game@@UAEXPAUfpsent@@AAUaistate@ai@@AAU?$vector@Uinterest@ai@@@@@Z 0049ddf0 f i client1.obj
 0001:0009d180       ?aipursue@collectclientmode@game@@UAE_NPAUfpsent@@AAUaistate@ai@@@Z 0049e180 f i client1.obj
 0001:0009d360       ??0ctfclientmode@game@@QAE@XZ 0049e360 f i client1.obj
 0001:0009d400       ??0collectclientmode@game@@QAE@XZ 0049e400 f i client1.obj
 0001:0009d4a0       ??1collectclientmode@game@@UAE@XZ 0049e4a0 f i client1.obj
 0001:0009d530       ??_Gcollectclientmode@game@@UAEPAXI@Z 0049e530 f i client1.obj
 0001:0009d530       ??_Ecollectclientmode@game@@UAEPAXI@Z 0049e530 f i * CIL library *:* CIL module *
 0001:0009d560       ??0authkey@game@@QAE@PBD00@Z 0049e560 f i client1.obj
 0001:0009d620       ??_G?$vector@D@@QAEPAXI@Z  0049e620 f i client1.obj
 0001:0009d650       ?add@?$vector@Uteamscore@@@@QAEAAUteamscore@@ABU2@@Z 0049e650 f i client1.obj
 0001:0009d690       ?add@?$vector@Uholdspawn@ctfclientmode@game@@@@QAEAAUholdspawn@ctfclientmode@game@@XZ 0049e690 f i client1.obj
 0001:0009d730       ?add@?$vector@Uflag@ctfclientmode@game@@@@QAEAAUflag@ctfclientmode@game@@XZ 0049e730 f i client1.obj
 0001:0009d7d0       ?growbuf@?$vector@Ubaseinfo@captureclientmode@game@@@@QAEXH@Z 0049e7d0 f i client1.obj
 0001:0009d850       ?growbuf@?$vector@Uflag@ctfclientmode@game@@@@QAEXH@Z 0049e850 f i client1.obj
 0001:0009d8d0       ?growbuf@?$vector@Ubase@collectclientmode@game@@@@QAEXH@Z 0049e8d0 f i client1.obj
 0001:0009d950       ?growbuf@?$vector@PAUauthkey@game@@@@QAEXH@Z 0049e950 f i client1.obj
 0001:0009d9e0       ?validate@selinfo@@QAE_NXZ 0049e9e0 f i client1.obj
 0001:0009daf0       ??_Gclientmode@game@@UAEPAXI@Z 0049eaf0 f i client1.obj
 0001:0009daf0       ??_Eclientmode@game@@UAEPAXI@Z 0049eaf0 f i * CIL library *:* CIL module *
 0001:0009db10       ?pickspawn@clientmode@game@@UAEXPAUfpsent@@@Z 0049eb10 f i client1.obj
 0001:0009db30       ??1clientmode@game@@UAE@XZ 0049eb30 f i client1.obj
 0001:0009db40       ??1gameevent@server@@UAE@XZ 0049eb40 f i server1.obj
 0001:0009db50       ??_Ggameevent@server@@UAEPAXI@Z 0049eb50 f i server1.obj
 0001:0009db50       ??_Egameevent@server@@UAEPAXI@Z 0049eb50 f i * CIL library *:* CIL module *
 0001:0009db70       ?reset@gamestate@server@@QAEXXZ 0049eb70 f i server1.obj
 0001:0009dc40       ?respawn@gamestate@server@@QAEXXZ 0049ec40 f i server1.obj
 0001:0009dce0       ?save@savedscore@server@@QAEXAAUgamestate@2@@Z 0049ece0 f i server1.obj
 0001:0009dd50       ?restore@savedscore@server@@QAEXAAUgamestate@2@@Z 0049ed50 f i server1.obj
 0001:0009ddd0       ??0clientinfo@server@@QAE@XZ 0049edd0 f i server1.obj
 0001:0009df90       ??1clientinfo@server@@QAE@XZ 0049ef90 f i server1.obj
 0001:0009e130       ?addevent@clientinfo@server@@QAEXPAUgameevent@2@@Z 0049f130 f i server1.obj
 0001:0009e190       ?calcpushrange@clientinfo@server@@QAEHXZ 0049f190 f i server1.obj
 0001:0009e1d0       ?setexceeded@clientinfo@server@@QAEXXZ 0049f1d0 f i server1.obj
 0001:0009e240       ?setpushed@clientinfo@server@@QAEXXZ 0049f240 f i server1.obj
 0001:0009e2c0       ?mapchange@clientinfo@server@@QAEXXZ 0049f2c0 f i server1.obj
 0001:0009e360       ?reassign@clientinfo@server@@QAEXXZ 0049f360 f i server1.obj
 0001:0009e3d0       ?cleanauth@clientinfo@server@@QAEX_N@Z 0049f3d0 f i server1.obj
 0001:0009e430       ?reset@clientinfo@server@@QAEXXZ 0049f430 f i server1.obj
 0001:0009e520       ?geteventmillis@clientinfo@server@@QAEHHH@Z 0049f520 f i server1.obj
 0001:0009e580       ?findmode@maprotation@server@@QBEHH@Z 0049f580 f i server1.obj
 0001:0009e600       ?match@maprotation@server@@QBE_NHPBD@Z 0049f600 f i server1.obj
 0001:0009e680       ??1servmode@server@@UAE@XZ 0049f680 f i server1.obj
 0001:0009e690       ?moved@servmode@server@@UAEXPAUclientinfo@2@ABUvec@@_N12@Z 0049f690 f i server1.obj
 0001:0009e6a0       ?canspawn@servmode@server@@UAE_NPAUclientinfo@2@_N@Z 0049f6a0 f i server1.obj
 0001:0009e6b0       ?fragvalue@servmode@server@@UAEHPAUclientinfo@2@0@Z 0049f6b0 f i server1.obj
 0001:0009e720       ?canchangeteam@servmode@server@@UAE_NPAUclientinfo@2@PBD1@Z 0049f720 f i server1.obj
 0001:0009e730       ??_Gservmode@server@@UAEPAXI@Z 0049f730 f i server1.obj
 0001:0009e730       ??_Eservmode@server@@UAEPAXI@Z 0049f730 f i * CIL library *:* CIL module *
 0001:0009e750       ??0baseinfo@captureservmode@server@@QAE@XZ 0049f750 f i server1.obj
 0001:0009e7b0       ?valid@baseinfo@captureservmode@server@@QBE_NXZ 0049f7b0 f i server1.obj
 0001:0009e7d0       ?enter@baseinfo@captureservmode@server@@QAE_NPBD@Z 0049f7d0 f i server1.obj
 0001:0009e8e0       ?steal@baseinfo@captureservmode@server@@QAE_NPBD@Z 0049f8e0 f i server1.obj
 0001:0009e930       ?leave@baseinfo@captureservmode@server@@QAE_NPBD@Z 0049f930 f i server1.obj
 0001:0009e9d0       ?occupy@baseinfo@captureservmode@server@@QAEHPBDH@Z 0049f9d0 f i server1.obj
 0001:0009eaf0       ?findscore@captureservmode@server@@QAEAAUscore@12@PBD@Z 0049faf0 f i server1.obj
 0001:0009ebc0       ?addbase@captureservmode@server@@QAEXHABUvec@@@Z 0049fbc0 f i server1.obj
 0001:0009edf0       ??0captureservmode@server@@QAE@XZ 0049fdf0 f i server1.obj
 0001:0009eea0       ?cleanup@captureservmode@server@@UAEXXZ 0049fea0 f i server1.obj
 0001:0009eed0       ?setup@captureservmode@server@@UAEXXZ 0049fed0 f i server1.obj
 0001:0009ef90       ?newmap@captureservmode@server@@UAEXXZ 0049ff90 f i server1.obj
 0001:0009efc0       ?stealbase@captureservmode@server@@QAEXHPBD@Z 0049ffc0 f i server1.obj
 0001:0009f120       ?replenishammo@captureservmode@server@@QAEXPAUclientinfo@2@@Z 004a0120 f i server1.obj
 0001:0009f2d0       ?movebases@captureservmode@server@@QAEXPBDABUvec@@_N12@Z 004a02d0 f i server1.obj
 0001:0009f430       ?addscore@captureservmode@server@@QAEXHPBDH@Z 004a0430 f i server1.obj
 0001:0009f470       ?regenowners@captureservmode@server@@QAEXAAUbaseinfo@12@H@Z 004a0470 f i server1.obj
 0001:0009f6b0       ?update@captureservmode@server@@UAEXXZ 004a06b0 f i server1.obj
 0001:0009f8a0       ?sendbaseinfo@captureservmode@server@@QAEXH@Z 004a08a0 f i server1.obj
 0001:0009f900       ?sendbases@captureservmode@server@@QAEXXZ 004a0900 f i server1.obj
 0001:0009fa10       ?initclient@captureservmode@server@@UAEXPAUclientinfo@2@AAUpacketbuf@@_N@Z 004a0a10 f i server1.obj
 0001:0009fb80       ?endcheck@captureservmode@server@@QAEXXZ 004a0b80 f i server1.obj
 0001:0009fc60       ?entergame@captureservmode@server@@UAEXPAUclientinfo@2@@Z 004a0c60 f i server1.obj
 0001:0009fcc0       ?spawned@captureservmode@server@@UAEXPAUclientinfo@2@@Z 004a0cc0 f i server1.obj
 0001:0009fd10       ?leavegame@captureservmode@server@@UAEXPAUclientinfo@2@_N@Z 004a0d10 f i server1.obj
 0001:0009fd70       ?died@captureservmode@server@@UAEXPAUclientinfo@2@0@Z 004a0d70 f i server1.obj
 0001:0009fdc0       ?canspawn@captureservmode@server@@UAE_NPAUclientinfo@2@_N@Z 004a0dc0 f i server1.obj
 0001:0009fe20       ?moved@captureservmode@server@@UAEXPAUclientinfo@2@ABUvec@@_N12@Z 004a0e20 f i server1.obj
 0001:0009fe40       ?changeteam@captureservmode@server@@UAEXPAUclientinfo@2@PBD1@Z 004a0e40 f i server1.obj
 0001:0009fec0       ?parsebases@captureservmode@server@@QAEXAAU?$databuf@E@@_N@Z 004a0ec0 f i server1.obj
 0001:0009ffe0       ?extinfoteam@captureservmode@server@@UAE_NPBDAAU?$databuf@E@@@Z 004a0fe0 f i server1.obj
 0001:000a00b0       ??_Ecaptureservmode@server@@UAEPAXI@Z 004a10b0 f i * CIL library *:* CIL module *
 0001:000a00b0       ??_Gctfservmode@server@@UAEPAXI@Z 004a10b0 f i server1.obj
 0001:000a00b0       ??_Gcaptureservmode@server@@UAEPAXI@Z 004a10b0 f i server1.obj
 0001:000a00b0       ??_Ectfservmode@server@@UAEPAXI@Z 004a10b0 f i * CIL library *:* CIL module *
 0001:000a00e0       ??1captureservmode@server@@UAE@XZ 004a10e0 f i server1.obj
 0001:000a00e0       ??1ctfservmode@server@@UAE@XZ 004a10e0 f i server1.obj
 0001:000a0170       ?reset@flag@ctfservmode@server@@QAEXXZ 004a1170 f i server1.obj
 0001:000a01e0       ?addflag@ctfservmode@server@@QAE_NHABUvec@@HH@Z 004a11e0 f i server1.obj
 0001:000a02b0       ?addholdspawn@ctfservmode@server@@QAE_NABUvec@@@Z 004a12b0 f i server1.obj
 0001:000a0340       ?ownflag@ctfservmode@server@@QAEXHHH@Z 004a1340 f i server1.obj
 0001:000a0390       ?dropflag@ctfservmode@server@@QAEXHABUvec@@HH_N@Z 004a1390 f i server1.obj
 0001:000a0400       ?returnflag@ctfservmode@server@@QAEXHH@Z 004a1400 f i server1.obj
 0001:000a0430       ??0ctfservmode@server@@QAE@XZ 004a1430 f i server1.obj
 0001:000a04e0       ?cleanup@ctfservmode@server@@UAEXXZ 004a14e0 f i server1.obj
 0001:000a0520       ?setupholdspawns@ctfservmode@server@@QAEXXZ 004a1520 f i server1.obj
 0001:000a05d0       ?setup@ctfservmode@server@@UAEXXZ 004a15d0 f i server1.obj
 0001:000a0720       ?newmap@ctfservmode@server@@UAEXXZ 004a1720 f i server1.obj
 0001:000a0760       ?dropflag@ctfservmode@server@@QAEXPAUclientinfo@2@0@Z 004a1760 f i server1.obj
 0001:000a0990       ?leavegame@ctfservmode@server@@UAEXPAUclientinfo@2@_N@Z 004a1990 f i server1.obj
 0001:000a09e0       ?died@ctfservmode@server@@UAEXPAUclientinfo@2@0@Z 004a19e0 f i server1.obj
 0001:000a0a90       ?canspawn@ctfservmode@server@@UAE_NPAUclientinfo@2@_N@Z 004a1a90 f i server1.obj
 0001:000a0af0       ?canchangeteam@ctfservmode@server@@UAE_NPAUclientinfo@2@PBD1@Z 004a1af0 f i server1.obj
 0001:000a0af0       ?canchangeteam@collectservmode@server@@UAE_NPAUclientinfo@2@PBD1@Z 004a1af0 f i server1.obj
 0001:000a0b80       ?changeteam@ctfservmode@server@@UAEXPAUclientinfo@2@PBD1@Z 004a1b80 f i server1.obj
 0001:000a0b90       ?spawnflag@ctfservmode@server@@QAEXH@Z 004a1b90 f i server1.obj
 0001:000a0c90       ?scoreflag@ctfservmode@server@@QAEXPAUclientinfo@2@HH@Z 004a1c90 f i server1.obj
 0001:000a0f40       ?takeflag@ctfservmode@server@@QAEXPAUclientinfo@2@HH@Z 004a1f40 f i server1.obj
 0001:000a1250       ?update@ctfservmode@server@@UAEXXZ 004a2250 f i server1.obj
 0001:000a14a0       ?initclient@ctfservmode@server@@UAEXPAUclientinfo@2@AAUpacketbuf@@_N@Z 004a24a0 f i server1.obj
 0001:000a15a0       ?parseflags@ctfservmode@server@@QAEXAAU?$databuf@E@@_N@Z 004a25a0 f i server1.obj
 0001:000a16f0       ?addbase@collectservmode@server@@QAE_NHABUvec@@H@Z 004a26f0 f i server1.obj
 0001:000a1780       ?droptoken@collectservmode@server@@QAEAAUtoken@12@ABUvec@@HHHH@Z 004a2780 f i server1.obj
 0001:000a17e0       ?addscore@collectservmode@server@@QAEHHH@Z 004a27e0 f i server1.obj
 0001:000a1810       ??0collectservmode@server@@QAE@XZ 004a2810 f i server1.obj
 0001:000a18c0       ?cleanup@collectservmode@server@@UAEXXZ 004a28c0 f i server1.obj
 0001:000a1910       ?setup@collectservmode@server@@UAEXXZ 004a2910 f i server1.obj
 0001:000a19d0       ?newmap@collectservmode@server@@UAEXXZ 004a29d0 f i server1.obj
 0001:000a1a20       ?droptokens@collectservmode@server@@QAEXPAUclientinfo@2@_N@Z 004a2a20 f i server1.obj
 0001:000a1e60       ?leavegame@collectservmode@server@@UAEXPAUclientinfo@2@_N@Z 004a2e60 f i server1.obj
 0001:000a2170       ?died@collectservmode@server@@UAEXPAUclientinfo@2@0@Z 004a3170 f i server1.obj
 0001:000a2200       ?canspawn@collectservmode@server@@UAE_NPAUclientinfo@2@_N@Z 004a3200 f i server1.obj
 0001:000a2240       ?deposittokens@collectservmode@server@@QAEXPAUclientinfo@2@H@Z 004a3240 f i server1.obj
 0001:000a2510       ?taketoken@collectservmode@server@@QAEXPAUclientinfo@2@H@Z 004a3510 f i server1.obj
 0001:000a2640       ?update@collectservmode@server@@UAEXXZ 004a3640 f i server1.obj
 0001:000a2760       ?initclient@collectservmode@server@@UAEXPAUclientinfo@2@AAUpacketbuf@@_N@Z 004a3760 f i server1.obj
 0001:000a2890       ?parsebases@collectservmode@server@@QAEXAAU?$databuf@E@@_N@Z 004a3890 f i server1.obj
 0001:000a2940       ??_Gcollectservmode@server@@UAEPAXI@Z 004a3940 f i server1.obj
 0001:000a2940       ??_Ecollectservmode@server@@UAEPAXI@Z 004a3940 f i * CIL library *:* CIL module *
 0001:000a2970       ??1collectservmode@server@@UAE@XZ 004a3970 f i server1.obj
 0001:000a2a00       ??1userinfo@server@@QAE@XZ 004a3a00 f i server1.obj
 0001:000a2a40       ??0msgfilter@server@@QAA@HZZ 004a3a40 f i server1.obj
 0001:000a2a90       ?compare@crcinfo@server@@SA_NABU12@0@Z 004a3a90 f i server1.obj
 0001:000a2ab0       ??0shotevent@server@@QAE@XZ 004a3ab0 f i server1.obj
 0001:000a2b20       ??0explodeevent@server@@QAE@XZ 004a3b20 f i server1.obj
 0001:000a2b90       ??_Gsuicideevent@server@@UAEPAXI@Z 004a3b90 f i server1.obj
 0001:000a2b90       ??_Epickupevent@server@@UAEPAXI@Z 004a3b90 f i * CIL library *:* CIL module *
 0001:000a2b90       ??_Esuicideevent@server@@UAEPAXI@Z 004a3b90 f i * CIL library *:* CIL module *
 0001:000a2b90       ??_Gtimedevent@server@@UAEPAXI@Z 004a3b90 f i server1.obj
 0001:000a2b90       ??_Etimedevent@server@@UAEPAXI@Z 004a3b90 f i * CIL library *:* CIL module *
 0001:000a2b90       ??_Gpickupevent@server@@UAEPAXI@Z 004a3b90 f i server1.obj
 0001:000a2be0       ??_Gshotevent@server@@UAEPAXI@Z 004a3be0 f i server1.obj
 0001:000a2be0       ??_Eshotevent@server@@UAEPAXI@Z 004a3be0 f i * CIL library *:* CIL module *
 0001:000a2c60       ??1timedevent@server@@UAE@XZ 004a3c60 f i server1.obj
 0001:000a2ca0       ??_Gexplodeevent@server@@UAEPAXI@Z 004a3ca0 f i server1.obj
 0001:000a2ca0       ??_Eexplodeevent@server@@UAEPAXI@Z 004a3ca0 f i * CIL library *:* CIL module *
 0001:000a2d20       ?add@?$vector@Uhitinfo@server@@@@QAEAAUhitinfo@server@@XZ 004a3d20 f i server1.obj
 0001:000a2d80       ?add@?$projectilestate@$07@server@@QAEXH@Z 004a3d80 f i server1.obj
 0001:000a2da0       ?remove@?$vector@Uneedfile@server@@@@QAE?AUneedfile@server@@H@Z 004a3da0 f i server1.obj
 0001:000a2df0       ?removeobj@?$vector@I@@QAEXABI@Z 004a3df0 f i server1.obj
 0001:000a2e50       ?add@?$vector@Uban@server@@@@QAEAAUban@server@@ABU23@@Z 004a3e50 f i server1.obj
 0001:000a2eb0       ?remove@?$vector@Uban@server@@@@QAE?AUban@server@@H@Z 004a3eb0 f i server1.obj
 0001:000a2f20       ?insert@?$vector@Uban@server@@@@QAEAAUban@server@@HABU23@@Z 004a3f20 f i server1.obj
 0001:000a2fb0       ?remove@?$vector@Udemofile@server@@@@QAEXHH@Z 004a3fb0 f i server1.obj
 0001:000a3020       ?remove@?$vector@Udemofile@server@@@@QAE?AUdemofile@server@@H@Z 004a4020 f i server1.obj
 0001:000a30b0       ?add@?$vector@Uteamkillinfo@server@@@@QAEAAUteamkillinfo@server@@XZ 004a40b0 f i server1.obj
 0001:000a30e0       ?add@?$vector@Userver_entity@server@@@@QAEAAUserver_entity@server@@ABU23@@Z 004a40e0 f i server1.obj
 0001:000a3140       ?inrange@?$vector@Userver_entity@server@@@@QBE_NH@Z 004a4140 f i server1.obj
 0001:000a3160       ?add@?$vector@Ubase@collectservmode@server@@@@QAEAAUbase@collectservmode@server@@XZ 004a4160 f i server1.obj
 0001:000a3200       ?add@?$vector@Utoken@collectservmode@server@@@@QAEAAUtoken@collectservmode@server@@XZ 004a4200 f i server1.obj
 0001:000a32a0       ??0?$hashset@Uuserinfo@server@@@@QAE@H@Z 004a42a0 f i server1.obj
 0001:000a3330       ?clear@?$hashset@Uuserinfo@server@@@@QAEXXZ 004a4330 f i server1.obj
 0001:000a33e0       ?add@?$vector@Uworldstate@server@@@@QAEAAUworldstate@server@@XZ 004a43e0 f i server1.obj
 0001:000a3470       ?remove@?$vector@Uservcmd@server@@@@QAE?AUservcmd@server@@H@Z 004a4470 f i server1.obj
 0001:000a3500       ?growbuf@?$vector@Uneedfile@server@@@@QAEXH@Z 004a4500 f i server1.obj
 0001:000a3580       ?growbuf@?$vector@Uban@server@@@@QAEXH@Z 004a4580 f i server1.obj
 0001:000a3610       ?growbuf@?$vector@Umaprotation@server@@@@QAEXH@Z 004a4610 f i server1.obj
 0001:000a36a0       ?growbuf@?$vector@Udemofile@server@@@@QAEXH@Z 004a46a0 f i server1.obj
 0001:000a3730       ?growbuf@?$vector@Uteamkillkick@server@@@@QAEXH@Z 004a4730 f i server1.obj
 0001:000a37c0       ?growbuf@?$vector@Uteamkillinfo@server@@@@QAEXH@Z 004a47c0 f i server1.obj
 0001:000a3850       ?growbuf@?$vector@Userver_entity@server@@@@QAEXH@Z 004a4850 f i server1.obj
 0001:000a38e0       ?growbuf@?$vector@Usavedscore@server@@@@QAEXH@Z 004a48e0 f i server1.obj
 0001:000a3970       ?growbuf@?$vector@Uon_shutdown@server@@@@QAEXH@Z 004a4970 f i server1.obj
 0001:000a3a00       ?growbuf@?$vector@Uon_scoreflag@server@@@@QAEXH@Z 004a4a00 f i server1.obj
 0001:000a3a90       ?growbuf@?$vector@Ubaseinfo@captureservmode@server@@@@QAEXH@Z 004a4a90 f i server1.obj
 0001:000a3b10       ?deletechunks@?$hashset@Uuserinfo@server@@@@QAEXXZ 004a4b10 f i server1.obj
 0001:000a3b80       ?growbuf@?$vector@Uon_setmaster@server@@@@QAEXH@Z 004a4b80 f i server1.obj
 0001:000a3c10       ?growbuf@?$vector@Uon_kick@server@@@@QAEXH@Z 004a4c10 f i server1.obj
 0001:000a3ca0       ?growbuf@?$vector@Uworldstate@server@@@@QAEXH@Z 004a4ca0 f i server1.obj
 0001:000a3d30       ?growbuf@?$vector@Uon_changemap@server@@@@QAEXH@Z 004a4d30 f i server1.obj
 0001:000a3dc0       ?growbuf@?$vector@Uon_intermission@server@@@@QAEXH@Z 004a4dc0 f i server1.obj
 0001:000a3e50       ?growbuf@?$vector@Uon_frag@server@@@@QAEXH@Z 004a4e50 f i server1.obj
 0001:000a3ee0       ?growbuf@?$vector@Ugbaninfo@server@@@@QAEXH@Z 004a4ee0 f i server1.obj
 0001:000a3f70       ?growbuf@?$vector@Uservcmd@server@@@@QAEXH@Z 004a4f70 f i server1.obj
 0001:000a4000       ?growbuf@?$vector@Uon_connect@server@@@@QAEXH@Z 004a5000 f i server1.obj
 0001:000a4090       ?growbuf@?$vector@Uon_switchname@server@@@@QAEXH@Z 004a5090 f i server1.obj
 0001:000a4120       ??1chain@?$hashset@Uuserinfo@server@@@@QAE@XZ 004a5120 f i server1.obj
 0001:000a4190       ??$remove@$$BY04D@?$hashset@Uteaminfo@@@@QAE_NAAY04$$CBD@Z 004a5190 f i server1.obj
 0001:000a4230       ??$?AUuserkey@server@@@?$hashset@Uuserinfo@server@@@@QAEAAUuserinfo@server@@ABUuserkey@2@@Z 004a5230 f i server1.obj
 0001:000a42f0       ??$sendstate@Upacketbuf@@@server@@YAXAAUgamestate@0@AAUpacketbuf@@@Z 004a52f0 f i server1.obj
 0001:000a4360       ??$access@Uuserkey@server@@@?$hashset@Uuserinfo@server@@@@QAEPAUuserinfo@server@@ABUuserkey@2@@Z 004a5360 f i server1.obj
 0001:000a4420       ??$sendstate@U?$vector@E@@@server@@YAXAAUgamestate@0@AAU?$vector@E@@@Z 004a5420 f i server1.obj
 0001:000a4490       ??$htfind@$$BY0BAE@D@?$vector@Uteamscore@@@@QAEHAAY0BAE@$$CBD@Z 004a5490 f i server1.obj
 0001:000a44f0       ??$htfind@PBD@?$vector@Uteamscore@@@@QAEHABQBD@Z 004a54f0 f i server1.obj
 0001:000a4560       ?insert@?$hashset@Uuserinfo@server@@@@QAEPAUchain@1@I@Z 004a5560 f i server1.obj
 0001:000a4710       ??0chain@?$hashset@Uuserinfo@server@@@@QAE@XZ 004a5710 f i server1.obj
 0001:000a475e       ___WSAFDIsSet@8            004a575e f   ws2_32:WS2_32.dll
 0001:000a4764       ___onexitinit              004a5764 f   LIBCMT:onexit.obj
 0001:000a4793       __onexit                   004a5793 f   LIBCMT:onexit.obj
 0001:000a488f       _atexit                    004a588f f   LIBCMT:onexit.obj
 0001:000a48a4       __vsnprintf                004a58a4 f   LIBCMT:vsnprint.obj
 0001:000a48bf       __vsnprintf_l              004a58bf f   LIBCMT:vsnprint.obj
 0001:000a4970       _strncmp                   004a5970 f   LIBCMT:strncmp.obj
 0001:000a49e8       ??_L@YGXPAXIHP6EX0@Z1@Z    004a59e8 f   LIBCMT:ehvecctr.obj
 0001:000a4a4a       ??_M@YGXPAXIHP6EX0@Z@Z     004a5a4a f   LIBCMT:ehvecdtr.obj
 0001:000a4ab9       ?__ArrayUnwind@@YGXPAXIHP6EX0@Z@Z 004a5ab9 f   LIBCMT:ehvecdtr.obj
 0001:000a4b20       _memmove                   004a5b20 f   LIBCMT:memmove.obj
 0001:000a5170       _strrchr                   004a6170 f   LIBCMT:strrchr.obj
 0001:000a52b0       _strpbrk                   004a62b0 f   LIBCMT:strpbrk.obj
 0001:000a52f0       __purecall                 004a62f0 f   LIBCMT:purevirt.obj
 0001:000a5312       ??1type_info@@UAE@XZ       004a6312 f   LIBCMT:typinfo.obj
 0001:000a5320       ??8type_info@@QBE_NABV0@@Z 004a6320 f   LIBCMT:typinfo.obj
 0001:000a533e       ??_Gtype_info@@UAEPAXI@Z   004a633e f i LIBCMT:typinfo.obj
 0001:000a533e       ??_Etype_info@@UAEPAXI@Z   004a633e f i LIBCMT:typinfo.obj
 0001:000a535d       __get_printf_count_output  004a635d f   LIBCMT:printf.obj
 0001:000a5372       _printf                    004a6372 f   LIBCMT:printf.obj
 0001:000a5430       _strstr                    004a6430 f   LIBCMT:strstr.obj
 0001:000a5693       _remove                    004a6693 f   LIBCMT:unlink.obj
 0001:000a56d5       _rename                    004a66d5 f   LIBCMT:rename.obj
 0001:000a5798       __fclose_nolock            004a6798 f   LIBCMT:fclose.obj
 0001:000a5804       _fclose                    004a6804 f   LIBCMT:fclose.obj
 0001:000a587b       __fsopen                   004a687b f   LIBCMT:fopen.obj
 0001:000a593f       _fopen                     004a693f f   LIBCMT:fopen.obj
 0001:000a5954       _setvbuf                   004a6954 f   LIBCMT:setvbuf.obj
 0001:000a5a5a       __fwrite_nolock            004a6a5a f   LIBCMT:fwrite.obj
 0001:000a5bb3       _fwrite                    004a6bb3 f   LIBCMT:fwrite.obj
 0001:000a5c35       ??0_LocaleUpdate@@QAE@PAUlocaleinfo_struct@@@Z 004a6c35 f i LIBCMT:_ctype.obj
 0001:000a5cbd       __isalpha_l                004a6cbd f i LIBCMT:_ctype.obj
 0001:000a5d15       __isdigit_l                004a6d15 f i LIBCMT:_ctype.obj
 0001:000a5d67       __isspace_l                004a6d67 f i LIBCMT:_ctype.obj
 0001:000a5db9       __isxdigit_l               004a6db9 f i LIBCMT:_ctype.obj
 0001:000a5e11       _isalpha                   004a6e11 f i LIBCMT:_ctype.obj
 0001:000a5e3e       _isdigit                   004a6e3e f i LIBCMT:_ctype.obj
 0001:000a5e69       _isspace                   004a6e69 f i LIBCMT:_ctype.obj
 0001:000a5e94       _isxdigit                  004a6e94 f i LIBCMT:_ctype.obj
 0001:000a5ed0       _memchr                    004a6ed0 f   LIBCMT:memchr.obj
 0001:000a5f7d       ___copy_path_to_wide_string 004a6f7d f   LIBCMT:crt0dat.obj
 0001:000a602f       ___crtCorExitProcess       004a702f f   LIBCMT:crt0dat.obj
 0001:000a6063       ___crtExitProcess          004a7063 f   LIBCMT:crt0dat.obj
 0001:000a6079       __amsg_exit                004a7079 f   LIBCMT:crt0dat.obj
 0001:000a6095       __c_exit                   004a7095 f   LIBCMT:crt0dat.obj
 0001:000a60a4       __cexit                    004a70a4 f   LIBCMT:crt0dat.obj
 0001:000a60b3       __cinit                    004a70b3 f   LIBCMT:crt0dat.obj
 0001:000a6137       __exit                     004a7137 f   LIBCMT:crt0dat.obj
 0001:000a614b       __init_pointers            004a714b f   LIBCMT:crt0dat.obj
 0001:000a61b9       __initterm_e               004a71b9 f   LIBCMT:crt0dat.obj
 0001:000a61db       __lockexit                 004a71db f   LIBCMT:crt0dat.obj
 0001:000a61e4       __unlockexit               004a71e4 f   LIBCMT:crt0dat.obj
 0001:000a631c       _exit                      004a731c f   LIBCMT:crt0dat.obj
 0001:000a6330       _atoi                      004a7330 f   LIBCMT:atox.obj
 0001:000a6339       _atol                      004a7339 f   LIBCMT:atox.obj
 0001:000a634d       _sscanf                    004a734d f   LIBCMT:sscanf.obj
 0001:000a63de       __time64                   004a73de f   LIBCMT:time64.obj
 0001:000a642f       __localtime64              004a742f f   LIBCMT:loctim64.obj
 0001:000a6454       __localtime64_s            004a7454 f   LIBCMT:loctim64.obj
 0001:000a66ce       __Strftime_l               004a76ce f   LIBCMT:strftime.obj
 0001:000a67f1       _strftime                  004a77f1 f   LIBCMT:strftime.obj
 0001:000a680e       __tolower_l                004a780e f   LIBCMT:tolower.obj
 0001:000a6951       _tolower                   004a7951 f   LIBCMT:tolower.obj
 0001:000a6980       _strchr                    004a7980 f   LIBCMT:strchr.obj
 0001:000a69ee       ___from_strstr_to_strchr   004a79ee     LIBCMT:strchr.obj
 0001:000a6aab       __strtod_l                 004a7aab f   LIBCMT:strtod.obj
 0001:000a6bc2       _strtod                    004a7bc2 f   LIBCMT:strtod.obj
 0001:000a6bd7       ___ascii_stricmp           004a7bd7 f   LIBCMT:stricmp.obj
 0001:000a6c10       __stricmp                  004a7c10 f   LIBCMT:stricmp.obj
 0001:000a6c57       __stricmp_l                004a7c57 f   LIBCMT:stricmp.obj
 0001:000a6f12       _strtol                    004a7f12 f   LIBCMT:strtol.obj
 0001:000a6f3c       _strtoul                   004a7f3c f   LIBCMT:strtol.obj
 0001:000a6f70       _strspn                    004a7f70 f   LIBCMT:strspn.obj
 0001:000a6fb6       _fputs                     004a7fb6 f   LIBCMT:fputs.obj
 0001:000a70c0       _fprintf                   004a80c0 f   LIBCMT:fprintf.obj
 0001:000a71d2       _fputc                     004a81d2 f   LIBCMT:fputc.obj
 0001:000a72e0       _strcspn                   004a82e0 f   LIBCMT:strcspn.obj
 0001:000a7326       __atof_l                   004a8326 f   LIBCMT:atof.obj
 0001:000a73c4       _atof                      004a83c4 f   LIBCMT:atof.obj
 0001:000a73d5       _wcsncpy                   004a83d5 f   LIBCMT:wcsncpy.obj
 0001:000a7415       __toupper_l                004a8415 f   LIBCMT:toupper.obj
 0001:000a7559       _toupper                   004a8559 f   LIBCMT:toupper.obj
 0001:000a7585       __vscprintf                004a8585 f   LIBCMT:vsprintf.obj
 0001:000a759f       __vscprintf_helper         004a859f f   LIBCMT:vsprintf.obj
 0001:000a75fb       _feof                      004a85fb f   LIBCMT:feoferr.obj
 0001:000a7621       __ftelli64                 004a8621 f   LIBCMT:ftelli64.obj
 0001:000a769c       __ftelli64_nolock          004a869c f   LIBCMT:ftelli64.obj
 0001:000a7a71       __fseeki64                 004a8a71 f   LIBCMT:fseeki64.obj
 0001:000a7af7       __fseeki64_nolock          004a8af7 f   LIBCMT:fseeki64.obj
 0001:000a7ba8       __fread_nolock_s           004a8ba8 f   LIBCMT:fread.obj
 0001:000a7d6d       _fread                     004a8d6d f   LIBCMT:fread.obj
 0001:000a7d88       _fread_s                   004a8d88 f   LIBCMT:fread.obj
 0001:000a7e19       __fflush_nolock            004a8e19 f   LIBCMT:fflush.obj
 0001:000a7e5f       __flush                    004a8e5f f   LIBCMT:fflush.obj
 0001:000a7ec3       __flushall                 004a8ec3 f   LIBCMT:fflush.obj
 0001:000a7ecc       _fflush                    004a8ecc f   LIBCMT:fflush.obj
 0001:000a8009       _fgetc                     004a9009 f   LIBCMT:fgetc.obj
 0001:000a8102       _fgets                     004a9102 f   LIBCMT:fgets.obj
 0001:000a8241       _vfprintf                  004a9241 f   LIBCMT:vfprintf.obj
 0001:000a825e       _vfprintf_helper           004a925e f   LIBCMT:vfprintf.obj
 0001:000a836f       _malloc                    004a936f f   LIBCMT:malloc.obj
 0001:000a8401       __set_abort_behavior       004a9401 f   LIBCMT:abort.obj
 0001:000a8420       _abort                     004a9420 f   LIBCMT:abort.obj
 0001:000a8463       _free                      004a9463 f   LIBCMT:free.obj
 0001:000a849b       __fseek_nolock             004a949b f   LIBCMT:fseek.obj
 0001:000a852a       _fseek                     004a952a f   LIBCMT:fseek.obj
 0001:000a85ad       __ftell_nolock             004a95ad f   LIBCMT:ftell.obj
 0001:000a893d       _ftell                     004a993d f   LIBCMT:ftell.obj
 0001:000a89a9       __ctime64                  004a99a9 f   LIBCMT:ctime64.obj
 0001:000a8a16       _WinMainCRTStartup         004a9a16 f   LIBCMT:wincrt0.obj
 0001:000a8ba0       _memset                    004a9ba0 f   LIBCMT:memset.obj
 0001:000a8c30       _strlen                    004a9c30 f   LIBCMT:strlen.obj
 0001:000a8cc0       _memcpy                    004a9cc0 f   LIBCMT:memcpy.obj
 0001:000a9304       __msize                    004aa304 f   LIBCMT:msize.obj
 0001:000a9335       __calloc_crt               004aa335 f   LIBCMT:crtheap.obj
 0001:000a937d       __malloc_crt               004aa37d f   LIBCMT:crtheap.obj
 0001:000a93c4       __realloc_crt              004aa3c4 f   LIBCMT:crtheap.obj
 0001:000a940e       __recalloc_crt             004aa40e f   LIBCMT:crtheap.obj
 0001:000a9460       __SEH_prolog4              004aa460 f   LIBCMT:sehprolg4.obj
 0001:000a94a5       __SEH_epilog4              004aa4a5 f   LIBCMT:sehprolg4.obj
 0001:000a94c0       __except_handler4          004aa4c0 f   LIBCMT:chandler4.obj
 0001:000a9654       __call_reportfault         004aa654 f   LIBCMT:invarg.obj
 0001:000a9779       __initp_misc_invarg        004aa779 f   LIBCMT:invarg.obj
 0001:000a9786       __invalid_parameter        004aa786 f   LIBCMT:invarg.obj
 0001:000a97b1       __invalid_parameter_noinfo 004aa7b1 f   LIBCMT:invarg.obj
 0001:000a97c1       __invoke_watson            004aa7c1 f   LIBCMT:invarg.obj
 0001:000a97ec       __flsbuf                   004aa7ec f   LIBCMT:_flsbuf.obj
 0001:000a993b       __output_l                 004aa93b f   LIBCMT:output.obj
 0001:000aa5a7       ___doserrno                004ab5a7 f   LIBCMT:dosmap.obj
 0001:000aa5ba       __dosmaperr                004ab5ba f   LIBCMT:dosmap.obj
 0001:000aa5db       __errno                    004ab5db f   LIBCMT:dosmap.obj
 0001:000aa5ee       __get_errno_from_oserr     004ab5ee f   LIBCMT:dosmap.obj
 0001:000aa62f       ?_inconsistency@@YAXXZ     004ab62f f   LIBCMT:hooks.obj
 0001:000aa667       ?terminate@@YAXXZ          004ab667 f   LIBCMT:hooks.obj
 0001:000aa69b       ?unexpected@@YAXXZ         004ab69b f   LIBCMT:hooks.obj
 0001:000aa6ae       __initp_eh_hooks           004ab6ae f   LIBCMT:hooks.obj
 0001:000aa6bf       ___isa_available_init      004ab6bf f   LIBCMT:cpu_disp.obj
 0001:000aa838       __initp_misc_purevirt      004ab838 f   LIBCMT:inithelp.obj
 0001:000aa850       _strcmp                    004ab850 f   LIBCMT:strcmp.obj
 0001:000aa8dc       ?_Type_info_dtor@type_info@@CAXPAV1@@Z 004ab8dc f   LIBCMT:typname.obj
 0001:000aa94d       ___initstdio               004ab94d f   LIBCMT:_file.obj
 0001:000aa9c0       ___endstdio                004ab9c0 f   LIBCMT:_file.obj
 0001:000aa9e7       ___iob_func                004ab9e7 f   LIBCMT:_file.obj
 0001:000aa9ed       __lock_file                004ab9ed f   LIBCMT:_file.obj
 0001:000aaa2c       __lock_file2               004aba2c f   LIBCMT:_file.obj
 0001:000aaa5c       __unlock_file              004aba5c f   LIBCMT:_file.obj
 0001:000aaa96       __unlock_file2             004aba96 f   LIBCMT:_file.obj
 0001:000aaac3       __ftbuf                    004abac3 f   LIBCMT:_sftbuf.obj
 0001:000aaaf4       __stbuf                    004abaf4 f   LIBCMT:_sftbuf.obj
 0001:000aab9a       __wremove                  004abb9a f   LIBCMT:wunlink.obj
 0001:000aabc8       __wrename                  004abbc8 f   LIBCMT:wrename.obj
 0001:000aabfb       ___crtFlsAlloc             004abbfb f   LIBCMT:winapisupp.obj
 0001:000aac19       ___crtFlsFree              004abc19 f   LIBCMT:winapisupp.obj
 0001:000aac38       ___crtFlsGetValue          004abc38 f   LIBCMT:winapisupp.obj
 0001:000aac57       ___crtFlsSetValue          004abc57 f   LIBCMT:winapisupp.obj
 0001:000aac79       ___crtGetShowWindowMode    004abc79 f   LIBCMT:winapisupp.obj
 0001:000aac9c       ___crtInitializeCriticalSectionEx 004abc9c f   LIBCMT:winapisupp.obj
 0001:000aacca       ___crtIsPackagedApp        004abcca f   LIBCMT:winapisupp.obj
 0001:000aad0a       ___crtLoadWinApiPointers   004abd0a f   LIBCMT:winapisupp.obj
 0001:000aaf95       ___crtSetUnhandledExceptionFilter 004abf95 f   LIBCMT:winapisupp.obj
 0001:000aafa3       ___crtSleep                004abfa3 f   LIBCMT:winapisupp.obj
 0001:000aafb1       ___crtTerminateProcess     004abfb1 f   LIBCMT:winapisupp.obj
 0001:000aafc6       ___crtUnhandledException   004abfc6 f   LIBCMT:winapisupp.obj
 0001:000aafdc       __fileno                   004abfdc f   LIBCMT:fileno.obj
 0001:000ab000       __close                    004ac000 f   LIBCMT:close.obj
 0001:000ab0db       __close_nolock             004ac0db f   LIBCMT:close.obj
 0001:000ab175       __freebuf                  004ac175 f   LIBCMT:_freebuf.obj
 0001:000ab1a5       __getstream                004ac1a5 f   LIBCMT:stream.obj
 0001:000ab2c4       __openfile                 004ac2c4 f   LIBCMT:_open.obj
 0001:000ab540       __local_unwind4            004ac540 f   LIBCMT:exsup4.obj
 0001:000ab616       __seh_longjmp_unwind4@4    004ac616 f   LIBCMT:exsup4.obj
 0001:000ab632       @_EH4_CallFilterFunc@8     004ac632 f   LIBCMT:exsup4.obj
 0001:000ab649       @_EH4_TransferToHandler@8  004ac649 f   LIBCMT:exsup4.obj
 0001:000ab662       @_EH4_GlobalUnwind2@8      004ac662 f   LIBCMT:exsup4.obj
 0001:000ab67b       @_EH4_LocalUnwind@16       004ac67b f   LIBCMT:exsup4.obj
 0001:000ab692       __write                    004ac692 f   LIBCMT:write.obj
 0001:000ab781       __write_nolock             004ac781 f   LIBCMT:write.obj
 0001:000abfe6       ___addlocaleref            004acfe6 f   LIBCMT:localref.obj
 0001:000ac07b       ___freetlocinfo            004ad07b f   LIBCMT:localref.obj
 0001:000ac1d5       ___removelocaleref         004ad1d5 f   LIBCMT:localref.obj
 0001:000ac275       ___updatetlocinfo          004ad275 f   LIBCMT:localref.obj
 0001:000ac2f5       __updatetlocinfoEx_nolock  004ad2f5 f   LIBCMT:localref.obj
 0001:000ac340       ___initmbctable            004ad340 f   LIBCMT:mbctype.obj
 0001:000ac5f7       ___updatetmbcinfo          004ad5f7 f   LIBCMT:mbctype.obj
 0001:000ac69d       __setmbcp                  004ad69d f   LIBCMT:mbctype.obj
 0001:000ac845       __setmbcp_nolock           004ad845 f   LIBCMT:mbctype.obj
 0001:000aca30       __isctype_l                004ada30 f   LIBCMT:isctype.obj
 0001:000acae1       __freefls@4                004adae1 f   LIBCMT:tidtable.obj
 0001:000acc16       __getptd                   004adc16 f   LIBCMT:tidtable.obj
 0001:000acc2e       __getptd_noexit            004adc2e f   LIBCMT:tidtable.obj
 0001:000acc9d       __initptd                  004adc9d f   LIBCMT:tidtable.obj
 0001:000acd50       __mtinit                   004add50 f   LIBCMT:tidtable.obj
 0001:000acdc6       __mtterm                   004addc6 f   LIBCMT:tidtable.obj
 0001:000acde3       __locterm                  004adde3 f   LIBCMT:wsetloca.obj
 0001:000ace35       __RTC_Initialize           004ade35 f   LIBCMT:initsect.obj
 0001:000ace55       __RTC_Terminate            004ade55 f   LIBCMT:initsect.obj
 0001:000ace75       __lock                     004ade75 f   LIBCMT:mlock.obj
 0001:000acea9       __mtdeletelocks            004adea9 f   LIBCMT:mlock.obj
 0001:000acefd       __mtinitlocknum            004adefd f   LIBCMT:mlock.obj
 0001:000acfa6       __mtinitlocks              004adfa6 f   LIBCMT:mlock.obj
 0001:000acfdf       __unlock                   004adfdf f   LIBCMT:mlock.obj
 0001:000acff4       __FF_MSGBANNER             004adff4 f   LIBCMT:crt0msg.obj
 0001:000ad02d       __GET_RTERRMSG             004ae02d f   LIBCMT:crt0msg.obj
 0001:000ad051       __NMSG_WRITE               004ae051 f   LIBCMT:crt0msg.obj
 0001:000ad210       __FindPESection            004ae210 f   LIBCMT:pesect.obj
 0001:000ad260       __IsNonwritableInCurrentImage 004ae260 f   LIBCMT:pesect.obj
 0001:000ad320       __ValidateImageBase        004ae320 f   LIBCMT:pesect.obj
 0001:000ad351       __initp_misc_cfltcvt_tab   004ae351 f   LIBCMT:cmiscdat.obj
 0001:000ad370       __callnewh                 004ae370 f   LIBCMT:handler.obj
 0001:000ad396       __initp_heap_handler       004ae396 f   LIBCMT:handler.obj
 0001:000ad3a3       ___get_sigabrt             004ae3a3 f   LIBCMT:winsig.obj
 0001:000ad3b0       __initp_misc_winsig        004ae3b0 f   LIBCMT:winsig.obj
 0001:000ad3cc       _raise                     004ae3cc f   LIBCMT:winsig.obj
 0001:000ad5c1       __initp_misc_rand_s        004ae5c1 f   LIBCMT:rand_s.obj
 0001:000ad670       __input_l                  004ae670 f   LIBCMT:input.obj
 0001:000ae7f0       __aulldiv                  004af7f0 f   LIBCMT:ulldiv.obj
 0001:000ae858       ___daylight                004af858 f   LIBCMT:timeset.obj
 0001:000ae85e       ___dstbias                 004af85e f   LIBCMT:timeset.obj
 0001:000ae864       ___timezone                004af864 f   LIBCMT:timeset.obj
 0001:000ae86a       ___tzname                  004af86a f   LIBCMT:timeset.obj
 0001:000ae870       __get_daylight             004af870 f   LIBCMT:timeset.obj
 0001:000ae89a       __get_dstbias              004af89a f   LIBCMT:timeset.obj
 0001:000ae8c4       __get_timezone             004af8c4 f   LIBCMT:timeset.obj
 0001:000ae8ee       __gmtime64_s               004af8ee f   LIBCMT:gmtime64.obj
 0001:000aeb19       ___tzset                   004afb19 f   LIBCMT:tzset.obj
 0001:000aeb69       __isindst                  004afb69 f   LIBCMT:tzset.obj
 0001:000af2ad       ___getgmtimebuf            004b02ad f   LIBCMT:gmtime.obj
 0001:000af2f0       __alldiv                   004b02f0 f   LIBCMT:lldiv.obj
 0001:000af3a0       __allrem                   004b03a0 f   LIBCMT:llrem.obj
 0001:000af452       _strcpy_s                  004b0452 f   LIBCMT:strcpy_s.obj
 0001:000afec0       __Wcsftime_l               004b0ec0 f   LIBCMT:wcsftime.obj
 0001:000b0003       __freea                    004b1003 f i LIBCMT:wcsftime.obj
 0001:000b0021       __isleadbyte_l             004b1021 f i LIBCMT:_wctype.obj
 0001:000b005b       _isleadbyte                004b105b f i LIBCMT:_wctype.obj
 0001:000b0270       ___crtLCMapStringA         004b1270 f   LIBCMT:a_map.obj
 0001:000b02b6       __fltin2                   004b12b6 f   LIBCMT:cfin.obj
 0001:000b035d       @__security_check_cookie@4 004b135d f   LIBCMT:secchk.obj
 0001:000b0370       __fpmath                   004b1370 f   LIBCMT:fpinit.obj
 0001:000b0387       __cfltcvt_init             004b1387 f   LIBCMT:fpinit.obj
 0001:000b03e7       __ioinit                   004b13e7 f   LIBCMT:ioinit.obj
 0001:000b069b       ___strgtold12_l            004b169b f   LIBCMT:strgtold.obj
 0001:000b0e43       __lseeki64                 004b1e43 f   LIBCMT:lseeki64.obj
 0001:000b0f3f       __lseeki64_nolock          004b1f3f f   LIBCMT:lseeki64.obj
 0001:000b0fc0       __alloca_probe             004b1fc0 f   LIBCMT:chkstk.obj
 0001:000b0fc0       __chkstk                   004b1fc0 f   LIBCMT:chkstk.obj
 0001:000b0feb       __read                     004b1feb f   LIBCMT:read.obj
 0001:000b10ff       __read_nolock              004b20ff f   LIBCMT:read.obj
 0001:000b1890       __filbuf                   004b2890 f   LIBCMT:_filbuf.obj
 0001:000b19b1       _memcpy_s                  004b29b1 f   LIBCMT:memcpy_s.obj
 0001:000b1a30       __commit                   004b2a30 f   LIBCMT:commit.obj
 0001:000b1b19       __heap_init                004b2b19 f   LIBCMT:heapinit.obj
 0001:000b1b2e       __lseek                    004b2b2e f   LIBCMT:lseek.obj
 0001:000b1c1d       __lseek_nolock             004b2c1d f   LIBCMT:lseek.obj
 0001:000b1cc4       _asctime                   004b2cc4 f   LIBCMT:asctime.obj
 0001:000b1ed1       ?__CxxUnhandledExceptionFilter@@YGJPAU_EXCEPTION_POINTERS@@@Z 004b2ed1 f   LIBCMT:unhandld.obj
 0001:000b1f12       ___CxxSetUnhandledExceptionFilter 004b2f12 f   LIBCMT:unhandld.obj
 0001:000b1f20       __XcptFilter               004b2f20 f   LIBCMT:winxfltr.obj
 0001:000b207b       __setargv                  004b307b f   LIBCMT:stdargv.obj
 0001:000b22aa       __setenvp                  004b32aa f   LIBCMT:stdenvp.obj
 0001:000b238b       ___set_app_type            004b338b f   LIBCMT:errmode.obj
 0001:000b2398       __set_error_mode           004b3398 f   LIBCMT:errmode.obj
 0001:000b23d8       ___security_init_cookie    004b33d8 f   LIBCMT:gs_support.obj
 0001:000b2474       ___crtGetEnvironmentStringsA 004b3474 f   LIBCMT:a_env.obj
 0001:000b2501       __wincmdln                 004b3501 f   LIBCMT:wincmdln.obj
 0001:000b2560       __VEC_memset               004b3560 f   LIBCMT:p4_memset.obj
 0001:000b2628       _realloc                   004b3628 f   LIBCMT:realloc.obj
 0001:000b26d3       __recalloc                 004b36d3 f   LIBCMT:recalloc.obj
 0001:000b273c       __calloc_impl              004b373c f   LIBCMT:calloc_impl.obj
 0001:000b27b6       __crt_debugger_hook        004b37b6 f   LIBCMT:dbghook.obj
 0001:000b27be       __isatty                   004b37be f   LIBCMT:isatty.obj
 0001:000b2812       __getbuf                   004b3812 f   LIBCMT:_getbuf.obj
 0001:000b2858       __wctomb_s_l               004b3858 f   LIBCMT:wctomb.obj
 0001:000b297c       _wctomb_s                  004b397c f   LIBCMT:wctomb.obj
 0001:000b29a0       __aulldvrm                 004b39a0 f   LIBCMT:ulldvrm.obj
 0001:000b2a35       _strncpy_s                 004b3a35 f   LIBCMT:strncpy_s.obj
 0001:000b2ad9       _GetTableIndexFromLocaleName 004b3ad9 f   LIBCMT:winapinls.obj
 0001:000b2b27       ___crtCompareStringEx      004b3b27 f   LIBCMT:winapinls.obj
 0001:000b2b73       ___crtDownlevelLocaleNameToLCID 004b3b73 f   LIBCMT:winapinls.obj
 0001:000b2b9d       ___crtGetDateFormatEx      004b3b9d f   LIBCMT:winapinls.obj
 0001:000b2be6       ___crtGetTimeFormatEx      004b3be6 f   LIBCMT:winapinls.obj
 0001:000b2c1b       ___crtLCMapStringEx        004b3c1b f   LIBCMT:winapinls.obj
 0001:000b2c67       ___wcsnicmp_ascii          004b3c67 f   LIBCMT:winapinls.obj
 0001:000b2cd5       __fcloseall                004b3cd5 f   LIBCMT:closeall.obj
 0001:000b2d72       ___lock_fhandle            004b3d72 f   LIBCMT:osfinfo.obj
 0001:000b2e00       __alloc_osfhnd             004b3e00 f   LIBCMT:osfinfo.obj
 0001:000b2fa9       __free_osfhnd              004b3fa9 f   LIBCMT:osfinfo.obj
 0001:000b302f       __get_osfhandle            004b402f f   LIBCMT:osfinfo.obj
 0001:000b3096       __set_osfhnd               004b4096 f   LIBCMT:osfinfo.obj
 0001:000b3118       __unlock_fhandle           004b4118 f   LIBCMT:osfinfo.obj
 0001:000b313e       __sopen_helper             004b413e f   LIBCMT:open.obj
 0001:000b3207       __sopen_nolock             004b4207 f   LIBCMT:open.obj
 0001:000b3255       __sopen_s                  004b4255 f   LIBCMT:open.obj
 0001:000b3273       __mbsnbcmp                 004b4273 f   LIBCMT:mbsnbcmp.obj
 0001:000b328b       __mbsnbcmp_l               004b428b f   LIBCMT:mbsnbcmp.obj
 0001:000b33a2       __mbsnbicmp                004b43a2 f   LIBCMT:mbsnbicm.obj
 0001:000b33ba       __mbsnbicmp_l              004b43ba f   LIBCMT:mbsnbicm.obj
 0001:000b3580       __global_unwind2           004b4580 f   LIBCMT:exsup.obj
 0001:000b35e5       __local_unwind2            004b45e5 f   LIBCMT:exsup.obj
 0001:000b3669       __abnormal_termination     004b4669 f   LIBCMT:exsup.obj
 0001:000b368c       __NLG_Notify1              004b468c f   LIBCMT:exsup.obj
 0001:000b3695       __NLG_Notify               004b4695 f   LIBCMT:exsup.obj
 0001:000b36ac       __NLG_Dispatch2            004b46ac     LIBCMT:exsup.obj
 0001:000b36ac       __NLG_Dispatch             004b46ac     LIBCMT:exsup.obj
 0001:000b36b4       __NLG_Call                 004b46b4 f   LIBCMT:exsup.obj
 0001:000b36b6       __NLG_Return2              004b46b6     LIBCMT:exsup.obj
 0001:000b36b7       __mbtowc_l                 004b46b7 f   LIBCMT:mbtowc.obj
 0001:000b37ac       _mbtowc                    004b47ac f   LIBCMT:mbtowc.obj
 0001:000b37c4       __putwch_nolock            004b47c4 f   LIBCMT:putwch.obj
 0001:000b3807       ___free_lconv_mon          004b4807 f   LIBCMT:initmon.obj
 0001:000b3903       ___free_lconv_num          004b4903 f   LIBCMT:initnum.obj
 0001:000b396a       ___free_lc_time            004b496a f   LIBCMT:inittime.obj
 0001:000b3de2       ___crtGetStringTypeA       004b4de2 f   LIBCMT:a_str.obj
 0001:000b3e22       ____lc_codepage_func       004b4e22 f   LIBCMT:initctyp.obj
 0001:000b3e48       ___raise_securityfailure   004b4e48 f   LIBCMT:gs_report.obj
 0001:000b3e85       ___report_gsfailure        004b4e85 f   LIBCMT:gs_report.obj
 0001:000b3f80       _wcscat_s                  004b4f80 f   LIBCMT:wcscat_s.obj
 0001:000b3fec       _wcscpy_s                  004b4fec f   LIBCMT:wcscpy_s.obj
 0001:000b4048       _wcslen                    004b5048 f   LIBCMT:wcslen.obj
 0001:000b4061       _wcsnlen                   004b5061 f   LIBCMT:wcslen_s.obj
 0001:000b4080       _wcsncpy_s                 004b5080 f   LIBCMT:wcsncpy_s.obj
 0001:000b413e       ___crtMessageBoxW          004b513e f   LIBCMT:crtmboxw.obj
 0001:000b4324       __fptrap                   004b5324 f   LIBCMT:crt0fp.obj
 0001:000b432d       ___crt_atoflt_l            004b532d f   LIBCMT:atodbl.obj
 0001:000b43d1       __atodbl_l                 004b53d1 f   LIBCMT:atodbl.obj
 0001:000b445f       __atoflt_l                 004b545f f   LIBCMT:atodbl.obj
 0001:000b4480       __allmul                   004b5480 f   LIBCMT:llmul.obj
 0001:000b44b4       __ungetc_nolock            004b54b4 f   LIBCMT:ungetc.obj
 0001:000b4594       __getenv_helper_nolock     004b5594 f   LIBCMT:getenv.obj
 0001:000b4618       __wcsicmp                  004b5618 f   LIBCMT:wcsicmp.obj
 0001:000b46ab       __wcsicmp_l                004b56ab f   LIBCMT:wcsicmp.obj
 0001:000b4786       __mbstowcs_l_helper        004b5786 f   LIBCMT:mbstowcs.obj
 0001:000b48e7       __mbstowcs_s_l             004b58e7 f   LIBCMT:mbstowcs.obj
 0001:000b49d0       __alloca_probe_16          004b59d0 f   LIBCMT:alloca16.obj
 0001:000b49e6       __alloca_probe_8           004b59e6     LIBCMT:alloca16.obj
 0001:000b49fc       _iswctype                  004b59fc f   LIBCMT:iswctype.obj
 0001:000b4a52       __ld12tod                  004b5a52 f   LIBCMT:intrncvt.obj
 0001:000b4fc4       __ld12tof                  004b5fc4 f   LIBCMT:intrncvt.obj
 0001:000b5536       __cfltcvt                  004b6536 f   LIBCMT:cvt.obj
 0001:000b5557       __cfltcvt_l                004b6557 f   LIBCMT:cvt.obj
 0001:000b55dd       __cftoa_l                  004b65dd f   LIBCMT:cvt.obj
 0001:000b5939       __cftoe                    004b6939 f   LIBCMT:cvt.obj
 0001:000b5aa8       __cftoe_l                  004b6aa8 f   LIBCMT:cvt.obj
 0001:000b5c62       __cftof_l                  004b6c62 f   LIBCMT:cvt.obj
 0001:000b5d23       __cftog_l                  004b6d23 f   LIBCMT:cvt.obj
 0001:000b5e22       __cropzeros                004b6e22 f   LIBCMT:cvt.obj
 0001:000b5e33       __cropzeros_l              004b6e33 f   LIBCMT:cvt.obj
 0001:000b5eb3       __fassign                  004b6eb3 f   LIBCMT:cvt.obj
 0001:000b5ecb       __fassign_l                004b6ecb f   LIBCMT:cvt.obj
 0001:000b5f0d       __forcdecpt                004b6f0d f   LIBCMT:cvt.obj
 0001:000b5f1e       __forcdecpt_l              004b6f1e f   LIBCMT:cvt.obj
 0001:000b5f92       __positive                 004b6f92 f   LIBCMT:cvt.obj
 0001:000b5fd4       __setdefaultprecision      004b6fd4 f   LIBCMT:fp8.obj
 0001:000b5ffb       ___mtold12                 004b6ffb f   LIBCMT:mantold.obj
 0001:000b6235       __ismbblead                004b7235 f   LIBCMT:ismbbyte.obj
 0001:000b62d3       __wsopen_nolock            004b72d3 f   LIBCMT:wopen.obj
 0001:000b6a26       __strnicmp                 004b7a26 f   LIBCMT:strnicmp.obj
 0001:000b6a91       __strnicmp_l               004b7a91 f   LIBCMT:strnicmp.obj
 0001:000b6b42       ___termconout              004b7b42 f   LIBCMT:initcon.obj
 0001:000b6b59       ___initconout              004b7b59 f   LIBCMT:initcon.obj
 0001:000b6b78       ___wtomb_environ           004b7b78 f   LIBCMT:wtombenv.obj
 0001:000b6c07       __mbsnbicoll               004b7c07 f   LIBCMT:mbsnbico.obj
 0001:000b6c1f       __mbsnbicoll_l             004b7c1f f   LIBCMT:mbsnbico.obj
 0001:000b6cd5       __towlower_l               004b7cd5 f   LIBCMT:towlower.obj
 0001:000b6d86       __fptostr                  004b7d86 f   LIBCMT:_fptostr.obj
 0001:000b6e36       ___dtold                   004b7e36 f   LIBCMT:cfout.obj
 0001:000b6efe       __fltout2                  004b7efe f   LIBCMT:cfout.obj
 0001:000b6f90       __alldvrm                  004b7f90 f   LIBCMT:lldvrm.obj
 0001:000b7070       __aullshr                  004b8070 f   LIBCMT:ullshr.obj
 0001:000b708f       __controlfp_s              004b808f f   LIBCMT:contrlfp.obj
 0001:000b70ec       __chsize_nolock            004b80ec f   LIBCMT:chsize.obj
 0001:000b72a2       __get_fmode                004b82a2 f   LIBCMT:setmode.obj
 0001:000b72cc       __setmode_nolock           004b82cc f   LIBCMT:setmode.obj
 0001:000b73a0       ___ascii_strnicmp          004b83a0 f   LIBCMT:_strnicm.obj
 0001:000b7401       ___crtsetenv               004b8401 f   LIBCMT:setenv.obj
 0001:000b7704       __strnicoll_l              004b8704 f   LIBCMT:strnicol.obj
 0001:000b7a6d       ___crtCompareStringA       004b8a6d f   LIBCMT:a_cmp.obj
 0001:000b7ab0       ___crtLCMapStringW         004b8ab0 f   LIBCMT:w_map.obj
 0001:000b7adf       _$I10_OUTPUT               004b8adf f   LIBCMT:x10fout.obj
 0001:000b855c       __control87                004b955c f i LIBCMT:ieee87.obj
 0001:000b88f5       __strdup                   004b98f5 f   LIBCMT:strdup.obj
 0001:000b8945       __mbschr                   004b9945 f   LIBCMT:mbschr.obj
 0001:000b895a       __mbschr_l                 004b995a f   LIBCMT:mbschr.obj
 0001:000b89f7       ___set_fpsr_sse2           004b99f7 f   LIBCMT:fpctrl.obj
 0001:000b8a6d       __clrfp                    004b9a6d f   LIBCMT:fpctrl.obj
 0001:000b8a7e       __ctrlfp                   004b9a7e f   LIBCMT:fpctrl.obj
 0001:000b8aa9       __set_statfp               004b9aa9 f   LIBCMT:fpctrl.obj
 0001:000b8b01       __statfp                   004b9b01 f   LIBCMT:fpctrl.obj
 0001:000b8b12       _IsProcessorFeaturePresent@4 004b9b12 f   kernel32:KERNEL32.dll
 0001:000b8b18       _RtlUnwind@16              004b9b18 f   kernel32:KERNEL32.dll
 0001:000b8bc0       ?shouldsaveblendmap@@YAEXZ 004b9bc0 f   blend.obj
 0001:000b8bd0       ?saveblendmap@@YAXPAUstream@@@Z 004b9bd0 f   blend.obj
 0001:000b8bf0       ?saveblendmap@@YAXPAUstream@@EAAUBlendMapNode@@@Z 004b9bf0 f   blend.obj
 0001:000b8c60       ?loadblendmap@@YA_NPAUstream@@H@Z 004b9c60 f   blend.obj
 0001:000b8c80       ?loadblendmap@@YA_NPAUstream@@AAEAAUBlendMapNode@@@Z 004b9c80 f   blend.obj
 0001:000b8da0       ?renderblendbrush@@YAXXZ   004b9da0 f   blend.obj
 0001:000b8f60       ?run@?$_icmd_moveblendmap@$0DAN@@@SAXPAH0@Z 004b9f60 f   blend.obj
 0001:000b9030       ?run@?$_icmd_clearblendmap@$0CPO@@@SAXXZ 004ba030 f   blend.obj
 0001:000b9080       ?showblendmap@@YAXXZ       004ba080 f   blend.obj
 0001:000b9110       ?invertblendmap@@YAXXZ     004ba110 f   blend.obj
 0001:000b9290       ?invertblendmapsel@@YAXXZ  004ba290 f   blend.obj
 0001:000b9470       ?clearblendmapsel@@YAXXZ   004ba470 f   blend.obj
 0001:000b9650       ?run@?$_icmd_paintblendmap@$0CMK@@@SAXPAH@Z 004ba650 f   blend.obj
 0001:000b9690       ?trypaintblendmap@@YAXXZ   004ba690 f   blend.obj
 0001:000b96f0       ?stoppaintblendmap@@YAXXZ  004ba6f0 f   blend.obj
 0001:000b9710       ?paintblendmap@@YAX_N@Z    004ba710 f   blend.obj
 0001:000b98f0       ?rotateblendbrush@@YAXPAH@Z 004ba8f0 f   blend.obj
 0001:000b99d0       ?canpaintblendmap@@YA_N_N00@Z 004ba9d0 f   blend.obj
 0001:000b9a60       ?curblendbrush@@YAXXZ      004baa60 f   blend.obj
 0001:000b9a80       ?getblendbrushname@@YAXPAH@Z 004baa80 f   blend.obj
 0001:000b9af0       ?setblendbrush@@YAXPBD@Z   004baaf0 f   blend.obj
 0001:000b9b60       ?nextblendbrush@@YAXPAH@Z  004bab60 f   blend.obj
 0001:000b9bc0       ?addblendbrush@@YAXPBD0@Z  004babc0 f   blend.obj
 0001:000b9da0       ?delblendbrush@@YAXPBD@Z   004bada0 f   blend.obj
 0001:000b9ea0       ?clearblendbrushes@@YAXXZ  004baea0 f   blend.obj
 0001:000b9f20       ?cleanupblendmap@@YAXXZ    004baf20 f   blend.obj
 0001:000b9f60       ?moveblendmap@@YAXHH@Z     004baf60 f   blend.obj
 0001:000b9fe0       ?moveblendmap@@YAXEAAUBlendMapNode@@HHHHH@Z 004bafe0 f   blend.obj
 0001:000ba0d0       ?shrinkblendmap@@YAXH@Z    004bb0d0 f   blend.obj
 0001:000ba0e0       ?enlargeblendmap@@YAXXZ    004bb0e0 f   blend.obj
 0001:000ba140       ?resetblendmap@@YAXXZ      004bb140 f   blend.obj
 0001:000ba1a0       ?blitblendmap@@YAXPAEHHHHH@Z 004bb1a0 f   blend.obj
 0001:000ba810       ?var_blendpaintmode@@YAXXZ 004bb810 f   blend.obj
 0001:000ba830       ?optimizeblendmap@@YAXXZ   004bb830 f   blend.obj
 0001:000ba960       ?invertblendmap@@YAXHHHH@Z 004bb960 f   blend.obj
 0001:000babf0       ?fillblendmap@@YAXHHHHE@Z  004bbbf0 f   blend.obj
 0001:000baf30       ?lookupblendmap@@YAEPAUBlendMapCache@@ABUvec@@@Z 004bbf30 f   blend.obj
 0001:000bb1b0       ?setblendmaporigin@@YA_NPAUBlendMapCache@@ABUivec@@H@Z 004bc1b0 f   blend.obj
 0001:000bb340       ?freeblendmapcache@@YAXAAPAUBlendMapCache@@@Z 004bc340 f   blend.obj
 0001:000bb360       ?newblendmapcache@@YAPAUBlendMapCache@@XZ 004bc360 f   blend.obj
 0001:000bb3c0       ?shrink@BlendMapBranch@@QAEEAAUBlendMapNode@@H@Z 004bc3c0 f   blend.obj
 0001:000bb3f0       ?splitsolid@BlendMapNode@@QAEXAAEE@Z 004bc3f0 f   blend.obj
 0001:000bb480       ?cleanup@BlendMapNode@@QAEXH@Z 004bc480 f   blend.obj
 0001:000bb4c0       ?importcube@@YAXPAD@Z      004bc4c0 f   cubeloader.obj
 0001:000bb680       ?dumplms@@YAXXZ            004bc680 f   lightmap.obj
 0001:000bb810       ?brightestlight@@YAPAUentity@@ABUvec@@0@Z 004bc810 f   lightmap.obj
 0001:000bbb70       ?lightreaching@@YAXABUvec@@AAU1@1_NPAUextentity@@M@Z 004bcb70 f   lightmap.obj
 0001:000bc710       ?initlights@@YAXXZ         004bd710 f   lightmap.obj
 0001:000bc780       ?lightents@@YAX_N@Z        004bd780 f   lightmap.obj
 0001:000bc900       ?lightent@@YAXAAUextentity@@M@Z 004bd900 f   lightmap.obj
 0001:000bc9c0       ?genlightmaptexs@@YAXHH@Z  004bd9c0 f   lightmap.obj
 0001:000bcdf0       ?var_batchlightmaps@@YAXXZ 004bddf0 f   lightmap.obj
 0001:000bce10       ?var_roundlightmaptex@@YAXXZ 004bde10 f   lightmap.obj
 0001:000bcf70       ?genreservedlightmaptexs@@YAXXZ 004bdf70 f   lightmap.obj
 0001:000bd510       ?var_convertlms@@YAXXZ     004be510 f   lightmap.obj
 0001:000bd6a0       ?fixrotatedlightmaps@@YAXXZ 004be6a0 f   lightmap.obj
 0001:000bd700       ?fixrotatedlightmaps@@YAXAAUcube@@ABUivec@@H@Z 004be700 f   lightmap.obj
 0001:000bdab0       ?fixlightmapnormals@@YAXXZ 004beab0 f   lightmap.obj
 0001:000bdc90       ?var_fullbrightlevel@@YAXXZ 004bec90 f   lightmap.obj
 0001:000bdca0       ?var_fullbright@@YAXXZ     004beca0 f   lightmap.obj
 0001:000bdcc0       ?setfullbrightlevel@@YAXH@Z 004becc0 f   lightmap.obj
 0001:000bddd0       ?clearlightmaps@@YAXXZ     004bedd0 f   lightmap.obj
 0001:000bde40       ?patchlight@@YAXPAH@Z      004bee40 f   lightmap.obj
 0001:000be390       ?calclight@@YAXPAH@Z       004bf390 f   lightmap.obj
 0001:000bebd0       ?setlightmapquality@@YA_NH@Z 004bfbd0 f   lightmap.obj
 0001:000bec60       ?setupthread@lightmapworker@@QAE_NXZ 004bfc60 f   lightmap.obj
 0001:000beca0       ?reset@lightmapworker@@QAEXXZ 004bfca0 f   lightmap.obj
 0001:000bed00       ?cleanupthread@lightmapworker@@QAEXXZ 004bfd00 f   lightmap.obj
 0001:000bed30       ??1lightmapworker@@QAE@XZ  004bfd30 f   lightmap.obj
 0001:000bee20       ??0lightmapworker@@QAE@XZ  004bfe20 f   lightmap.obj
 0001:000befa0       ?resetlightmaps@@YAX_N@Z   004bffa0 f   lightmap.obj
 0001:000bf020       ?cleanuplightmaps@@YAXXZ   004c0020 f   lightmap.obj
 0001:000c0610       ?work@lightmapworker@@SAHPAX@Z 004c1610 f   lightmap.obj
 0001:000c39f0       ?checklightcache@@YAABU?$vector@H@@HH@Z 004c49f0 f   lightmap.obj
 0001:000c3b50       ?clearlightcache@@YAXH@Z   004c4b50 f   lightmap.obj
 0001:000c3c80       ?var_lightcachesize@@YAXXZ 004c4c80 f   lightmap.obj
 0001:000c8a20       ?copy@LightMap@@QAEXGGPAEGG@Z 004c9a20 f   lightmap.obj
 0001:000c8aa0       ?insert@LightMap@@QAE_NAAG0PAEGG@Z 004c9aa0 f   lightmap.obj
 0001:000c8b00       ?insert@PackNode@@QAE_NAAG0GG@Z 004c9b00 f   lightmap.obj
 0001:000c8d70       ?show_calclight_progress@@YAXXZ 004c9d70 f   lightmap.obj
 0001:000c8ff0       ?check_calclight_canceled@@YAXXZ 004c9ff0 f   lightmap.obj
 0001:000c9040       ?setsurface@@YAXAAUcube@@HABUsurfaceinfo@@PBUvertinfo@@H@Z 004ca040 f   lightmap.obj
 0001:000c9320       ?setsurfaces@@YAXAAUcube@@PBUsurfaceinfo@@PBUvertinfo@@H@Z 004ca320 f   lightmap.obj
 0001:000c93a0       ?brightencube@@YAXAAUcube@@@Z 004ca3a0 f   lightmap.obj
 0001:000c93f0       ?setupsunlight@@YAXXZ      004ca3f0 f   lightmap.obj
 0001:000c9580       ?setsunlightdir@@YAXXZ     004ca580 f   lightmap.obj
 0001:000c96e0       ?var_sunlightpitch@@YAXXZ  004ca6e0 f   lightmap.obj
 0001:000c96f0       ?var_sunlightyaw@@YAXXZ    004ca6f0 f   lightmap.obj
 0001:000c9700       ?var_sunlightscale@@YAXXZ  004ca700 f   lightmap.obj
 0001:000c9710       ?var_sunlight@@YAXXZ       004ca710 f   lightmap.obj
 0001:000c9760       ?var_skylight@@YAXXZ       004ca760 f   lightmap.obj
 0001:000c97b0       ?var_ambient@@YAXXZ        004ca7b0 f   lightmap.obj
 0001:000c9800       ?clearlights@@YAXXZ        004ca800 f   lightmap.obj
 0001:000c98c0       ?previewblends@@YAXABUivec@@0@Z 004ca8c0 f   lightmap.obj
 0001:000c9a70       ?updatelerpbounds@@YAXMPBUlerpvert@@HAAUlerpbounds@@1@Z 004caa70 f   normal.obj
 0001:000c9b30       ?setlerpstep@@YAXMAAUlerpbounds@@@Z 004cab30 f   normal.obj
 0001:000c9d70       ?addnormals@@YAXAAUcube@@ABUivec@@H@Z 004cad70 f   normal.obj
 0001:000caba0       ?show_addnormals_progress@@YAXXZ 004cbba0 f   normal.obj
 0001:000cb240       ?initlerpbounds@@YAXMMPBUlerpvert@@HAAUlerpbounds@@1@Z 004cc240 f   normal.obj
 0001:000cb380       ?lerpnormal@@YAXMMPBUlerpvert@@HAAUlerpbounds@@1AAUvec@@2@Z 004cc380 f   normal.obj
 0001:000cb6c0       ?calclerpverts@@YAXPBUvec2@@PBUvec@@PAUlerpvert@@AAH@Z 004cc6c0 f   normal.obj
 0001:000cb7f0       ?findnormal@@YAXABUvec@@0AAU1@@Z 004cc7f0 f   normal.obj
 0001:000cb850       ?calcnormals@@YAX_N@Z      004cc850 f   normal.obj
 0001:000cb910       ?clearnormals@@YAXXZ       004cc910 f   normal.obj
 0001:000cbf50       ?calcmerges@@YAXXZ         004ccf50 f   octa.obj
 0001:000cc040       ?genmerges@@YAXPAUcube@@ABUivec@@H@Z 004cd040 f   octa.obj
 0001:000cc3d0       ?mergepolys@@YAXHABUivec@@0HAAU?$vector@Upoly@@@@@Z 004cd3d0 f   octa.obj
 0001:000cc6b0       ?addmerges@@YAXHABUivec@@0HAAU?$vector@Upoly@@@@@Z 004cd6b0 f   octa.obj
 0001:000cc770       ?addmerge@@YAXAAUcube@@HABUivec@@1HAAUpoly@@@Z 004cd770 f   octa.obj
 0001:000cc9d0       ?mergepolys@@YA_NHAAU?$hashset@Uplink@@@@AAU?$vector@PAUplink@@@@HAAUpoly@@2ABUpedge@@@Z 004cd9d0 f   octa.obj
 0001:000ccd10       ?genpoly@@YA_NAAUcube@@HABUivec@@HHAAU2@AAHAAUpoly@@@Z 004cdd10 f   octa.obj
 0001:000cd540       ?clippoly@@YA_NAAUpoly@@ABUfacebounds@@@Z 004ce540 f   octa.obj
 0001:000cd9c0       ?mincubeface@@YA_NABUcube@@HABUivec@@HAAUfacebounds@@@Z 004ce9c0 f   octa.obj
 0001:000cdaa0       ?mincubeface@@YAXABUcube@@HABUivec@@HABUfacebounds@@AAU3@GG@Z 004ceaa0 f   octa.obj
 0001:000cdf30       ?mergefaces@@YAHHPAUfacebounds@@H@Z 004cef30 f   octa.obj
 0001:000ce0c0       ?genclipplanes@@YAXABUcube@@HHHHAAUclipplanes@@_N@Z 004cf0c0 f   octa.obj
 0001:000ce860       ?calcvert@@YAXABUcube@@HHHHAAUvec@@H_N@Z 004cf860 f   octa.obj
 0001:000ce8e0       ?classifyface@@YAHABUcube@@HHHHH@Z 004cf8e0 f   octa.obj
 0001:000cec20       ?visibleface@@YA_NABUcube@@HHHHHGGG@Z 004cfc20 f   octa.obj
 0001:000cf270       ?collapsedface@@YA_NABUcube@@H@Z 004d0270 f   octa.obj
 0001:000d04e0       ?faceedges@@YAIABUcube@@H@Z 004d14e0 f   octa.obj
 0001:000d0580       ?faceconvexity@@YAHABUcube@@H@Z 004d1580 f   octa.obj
 0001:000d05d0       ?faceconvexity@@YAHQBUivec@@AAH@Z 004d15d0 f   octa.obj
 0001:000d0720       ?notouchingface@@YA_NABUcube@@H@Z 004d1720 f   octa.obj
 0001:000d0750       ?touchingface@@YA_NABUcube@@H@Z 004d1750 f   octa.obj
 0001:000d0780       ?collideface@@YA_NABUcube@@H@Z 004d1780 f   octa.obj
 0001:000d0830       ?edgespan2vectorcube@@YAXAAUcube@@@Z 004d1830 f   octa.obj
 0001:000d1030       ?genvertp@@YAXAAUcube@@AAUivec@@11AAUplane@@_N@Z 004d2030 f   octa.obj
 0001:000d1330       ?remip_@@YAXXZ             004d2330 f   octa.obj
 0001:000d1340       ?remip@@YA_NAAUcube@@HHHH@Z 004d2340 f   octa.obj
 0001:000d1910       ?visibleorient@@YAHABUcube@@H@Z 004d2910 f   octa.obj
 0001:000d19c0       ?crushededge@@YA_NEH@Z     004d29c0 f   octa.obj
 0001:000d19e0       ?subdividecube@@YA_NAAUcube@@_N1@Z 004d29e0 f   octa.obj
 0001:000d21e0       ?forcemip@@YAXAAUcube@@_N@Z 004d31e0 f   octa.obj
 0001:000d2330       ?getmippedtexture@@YAHABUcube@@H@Z 004d3330 f   octa.obj
 0001:000d2450       ?neighbourcube@@YAABUcube@@ABU1@HHHHHAAUivec@@AAH@Z 004d3450 f   octa.obj
 0001:000d25b0       ?lookupmaterial@@YAHABUvec@@@Z 004d35b0 f   octa.obj
 0001:000d2650       ?validatec@@YAXPAUcube@@H@Z 004d3650 f   octa.obj
 0001:000d2730       ?isvalidcube@@YA_NABUcube@@@Z 004d3730 f   octa.obj
 0001:000d28b0       ?printcube@@YAXXZ          004d38b0 f   octa.obj
 0001:000d2930       ?optiface@@YAXPAEAAUcube@@@Z 004d3930 f   octa.obj
 0001:000d2a80       ?setcubevector@@YAXAAUcube@@HHHHABUivec@@@Z 004d3a80 f   octa.obj
 0001:000d2b70       ?getcubevector@@YAXAAUcube@@HHHHAAUivec@@@Z 004d3b70 f   octa.obj
 0001:000d2c10       ?discardchildren@@YAXAAUcube@@_NH@Z 004d3c10 f   octa.obj
 0001:000d2cf0       ?freecubeext@@YAXAAUcube@@@Z 004d3cf0 f   octa.obj
 0001:000d2d10       ?familysize@@YAHABUcube@@@Z 004d3d10 f   octa.obj
 0001:000d2d40       ?newcubeext@@YAPAUcubeext@@AAUcube@@H_N@Z 004d3d40 f   octa.obj
 0001:000d2dd0       ?growcubeext@@YAPAUcubeext@@PAU1@H@Z 004d3dd0 f   octa.obj
 0001:000d2e30       ?setcubeext@@YAXAAUcube@@PAUcubeext@@@Z 004d3e30 f   octa.obj
 0001:000d2e50       ?calcmergedsize@@YAHHABUivec@@HPBUvertinfo@@H@Z 004d3e50 f   octa.obj
 0001:000d3010       ?flataxisface@@YA_NABUcube@@H@Z 004d4010 f   octa.obj
 0001:000d3040       ?faceconvexity@@YAHPBUvertinfo@@HH@Z 004d4040 f   octa.obj
 0001:000d31a0       ?genfaceverts@@YAXABUcube@@HQAUivec@@@Z 004d41a0 f   octa.obj
 0001:000d3600       ?faceconvexity@@YAHQBUivec@@@Z 004d4600 f   octa.obj
 0001:000d36c0       ?visibletris@@YAHABUcube@@HHHHHGG@Z 004d46c0 f   octa.obj
 0001:000d3c40       ?invalidatemerges@@YAXAAUcube@@ABUivec@@H_N@Z 004d4c40 f   octa.obj
 0001:000d3c80       ?lookupcube@@YAAAUcube@@HHHHAAUivec@@AAH@Z 004d4c80 f   octa.obj
 0001:000d3df0       ?mpremip@@YAX_N@Z          004d4df0 f   octa.obj
 0001:000d3ef0       ?freeocta@@YAXPAUcube@@@Z  004d4ef0 f   octa.obj
 0001:000d3fb0       ?newcubes@@YAPAUcube@@IH@Z 004d4fb0 f   octa.obj
 0001:000d4910       ?rendertexturepanel@@YAXHH@Z 004d5910 f   octaedit.obj
 0001:000d51a0       ?showtexgui@@YAXPAH@Z      004d61a0 f   octaedit.obj
 0001:000d51f0       ?g3d_texturemenu@@YAXXZ    004d61f0 f   octaedit.obj
 0001:000d5200       ?editmat@@YAXPAD0@Z        004d6200 f   octaedit.obj
 0001:000d53d0       ?mpeditmat@@YAXHHAAUselinfo@@_N@Z 004d63d0 f   octaedit.obj
 0001:000d5650       ?setmat@@YAXAAUcube@@GGGGH@Z 004d6650 f   octaedit.obj
 0001:000d5730       ?rotate@@YAXPAH@Z          004d6730 f   octaedit.obj
 0001:000d5850       ?mprotate@@YAXHAAUselinfo@@_N@Z 004d6850 f   octaedit.obj
 0001:000d5ce0       ?flip@@YAXXZ               004d6ce0 f   octaedit.obj
 0001:000d5e00       ?mpflip@@YAXAAUselinfo@@_N@Z 004d6e00 f   octaedit.obj
 0001:000d60b0       ?rotatecube@@YAXAAUcube@@H@Z 004d70b0 f   octaedit.obj
 0001:000d6320       ?rotatequad@@YAXAAUcube@@000@Z 004d7320 f   octaedit.obj
 0001:000d6390       ?flipcube@@YAXAAUcube@@H@Z 004d7390 f   octaedit.obj
 0001:000d66d0       ?mflip@@YAII@Z             004d76d0 f   octaedit.obj
 0001:000d66f0       ?rflip@@YAII@Z             004d76f0 f   octaedit.obj
 0001:000d6700       ?cflip@@YAII@Z             004d7700 f   octaedit.obj
 0001:000d6720       ?dflip@@YAII@Z             004d7720 f   octaedit.obj
 0001:000d6750       ?run@?$_icmd_replacesel@$0HLG@@@SAXXZ 004d7750 f   octaedit.obj
 0001:000d6760       ?run@?$_icmd_replace@$0HLF@@@SAXXZ 004d7760 f   octaedit.obj
 0001:000d6770       ?replace@@YAX_N@Z          004d7770 f   octaedit.obj
 0001:000d68c0       ?mpreplacetex@@YAXHH_NAAUselinfo@@0@Z 004d78c0 f   octaedit.obj
 0001:000d6c50       ?replacetexcube@@YAXAAUcube@@HH@Z 004d7c50 f   octaedit.obj
 0001:000d6ca0       ?run@?$_icmd_getreptex@$0HJH@@@SAXXZ 004d7ca0 f   octaedit.obj
 0001:000d6dd0       ?gettexname@@YAXPAH0@Z     004d7dd0 f   octaedit.obj
 0001:000d6e50       ?getseltex@@YAXXZ          004d7e50 f   octaedit.obj
 0001:000d6ec0       ?getcurtex@@YAXXZ          004d7ec0 f   octaedit.obj
 0001:000d6f10       ?gettex@@YAXXZ             004d7f10 f   octaedit.obj
 0001:000d70e0       ?edittex_@@YAXPAH@Z        004d80e0 f   octaedit.obj
 0001:000d72e0       ?edittex@@YAXH_N@Z         004d82e0 f   octaedit.obj
 0001:000d7340       ?compactmruvslots@@YAXXZ   004d8340 f   octaedit.obj
 0001:000d7450       ?filltexlist@@YAXXZ        004d8450 f   octaedit.obj
 0001:000d7540       ?mpedittex@@YAXHHAAUselinfo@@_N@Z 004d8540 f   octaedit.obj
 0001:000d7770       ?vshaderparam@@YAXPBDPAM111@Z 004d8770 f   octaedit.obj
 0001:000d79e0       ?vreset@@YAXXZ             004d89e0 f   octaedit.obj
 0001:000d7be0       ?vcolor@@YAXPAM00@Z        004d8be0 f   octaedit.obj
 0001:000d7e60       ?valpha@@YAXPAM0@Z         004d8e60 f   octaedit.obj
 0001:000d80c0       ?vlayer@@YAXPAH@Z          004d90c0 f   octaedit.obj
 0001:000d82e0       ?vscale@@YAXPAM@Z          004d92e0 f   octaedit.obj
 0001:000d8540       ?vscroll@@YAXPAM0@Z        004d9540 f   octaedit.obj
 0001:000d8780       ?voffset@@YAXPAH0@Z        004d9780 f   octaedit.obj
 0001:000d89d0       ?vrotate@@YAXPAH@Z         004d99d0 f   octaedit.obj
 0001:000d8c00       ?vdelta@@YAXPAD@Z          004d9c00 f   octaedit.obj
 0001:000d8d50       ?mpeditvslot@@YAXAAUVSlot@@HAAUselinfo@@_N@Z 004d9d50 f   octaedit.obj
 0001:000d90d0       ?edittexcube@@YAXAAUcube@@HHAA_N@Z 004da0d0 f   octaedit.obj
 0001:000d9500       ?tofronttex@@YAXXZ         004da500 f   octaedit.obj
 0001:000d9530       ?delcube@@YAXXZ            004da530 f   octaedit.obj
 0001:000d9650       ?mpdelcube@@YAXAAUselinfo@@_N@Z 004da650 f   octaedit.obj
 0001:000d9820       ?pushsel@@YAXPAH@Z         004da820 f   octaedit.obj
 0001:000d98c0       ?editface@@YAXPAH0@Z       004da8c0 f   octaedit.obj
 0001:000d9950       ?mpeditface@@YAXHHAAUselinfo@@_N@Z 004da950 f   octaedit.obj
 0001:000d9f60       ?linkedpush@@YAXAAUcube@@HHHHH@Z 004daf60 f   octaedit.obj
 0001:000da090       ?pushedge@@YAXAAEHH@Z      004db090 f   octaedit.obj
 0001:000da130       ?bounded@@YAHH@Z           004db130 f   octaedit.obj
 0001:000da150       ?edithmap@@YAXHH@Z         004db150 f   octaedit.obj
 0001:000da190       ?run@hmap@@YAXHH@Z         004db190 f   octaedit.obj
 0001:000da610       ?rippleandset@hmap@@YAXXZ  004db610 f   octaedit.obj
 0001:000da670       ?smooth@hmap@@YAXXZ        004db670 f   octaedit.obj
 0001:000da760       ?paint@hmap@@YAXXZ         004db760 f   octaedit.obj
 0001:000da7d0       ?ripple@hmap@@YAXHHH_N@Z   004db7d0 f   octaedit.obj
 0001:000dafe0       ?select@hmap@@YAXHHH@Z     004dbfe0 f   octaedit.obj
 0001:000db460       ?addpoint@hmap@@YAXHHHH@Z  004dc460 f   octaedit.obj
 0001:000db490       ?pushside@hmap@@YAXAAUcube@@HHHH@Z 004dc490 f   octaedit.obj
 0001:000db500       ?getface@hmap@@YAIPAUcube@@H@Z 004dc500 f   octaedit.obj
 0001:000db540       ?getcube@hmap@@YAPAUcube@@Uivec@@H@Z 004dc540 f   octaedit.obj
 0001:000db650       ?run@?$_icmd_hmapselect@$0EGJ@@@SAXXZ 004dc650 f   octaedit.obj
 0001:000db710       ?hmapcancel@@YAXXZ         004dc710 f   octaedit.obj
 0001:000db720       ?brushvert@@YAXPAH00@Z     004dc720 f   octaedit.obj
 0001:000db830       ?clearbrush@@YAXXZ         004dc830 f   octaedit.obj
 0001:000db880       ?compacteditvslots@@YAXXZ  004dc880 f   octaedit.obj
 0001:000db930       ?paste@@YAXXZ              004dc930 f   octaedit.obj
 0001:000dba50       ?pastehilite@@YAXXZ        004dca50 f   octaedit.obj
 0001:000dbad0       ?copy@@YAXXZ               004dcad0 f   octaedit.obj
 0001:000dbb00       ?mppaste@@YAXAAPAUeditinfo@@AAUselinfo@@_N@Z 004dcb00 f   octaedit.obj
 0001:000dbbd0       ?mpcopy@@YAXAAPAUeditinfo@@AAUselinfo@@_N@Z 004dcbd0 f   octaedit.obj
 0001:000dbdf0       ?pasteprefab@@YAXPAD@Z     004dcdf0 f   octaedit.obj
 0001:000dc090       ?pasteblock@@YAXAAUblock3@@AAUselinfo@@_N@Z 004dd090 f   octaedit.obj
 0001:000dc240       ?saveprefab@@YAXPAD@Z      004dd240 f   octaedit.obj
 0001:000dc530       ?delprefab@@YAXPAD@Z       004dd530 f   octaedit.obj
 0001:000dc590       ?freeeditinfo@@YAXAAPAUeditinfo@@@Z 004dd590 f   octaedit.obj
 0001:000dc5d0       ?unpackeditinfo@@YA_NAAPAUeditinfo@@PBEHH@Z 004dd5d0 f   octaedit.obj
 0001:000dc6e0       ?packeditinfo@@YA_NPAUeditinfo@@AAHAAPAE1@Z 004dd6e0 f   octaedit.obj
 0001:000dc8b0       ?editredo@@YAXXZ           004dd8b0 f   octaedit.obj
 0001:000dc8d0       ?editundo@@YAXXZ           004dd8d0 f   octaedit.obj
 0001:000dc8f0       ?swapundo@@YAXAAUundolist@@0PBD@Z 004dd8f0 f   octaedit.obj
 0001:000dcc60       ?makeundo@@YAXXZ           004ddc60 f   octaedit.obj
 0001:000dcd50       ?makeundoex@@YAXAAUselinfo@@@Z 004ddd50 f   octaedit.obj
 0001:000dcd80       ?addundo@@YAXPAUundoblock@@@Z 004ddd80 f   octaedit.obj
 0001:000dcde0       ?newundocube@@YAPAUundoblock@@AAUselinfo@@@Z 004ddde0 f   octaedit.obj
 0001:000dcea0       ?clearundos@@YAXXZ         004ddea0 f   octaedit.obj
 0001:000dceb0       ?pruneundos@@YAXH@Z        004ddeb0 f   octaedit.obj
 0001:000dcff0       ?pasteundo@@YAXPAUundoblock@@@Z 004ddff0 f   octaedit.obj
 0001:000dd100       ?freeundo@@YAXPAUundoblock@@@Z 004de100 f   octaedit.obj
 0001:000dd120       ?selgridmap@@YAXAAUselinfo@@PAH@Z 004de120 f   octaedit.obj
 0001:000dd230       ?freeblock@@YAXPAUblock3@@_N@Z 004de230 f   octaedit.obj
 0001:000dd310       ?blockcopy@@YAPAUblock3@@ABU1@H@Z 004de310 f   octaedit.obj
 0001:000dd370       ?blockcopy@@YAXABUblock3@@HPAU1@@Z 004de370 f   octaedit.obj
 0001:000dd4d0       ?changed@@YAXABUblock3@@_N@Z 004de4d0 f   octaedit.obj
 0001:000dd5b0       ?readychanges@@YAXABUivec@@0PAUcube@@0H@Z 004de5b0 f   octaedit.obj
 0001:000dd740       ?tryedit@@YAXXZ            004de740 f   octaedit.obj
 0001:000dd770       ?rendereditcursor@@YAXXZ   004de770 f   octaedit.obj
 0001:000de840       ?editmoveplane@@YA_NABUvec@@0HMAAU1@1_N@Z 004df840 f   octaedit.obj
 0001:000de9e0       ?updateselection@@YAXXZ    004df9e0 f   octaedit.obj
 0001:000dea70       ?normalizelookupcube@@YAXHHH@Z 004dfa70 f   octaedit.obj
 0001:000deb00       ?countselchild@@YAXPAUcube@@ABUivec@@H@Z 004dfb00 f   octaedit.obj
 0001:000decb0       ?run@?$_icmd_havesel@$0OK@@@SAXXZ 004dfcb0 f   octaedit.obj
 0001:000decd0       ?blockcube@@YAAAUcube@@HHHABUblock3@@H@Z 004dfcd0 f   octaedit.obj
 0001:000ded80       ?run@?$_icmd_selswap@$0NE@@@SAXXZ 004dfd80 f   octaedit.obj
 0001:000deda0       ?run@?$_icmd_selrestore@$0ND@@@SAXXZ 004dfda0 f   octaedit.obj
 0001:000dee00       ?run@?$_icmd_selsave@$0NC@@@SAXXZ 004dfe00 f   octaedit.obj
 0001:000dee60       ?run@?$_icmd_selmoved@$0NB@@@SAXXZ 004dfe60 f   octaedit.obj
 0001:000deec0       ?run@?$_icmd_edittoggle@$0MK@@@SAXXZ 004dfec0 f   octaedit.obj
 0001:000deed0       ?selextend@@YAXXZ          004dfed0 f   octaedit.obj
 0001:000defb0       ?run@?$_icmd_setface@$0LH@@@SAXPAH@Z 004dffb0 f   octaedit.obj
 0001:000df010       ?reorient@@YAXXZ           004e0010 f   octaedit.obj
 0001:000df060       ?toggleedit@@YAX_N@Z       004e0060 f   octaedit.obj
 0001:000df1a0       ?cancelsel@@YAXXZ          004e01a0 f   octaedit.obj
 0001:000df1f0       ?cubecancel@@YAXXZ         004e01f0 f   octaedit.obj
 0001:000df240       ?forcenextundo@@YAXXZ      004e0240 f   octaedit.obj
 0001:000df250       ?var_hmapedit@@YAXXZ       004e0250 f   octaedit.obj
 0001:000df260       ?var_gridpower@@YAXXZ      004e0260 f   octaedit.obj
 0001:000df2e0       ?run@?$_icmd_moving@$0FN@@@SAXPAH@Z 004e02e0 f   octaedit.obj
 0001:000df3b0       ?var_dragging@@YAXXZ       004e03b0 f   octaedit.obj
 0001:000df410       ?boxsgrid@@YAXHUvec@@0H@Z  004e0410 f   octaedit.obj
 0001:000df600       ?boxs3D@@YAXABUvec@@U1@H@Z 004e0600 f   octaedit.obj
 0001:000df670       ?boxs@@YAXHUvec@@ABU1@@Z   004e0670 f   octaedit.obj
 0001:000df750       ?commitchanges@@YAX_N@Z    004e0750 f   octaedit.obj
 0001:000df7f0       ?noedit@@YA_N_N0@Z         004e07f0 f   octaedit.obj
 0001:000dff20       ?recalc@@YAXXZ             004e0f20 f   octarender.obj
 0001:000dff30       ?precachetextures@@YAXXZ   004e0f30 f   octarender.obj
 0001:000e0100       ?findtjoints@@YAXHABUedgegroup@@@Z 004e1100 f   octarender.obj
 0001:000e0270       ?addtjoint@@YAXABUedgegroup@@ABUcubeedge@@H@Z 004e1270 f   octarender.obj
 0001:000e0350       ?updateva@@YAHPAUcube@@HHHHH@Z 004e1350 f   octarender.obj
 0001:000e0770       ?var_vacubesize@@YAXXZ     004e1770 f   octarender.obj
 0001:000e0780       ?var_vafacemin@@YAXXZ      004e1780 f   octarender.obj
 0001:000e0790       ?var_vafacemax@@YAXXZ      004e1790 f   octarender.obj
 0001:000e08c0       ?setva@@YAXAAUcube@@HHHHH@Z 004e18c0 f   octarender.obj
 0001:000e0c70       ?calcmatbb@@YAXHHHHAAUivec@@0@Z 004e1c70 f   octarender.obj
 0001:000e0db0       ?calcgeombb@@YAXHHHHAAUivec@@0@Z 004e1db0 f   octarender.obj
 0001:000e0f00       ?rendercube@@YAXAAUcube@@HHHHHAAH@Z 004e1f00 f   octarender.obj
 0001:000e11a0       ?addmergedverts@@YAXHABUivec@@@Z 004e21a0 f   octarender.obj
 0001:000e13c0       ?findmergedfaces@@YAHAAUcube@@ABUivec@@HHH@Z 004e23c0 f   octarender.obj
 0001:000e14d0       ?genmergedfaces@@YAHAAUcube@@ABUivec@@HH@Z 004e24d0 f   octarender.obj
 0001:000e17b0       ?updatevabb@@YAXPAUvtxarray@@_N@Z 004e27b0 f   octarender.obj
 0001:000e1b50       ?clearvas@@YAXPAUcube@@@Z  004e2b50 f   octarender.obj
 0001:000e1c90       ?newva@@YAPAUvtxarray@@HHHH@Z 004e2c90 f   octarender.obj
 0001:000e1e50       ?addskyverts@@YAXABUivec@@H@Z 004e2e50 f   octarender.obj
 0001:000e22d0       ?genskyfaces@@YAXAAUcube@@ABUivec@@H@Z 004e32d0 f   octarender.obj
 0001:000e2420       ?minskyface@@YAXAAUcube@@HABUivec@@HAAUfacebounds@@@Z 004e3420 f   octarender.obj
 0001:000e26e0       ?gencubeverts@@YAXAAUcube@@HHHHH@Z 004e36e0 f   octarender.obj
 0001:000e2ec0       ?gencubeedges@@YAXPAUcube@@HHHH@Z 004e3ec0 f   octarender.obj
 0001:000e2fb0       ?gencubeedges@@YAXAAUcube@@HHHH@Z 004e3fb0 f   octarender.obj
 0001:000e36e0       ?addcubeverts@@YAXAAUVSlot@@HHPAUvec@@HGGPAUvertinfo@@HHGH_NH@Z 004e46e0 f   octarender.obj
 0001:000e40d0       ?decodenormal@@YA?AUvec@@G@Z 004e50d0 f   octarender.obj
 0001:000e42c0       ?addgrasstri@@YAXHPAUvertex@@HGG@Z 004e52c0 f   octarender.obj
 0001:000e48b0       ?addtris@@YAXABUsortkey@@HPAUvertex@@PAHHHHH@Z 004e58b0 f   octarender.obj
 0001:000e4fa0       ?var_filltjoints@@YAXXZ    004e5fa0 f   octarender.obj
 0001:000e4fb0       ?calcshadowmask@@YAHPAUvec@@H@Z 004e5fb0 f   octarender.obj
 0001:000e5280       ?addvbo@@YAPAEPAUvtxarray@@HHH@Z 004e6280 f   octarender.obj
 0001:000e52f0       ?flushvbo@@YAXH@Z          004e62f0 f   octarender.obj
 0001:000e5360       ?readva@@YA_NPAUvtxarray@@AAPAGAAPAE@Z 004e6360 f   octarender.obj
 0001:000e5480       ?genvbo@@YAXHPAXHPAPAUvtxarray@@H@Z 004e6480 f   octarender.obj
 0001:000e55f0       ?destroyvbo@@YAXI@Z        004e65f0 f   octarender.obj
 0001:000e5670       ?var_vbosize@@YAXXZ        004e6670 f   octarender.obj
 0001:000e5680       ?octarender@@YAXXZ         004e6680 f   octarender.obj
 0001:000e57d0       ?updatevabbs@@YAX_N@Z      004e67d0 f   octarender.obj
 0001:000e5800       ?reduceslope@@YAXAAUivec@@@Z 004e6800 f   octarender.obj
 0001:000e58c0       ?findtjoints@@YAXXZ        004e68c0 f   octarender.obj
 0001:000e59a0       ?encodenormal@@YAGABUvec@@@Z 004e69a0 f   octarender.obj
 0001:000e5a70       ?destroyva@@YAXPAUvtxarray@@_N@Z 004e6a70 f   octarender.obj
 0001:000e5b80       ?allchanged@@YAX_N@Z       004e6b80 f   octarender.obj
 0001:000ea6b0       ?run@?$_icmd_attack@$0HMD@@@SAXPAH@Z 004eb6b0 f   physics.obj
 0001:000ea6e0       ?run@?$_icmd_jump@$0HMC@@@SAXPAH@Z 004eb6e0 f   physics.obj
 0001:000ea720       ?run@?$_icmd_right@$0HMA@@@SAXPAH@Z 004eb720 f   physics.obj
 0001:000ea750       ?run@?$_icmd_left@$0HLP@@@SAXPAH@Z 004eb750 f   physics.obj
 0001:000ea780       ?run@?$_icmd_forward@$0HLO@@@SAXPAH@Z 004eb780 f   physics.obj
 0001:000ea7b0       ?run@?$_icmd_backward@$0HLN@@@SAXPAH@Z 004eb7b0 f   physics.obj
 0001:000ea7e0       ?moveplatform@@YA_NPAUphysent@@ABUvec@@@Z 004eb7e0 f   physics.obj
 0001:000eb670       ?platformcollide@@YA_NPAUphysent@@0ABUvec@@M@Z 004ec670 f   physics.obj
 0001:000eb720       ?updatephysstate@@YAXPAUphysent@@@Z 004ec720 f   physics.obj
 0001:000eb8d0       ?bounce@@YA_NPAUphysent@@MMM@Z 004ec8d0 f   physics.obj
 0001:000eba70       ?moveplayer@@YAXPAUphysent@@H_N@Z 004eca70 f   physics.obj
 0001:000ebb50       ?interppos@@YAXPAUphysent@@@Z 004ecb50 f   physics.obj
 0001:000ebc00       ?physicsframe@@YAXXZ       004ecc00 f   physics.obj
 0001:000ebc80       ?moveplayer@@YA_NPAUphysent@@H_NH@Z 004ecc80 f   physics.obj
 0001:000ec110       ?modifygravity@@YAXPAUphysent@@_NH@Z 004ed110 f   physics.obj
 0001:000ec310       ?modifyvelocity@@YAXPAUphysent@@_N11H@Z 004ed310 f   physics.obj
 0001:000ec700       ?vectoyawpitch@@YAXABUvec@@AAM1@Z 004ed700 f   physics.obj
 0001:000ec780       ?vecfromyawpitch@@YAXMMHHAAUvec@@@Z 004ed780 f   physics.obj
 0001:000ec8c0       ?phystest@@YAXXZ           004ed8c0 f   physics.obj
 0001:000eca10       ?dropheight@@YAMAAUentity@@@Z 004eda10 f   physics.obj
 0001:000eca70       ?droptofloor@@YA_NAAUvec@@MM@Z 004eda70 f   physics.obj
 0001:000ecc90       ?movecamera@@YA_NPAUphysent@@ABUvec@@MM@Z 004edc90 f   physics.obj
 0001:000ece80       ?avoidcollision@@YAXPAUphysent@@ABUvec@@0M@Z 004ede80 f   physics.obj
 0001:000ed080       ?bounce@@YA_NPAUphysent@@MMMM@Z 004ee080 f   physics.obj
 0001:000ed4f0       ?move@@YA_NPAUphysent@@AAUvec@@@Z 004ee4f0 f   physics.obj
 0001:000eda10       ?findfloor@@YA_NPAUphysent@@_NABUvec@@AA_NAAU2@@Z 004eea10 f   physics.obj
 0001:000edcd0       ?landing@@YAXPAUphysent@@AAUvec@@ABU2@_N@Z 004eecd0 f   physics.obj
 0001:000edd20       ?falling@@YAXPAUphysent@@AAUvec@@ABU2@@Z 004eed20 f   physics.obj
 0001:000ede00       ?trystepdown@@YA_NPAUphysent@@AAUvec@@_N@Z 004eee00 f   physics.obj
 0001:000edef0       ?trystepdown@@YA_NPAUphysent@@AAUvec@@MMM_N@Z 004eeef0 f   physics.obj
 0001:000ee310       ?trystepup@@YA_NPAUphysent@@AAUvec@@ABU2@M2@Z 004ef310 f   physics.obj
 0001:000ee9a0       ?switchfloor@@YAXPAUphysent@@AAUvec@@ABU2@@Z 004ef9a0 f   physics.obj
 0001:000eecd0       ?slideagainst@@YAXPAUphysent@@AAUvec@@ABU2@_N3@Z 004efcd0 f   physics.obj
 0001:000eef50       ?recalcdir@@YAXPAUphysent@@ABUvec@@AAU2@@Z 004eff50 f   physics.obj
 0001:000ef010       ?collide@@YA_NPAUphysent@@ABUvec@@M_N@Z 004f0010 f   physics.obj
 0001:000ef610       ?mmcollide@@YA_NPAUphysent@@ABUvec@@AAUoctaentities@@@Z 004f0610 f   physics.obj
 0001:000ef7e0       ?rotatebb@@YAXAAUvec@@0H@Z 004f07e0 f   physics.obj
 0001:000ef900       ?plcollide@@YA_NPAUphysent@@ABUvec@@@Z 004f0900 f   physics.obj
 0001:000efbc0       ?overlapsdynent@@YA_NABUvec@@M@Z 004f0bc0 f   physics.obj
 0001:000efd30       ?updatedynentcache@@YAXPAUphysent@@@Z 004f0d30 f   physics.obj
 0001:000efe70       ?checkdynentcache@@YAABU?$vector@PAUphysent@@@@HH@Z 004f0e70 f   physics.obj
 0001:000f0040       ?var_dynentsize@@YAXXZ     004f1040 f   physics.obj
 0001:000f0050       ?cleardynentcache@@YAXXZ   004f1050 f   physics.obj
 0001:000f00a0       ?ellipsecollide@@YA_NPAUphysent@@ABUvec@@11MMMMM@Z 004f10a0 f   physics.obj
 0001:000f04e0       ?ellipseboxcollide@@YA_NPAUphysent@@ABUvec@@11MMMMM@Z 004f14e0 f   physics.obj
 0001:000f0a10       ?rayfloor@@YAMABUvec@@AAU1@HM@Z 004f1a10 f   physics.obj
 0001:000f0ab0       ?raycubelos@@YA_NABUvec@@0AAU1@@Z 004f1ab0 f   physics.obj
 0001:000f0bd0       ?raycubepos@@YAMABUvec@@0AAU1@MHH@Z 004f1bd0 f   physics.obj
 0001:000f0c70       ?raycube@@YAMABUvec@@0MHHPAUextentity@@@Z 004f1c70 f   physics.obj
 0001:000f1fd0       ?entinmap@@YA_NPAUdynent@@_N@Z 004f2fd0 f   physics.obj
 0001:000f22c0       ?rayent@@YAMABUvec@@0MHHAAH1@Z 004f32c0 f   physics.obj
 0001:000f23a0       ?resetclipplanes@@YAXXZ    004f33a0 f   physics.obj
 0001:000f23d0       ?pointincube@@YA_NABUclipplanes@@ABUvec@@@Z 004f33d0 f   physics.obj
 0001:000f24a0       ?shadowray@@YAMPAUShadowRayCache@@ABUvec@@1MHPAUextentity@@@Z 004f34a0 f   physics.obj
 0001:000f2e40       ?shadowray@@YAMABUvec@@0MHPAUextentity@@@Z 004f3e40 f   physics.obj
 0001:000f3770       ?newshadowraycache@@YAPAUShadowRayCache@@XZ 004f4770 f   physics.obj
 0001:000f37d0       ?freeshadowraycache@@YAXAAPAUShadowRayCache@@@Z 004f47d0 f   physics.obj
 0001:000f37f0       ?resetshadowraycache@@YAXPAUShadowRayCache@@@Z 004f47f0 f   physics.obj
 0001:000f3820       ?dropenttofloor@@YAXPAUentity@@@Z 004f4820 f   physics.obj
 0001:000f3970       ?getnumviewcells@@YAHXZ    004f4970 f   pvs.obj
 0001:000f3980       ?loadpvs@@YAXPAUstream@@H@Z 004f4980 f   pvs.obj
 0001:000f3ac0       ?loadviewcells@@YAPAUviewcellnode@@PAUstream@@@Z 004f4ac0 f   pvs.obj
 0001:000f3bb0       ?savepvs@@YAXPAUstream@@@Z 004f4bb0 f   pvs.obj
 0001:000f3c90       ?saveviewcells@@YAXPAUstream@@AAUviewcellnode@@@Z 004f4c90 f   pvs.obj
 0001:000f3cf0       ?waterpvsoccluded@@YA_NH@Z 004f4cf0 f   pvs.obj
 0001:000f3d60       ?pvsoccludedsphere@@YA_NABUvec@@M@Z 004f4d60 f   pvs.obj
 0001:000f3e20       ?pvsoccluded@@YA_NABUivec@@0@Z 004f4e20 f   pvs.obj
 0001:000f40c0       ?pvsstats@@YAXXZ           004f50c0 f   pvs.obj
 0001:000f4110       ?genpvs@@YAXPAH@Z          004f5110 f   pvs.obj
 0001:000f47b0       ?testpvs@@YAXPAH@Z         004f57b0 f   pvs.obj
 0001:000f4c00       ?clearpvs@@YAXXZ           004f5c00 f   pvs.obj
 0001:000f4c60       ?setviewcell@@YAXABUvec@@@Z 004f5c60 f   pvs.obj
 0001:000f4d10       ?var_lockpvs@@YAXXZ        004f5d10 f   pvs.obj
 0001:000f5d20       ?getworldsize@@YAHXZ       004f6d20 f   world.obj
 0001:000f5d30       ?mpeditent@@YAXHABUvec@@HHHHHH_N@Z 004f6d30 f   world.obj
 0001:000f5e50       ?mapname@@YAXXZ            004f6e50 f   world.obj
 0001:000f5ea0       ?mapenlarge@@YAXXZ         004f6ea0 f   world.obj
 0001:000f5ec0       ?newmap@@YAXPAH@Z          004f6ec0 f   world.obj
 0001:000f5f20       ?shrinkmap@@YAXXZ          004f6f20 f   world.obj
 0001:000f6180       ?enlargemap@@YA_N_N@Z      004f7180 f   world.obj
 0001:000f6290       ?resetmap@@YAXXZ           004f7290 f   world.obj
 0001:000f6380       ?splitocta@@YAXPAUcube@@H@Z 004f7380 f   world.obj
 0001:000f63d0       ?findplayerspawn@@YAXPAUdynent@@HH@Z 004f73d0 f   world.obj
 0001:000f6510       ?findentity@@YAHHHHH@Z     004f7510 f   world.obj
 0001:000f6590       ?entattr@@YAXPAH00@Z       004f7590 f   world.obj
 0001:000f6a50       ?enttype@@YAXPADPAH@Z      004f7a50 f   world.obj
 0001:000f6dc0       ?run@?$_icmd_entindex@$0EBH@@@SAXXZ 004f7dc0 f   world.obj
 0001:000f6de0       ?run@?$_icmd_entget@$0EBG@@@SAXXZ 004f7de0 f   world.obj
 0001:000f6e50       ?run@?$_icmd_insel@$0EBF@@@SAXXZ 004f7e50 f   world.obj
 0001:000f6f20       ?run@?$_icmd_entloop@$0EBE@@@SAXPAI@Z 004f7f20 f   world.obj
 0001:000f71a0       ?run@?$_icmd_entselect@$0EBD@@@SAXPAI@Z 004f81a0 f   world.obj
 0001:000f7250       ?run@?$_icmd_enthavesel@$0EBC@@@SAXXZ 004f8250 f   world.obj
 0001:000f72b0       ?nearestent@@YAXXZ         004f82b0 f   world.obj
 0001:000f73d0       ?printent@@YAXAAUextentity@@PAD@Z 004f83d0 f   world.obj
 0001:000f7440       ?entset@@YAXPADPAH1111@Z   004f8440 f   world.obj
 0001:000f7850       ?entpaste@@YAXXZ           004f8850 f   world.obj
 0001:000f7c60       ?entcopy@@YAXXZ            004f8c60 f   world.obj
 0001:000f7d60       ?newent@@YAXPADPAH1111@Z   004f8d60 f   world.obj
 0001:000f7dd0       ?newentity@@YAXHHHHHH@Z    004f8dd0 f   world.obj
 0001:000f7ef0       ?newentity@@YAPAUextentity@@_NABUvec@@HHHHHHAAH@Z 004f8ef0 f   world.obj
 0001:000f8110       ?attachent@@YAXXZ          004f9110 f   world.obj
 0001:000f8470       ?dropent@@YAXXZ            004f9470 f   world.obj
 0001:000f87d0       ?dropentity@@YA_NAAUentity@@H@Z 004f97d0 f   world.obj
 0001:000f8a80       ?findtype@@YAHPAD@Z        004f9a80 f   world.obj
 0001:000f8b00       ?delent@@YAXXZ             004f9b00 f   world.obj
 0001:000f8e10       ?entautoview@@YAXPAH@Z     004f9e10 f   world.obj
 0001:000f8f60       ?entpush@@YAXPAH@Z         004f9f60 f   world.obj
 0001:000f94e0       ?run@?$_icmd_entmoving@$0DAB@@@SAXPAH@Z 004fa4e0 f   world.obj
 0001:000f95a0       ?run@?$_icmd_enttoggle@$0CPD@@@SAXXZ 004fa5a0 f   world.obj
 0001:000f9620       ?run@?$_icmd_entadd@$0CON@@@SAXXZ 004fa620 f   world.obj
 0001:000f9690       ?enttoggle@@YA_NH@Z        004fa690 f   world.obj
 0001:000f9740       ?renderentradius@@YAXAAUextentity@@_N@Z 004fa740 f   world.obj
 0001:000f9a70       ?renderentcone@@YAXABUextentity@@ABUvec@@MM@Z 004faa70 f   world.obj
 0001:000f9f40       ?renderentarrow@@YAXABUextentity@@ABUvec@@M@Z 004faf40 f   world.obj
 0001:000fa2c0       ?renderentattachment@@YAXABUextentity@@@Z 004fb2c0 f   world.obj
 0001:000fa2f0       ?renderentsphere@@YAXABUextentity@@M@Z 004fb2f0 f   world.obj
 0001:000fa3c0       ?renderentring@@YAXABUextentity@@MH@Z 004fb3c0 f   world.obj
 0001:000fa480       ?entrotate@@YAXPAH@Z       004fb480 f   world.obj
 0001:000fa850       ?entflip@@YAXXZ            004fb850 f   world.obj
 0001:000faac0       ?getselpos@@YA?AUvec@@XZ   004fbac0 f   world.obj
 0001:000fab40       ?attachentities@@YAXXZ     004fbb40 f   world.obj
 0001:000fac70       ?attachentity@@YAXAAUextentity@@@Z 004fbc70 f   world.obj
 0001:000fad50       ?detachentity@@YAXAAUextentity@@@Z 004fbd50 f   world.obj
 0001:000fad70       ?makeundoent@@YAXXZ        004fbd70 f   world.obj
 0001:000fada0       ?newundoent@@YAPAUundoblock@@XZ 004fbda0 f   world.obj
 0001:000fae30       ?entadd@@YAXH@Z            004fbe30 f   world.obj
 0001:000fae80       ?noentedit@@YA_NXZ         004fbe80 f   world.obj
 0001:000faeb0       ?var_entediting@@YAXXZ     004fbeb0 f   world.obj
 0001:000faee0       ?entname@@YAPADAAUentity@@@Z 004fbee0 f   world.obj
 0001:000faf40       ?findents@@YAXHH_NABUvec@@1AAU?$vector@H@@@Z 004fbf40 f   world.obj
 0001:000fb6d0       ?modifyoctaentity@@YAXHHAAUextentity@@PAUcube@@ABUivec@@H22HPAUvtxarray@@@Z 004fc6d0 f   world.obj
 0001:000fbc00       ?getentboundingbox@@YA_NABUextentity@@AAUivec@@1@Z 004fcc00 f   world.obj
 0001:000fbf10       ?entselectionbox@@YAXABUentity@@AAUvec@@1@Z 004fcf10 f   world.obj
 0001:000fc190       ?pointinsel@@YA_NABUselinfo@@ABUvec@@@Z 004fd190 f   world.obj
 0001:000fc230       ?entcancel@@YAXXZ          004fd230 f   world.obj
 0001:000fc240       ?haveselent@@YA_NXZ        004fd240 f   world.obj
 0001:000fc250       ?entdrag@@YAXABUvec@@@Z    004fd250 f   world.obj
 0001:000fc620       ?hoveringonent@@YA_NHH@Z   004fd620 f   world.obj
 0001:000fc6a0       ?renderentselection@@YAXABUvec@@0_N@Z 004fd6a0 f   world.obj
 0001:000fcb30       ?pasteundoents@@YAXPAUundoblock@@@Z 004fdb30 f   world.obj
 0001:000fccb0       ?copyundoents@@YAPAUundoblock@@PAU1@@Z 004fdcb0 f   world.obj
 0001:000fcda0       ?freeoctaentities@@YAXAAUcube@@@Z 004fdda0 f   world.obj
 0001:000fce30       ?emptymap@@YA_NH_NPBD0@Z   004fde30 f   world.obj
 0001:000fd070       ?entitiesinoctanodes@@YAXXZ 004fe070 f   world.obj
 0001:000fd280       ?startmap@@YAXPBD@Z        004fe280 f   world.obj
 0001:000fd7b0       ?writeobj@@YAXPAD@Z        004fe7b0 f   worldio.obj
 0001:000fe5a0       ?savemap@@YAXPAD@Z         004ff5a0 f   worldio.obj
 0001:000fe5b0       ?savecurrentmap@@YAXXZ     004ff5b0 f   worldio.obj
 0001:000fe5c0       ?load_world@@YA_NPBD0@Z    004ff5c0 f   worldio.obj
 0001:000ff420       ?getmapcrc@@YAIXZ          00500420 f   worldio.obj
 0001:000ff430       ?save_world@@YA_NPBD_N@Z   00500430 f   worldio.obj
 0001:000ffb60       ?loadvslots@@YAXPAUstream@@H@Z 00500b60 f   worldio.obj
 0001:000ffe10       ?loadvslot@@YAXPAUstream@@AAUVSlot@@H@Z 00500e10 f   worldio.obj
 0001:00100130       ?savevslots@@YAXPAUstream@@H@Z 00501130 f   worldio.obj
 0001:00100250       ?savevslot@@YAXPAUstream@@AAUVSlot@@H@Z 00501250 f   worldio.obj
 0001:00100480       ?loadchildren@@YAPAUcube@@PAUstream@@ABUivec@@HAA_N@Z 00501480 f   worldio.obj
 0001:00100520       ?loadc@@YAXPAUstream@@AAUcube@@ABUivec@@HAA_N@Z 00501520 f   worldio.obj
 0001:00101740       ?convertoldsurfaces@@YAXAAUcube@@ABUivec@@HPAUsurfacecompat@@HPAUnormalscompat@@HPAUmergecompat@@H@Z 00502740 f   worldio.obj
 0001:00102530       ?savec@@YAXPAUcube@@ABUivec@@HPAUstream@@_N@Z 00503530 f   worldio.obj
 0001:00103040       ?backup@@YAXPAD0@Z         00504040 f   worldio.obj
 0001:001030c0       ?mapcfgname@@YAXXZ         005040c0 f   worldio.obj
 0001:00103180       ?setmapfilenames@@YAXPBD0@Z 00504180 f   worldio.obj
 0001:00103280       ?loadents@@YA_NPBDAAU?$vector@Uentity@@@@PAI@Z 00504280 f   worldio.obj
 0001:00103760       ?getmapfilenames@@YAXPBD0PAD11@Z 00504760 f   worldio.obj
 0001:00103910       ?cutogz@@YAXPAD@Z          00504910 f   worldio.obj
 0001:00103930       ?clearmapcrc@@YAXXZ        00504930 f   worldio.obj
 0001:00103940       ?gets2c@@YAXXZ             00504940 f   client.obj
 0001:00103b70       ?clientkeepalive@@YAXXZ    00504b70 f   client.obj
 0001:00103b90       ?localservertoclient@@YAXHPAU_ENetPacket@@@Z 00504b90 f   client.obj
 0001:00103c70       ?neterr@@YAXPBD_N@Z        00504c70 f   client.obj
 0001:00103c80       ?flushclient@@YAXXZ        00504c80 f   client.obj
 0001:00103ca0       ?sendclientpacket@@YAXPAU_ENetPacket@@H@Z 00504ca0 f   client.obj
 0001:00103cd0       ?run@?$_icmd_localdisconnect@$0LI@@@SAXXZ 00504cd0 f   client.obj
 0001:00103cf0       ?run@?$_icmd_localconnect@$0LH@@@SAXXZ 00504cf0 f   client.obj
 0001:00103d50       ?run@?$_icmd_disconnect@$0LG@@@SAXPAH@Z 00504d50 f   client.obj
 0001:00103d60       ?run@?$_icmd_lanconnect@$0LE@@@SAXPAHPAD@Z 00504d60 f   client.obj
 0001:00103d80       ?run@?$_icmd_connect@$0LD@@@SAXPADPAH0@Z 00504d80 f   client.obj
 0001:00103da0       ?trydisconnect@@YAX_N@Z    00504da0 f   client.obj
 0001:00103e10       ?disconnect@@YAX_N0@Z      00504e10 f   client.obj
 0001:00103ec0       ?reconnect@@YAXPBD@Z       00504ec0 f   client.obj
 0001:00103ef0       ?connectserv@@YAXPBDH0@Z   00504ef0 f   client.obj
 0001:001040e0       ?abortconnect@@YAXXZ       005050e0 f   client.obj
 0001:00104140       ?run@?$_icmd_connectedport@$0DM@@@SAXXZ 00505140 f   client.obj
 0001:00104180       ?run@?$_icmd_connectedip@$0DG@@@SAXXZ 00505180 f   client.obj
 0001:00104210       ?connectedpeer@@YAPBU_ENetAddress@@XZ 00505210 f   client.obj
 0001:00104220       ?run@?$_icmd_isconnected@$0CK@@@SAXPAH0@Z 00505220 f   client.obj
 0001:00104270       ?throttle@@YAXXZ           00505270 f   client.obj
 0001:001042a0       ?var_throttle_decel@@YAXXZ 005052a0 f   client.obj
 0001:001042d0       ?var_throttle_accel@@YAXXZ 005052d0 f   client.obj
 0001:00104300       ?var_throttle_interval@@YAXXZ 00505300 f   client.obj
 0001:00104330       ?var_rate@@YAXXZ           00505330 f   client.obj
 0001:00104360       ?setrate@@YAXH@Z           00505360 f   client.obj
 0001:00104390       ?isconnected@@YA_N_N0@Z    00505390 f   client.obj
 0001:001043c0       ?multiplayer@@YA_N_N@Z     005053c0 f   client.obj
 0001:00104480       ?serveroption@@YA_NPAD@Z   00505480 f   server.obj
 0001:00104570       ?stoplistenserver@@YAXXZ   00505570 f   server.obj
 0001:001045b0       ?startlistenserver@@YAXPAH@Z 005055b0 f   server.obj
 0001:00104620       ?initserver@@YAX_N0@Z      00505620 f   server.obj
 0001:001046c0       ?setuplistenserver@@YA_N_N@Z 005056c0 f   server.obj
 0001:001048a0       ?servererror@@YA_N_NPBD@Z  005058a0 f   server.obj
 0001:001048c0       ?rundedicatedserver@@YAXXZ 005058c0 f   server.obj
 0001:00104970       ?isdedicatedserver@@YA_NXZ 00505970 f   server.obj
 0001:00104980       ?logoutfv@@YAXPBDPAD@Z     00505980 f   server.obj
 0001:00104a70       _WinMain@16                00505a70 f   server.obj
 0001:00105340       ?flushserver@@YAX_N@Z      00506340 f   server.obj
 0001:00105360       ?serverslice@@YAX_NI@Z     00506360 f   server.obj
 0001:00105770       ?updatetime@@YAXXZ         00506770 f   server.obj
 0001:001057b0       ?updatemasterserver@@YAXXZ 005067b0 f   server.obj
 0001:00105820       ?var_serverport@@YAXXZ     00506820 f   server.obj
 0001:00105840       ?checkserversockets@@YAXXZ 00506840 f   server.obj
 0001:00105c50       ?sendserverinforeply@@YAXAAU?$databuf@E@@@Z 00506c50 f   server.obj
 0001:00105c80       ?flushmasterinput@@YAXXZ   00506c80 f   server.obj
 0001:00105d00       ?flushmasteroutput@@YAXXZ  00506d00 f   server.obj
 0001:00105db0       ?processmasterinput@@YAXXZ 00506db0 f   server.obj
 0001:00105ee0       ?requestmasterf@@YA_NPBDZZ 00506ee0 f   server.obj
 0001:00105f20       ?requestmaster@@YA_NPBD@Z  00506f20 f   server.obj
 0001:00105fc0       ?connectmaster@@YAI_N@Z    00506fc0 f   server.obj
 0001:001060d0       ?var_masterport@@YAXXZ     005070d0 f   server.obj
 0001:001060e0       ?var_mastername@@YAXXZ     005070e0 f   server.obj
 0001:001060f0       ?disconnectmaster@@YAXXZ   005070f0 f   server.obj
 0001:00106170       ?process@@YAXPAU_ENetPacket@@HH@Z 00507170 f   server.obj
 0001:00106240       ?kicknonlocalclients@@YAXH@Z 00507240 f   server.obj
 0001:00106340       ?disconnect_client@@YAXHH@Z 00507340 f   server.obj
 0001:00106420       ?sendfile@@YAPAU_ENetPacket@@HHPAUstream@@PBDZZ 00507420 f   server.obj
 0001:00106650       ?sendf@@YAPAU_ENetPacket@@HHPBDZZ 00507650 f   server.obj
 0001:00106900       ?sendpacket@@YAXHHPAU_ENetPacket@@H@Z 00507900 f   server.obj
 0001:001069f0       ?getclienthostname@@YAPBDH@Z 005079f0 f   server.obj
 0001:00106a10       ?getclientip@@YAIH@Z       00507a10 f   server.obj
 0001:00106a40       ?getclientpeer@@YAPAU_ENetPeer@@H@Z 00507a40 f   server.obj
 0001:00106a60       ?getclientinfo@@YAPAXH@Z   00507a60 f   server.obj
 0001:00106a90       ?getservermtu@@YAHXZ       00507a90 f   server.obj
 0001:00106ab0       ?var_maxdupclients@@YAXXZ  00507ab0 f   server.obj
 0001:00106ad0       ?var_maxclients@@YAXXZ     00507ad0 f   server.obj
 0001:00106af0       ?cleanupserver@@YAXXZ      00507af0 f   server.obj
 0001:00106b50       ?delclient@@YAXPAUclient@@@Z 00507b50 f   server.obj
 0001:00106bc0       ?addclient@@YAAAUclient@@H@Z 00507bc0 f   server.obj
 0001:00106f00       ?logoutf@@YAXPBDZZ         00507f00 f   server.obj
 0001:00106f10       ?setlogfile@@YAXPBD@Z      00507f10 f   server.obj
 0001:00106f80       ?getlogfile@@YAPAU_iobuf@@XZ 00507f80 f   server.obj
 0001:00106f90       ?closelogfile@@YAXXZ       00507f90 f   server.obj
 0001:00106fb0       ?hasnonlocalclients@@YA_NXZ 00507fb0 f   server.obj
 0001:00106fc0       ?localdisconnect@@YAX_N@Z  00507fc0 f   server.obj
 0001:001070b0       ?localconnect@@YAXXZ       005080b0 f   server.obj
 0001:00107100       ?localclienttoserver@@YAXHPAU_ENetPacket@@@Z 00508100 f   server.obj
 0001:00107210       ?disconnectreason@@YAPBDH@Z 00508210 f   server.obj
 0001:00107290       ?haslocalclients@@YA_NXZ   00508290 f   server.obj
 0001:00107590       ?writeservercfg@@YAXXZ     00508590 f   serverbrowser.obj
 0001:001077b0       ?run@?$_icmd_clearservers@$0CIE@@@SAXPAH@Z 005087b0 f   serverbrowser.obj
 0001:001077c0       ?run@?$_icmd_keepserver@$0CID@@@SAXPBDPAH0@Z 005087c0 f   serverbrowser.obj
 0001:001077f0       ?run@?$_icmd_addserver@$0CIC@@@SAXPBDPAH0@Z 005087f0 f   serverbrowser.obj
 0001:00107820       ?initservers@@YAXXZ        00508820 f   serverbrowser.obj
 0001:00107850       ?updatefrommaster@@YAXXZ   00508850 f   serverbrowser.obj
 0001:00107900       ?retrieveservers@@YAXAAU?$vector@D@@@Z 00508900 f   serverbrowser.obj
 0001:00107b20       ?clearservers@@YAX_N@Z     00508b20 f   serverbrowser.obj
 0001:00107bc0       ?connectselected@@YAXXZ    00508bc0 f   serverbrowser.obj
 0001:00107bf0       ?showservers@@YAPBDPAUg3d_gui@@PAIHH@Z 00508bf0 f   serverbrowser.obj
 0001:00107e20       ?refreshservers@@YAXXZ     00508e20 f   serverbrowser.obj
 0001:00107f00       ?sortservers@@YAXXZ        00508f00 f   serverbrowser.obj
 0001:00107f20       ?checkpings@@YAXXZ         00508f20 f   serverbrowser.obj
 0001:001081d0       ?checkresolver@@YAXXZ      005091d0 f   serverbrowser.obj
 0001:001082c0       ?pingservers@@YAXXZ        005092c0 f   serverbrowser.obj
 0001:001085c0       ?resolvercheck@@YA_NPAPBDPAU_ENetAddress@@@Z 005095c0 f   serverbrowser.obj
 0001:001086c0       ?resolverquery@@YAXPBD@Z   005096c0 f   serverbrowser.obj
 0001:00108740       ?resolverclear@@YAXXZ      00509740 f   serverbrowser.obj
 0001:00108800       ?resolverstop@@YAXAAUresolverthread@@@Z 00509800 f   serverbrowser.obj
 0001:00108850       ?resolverinit@@YAXXZ       00509850 f   serverbrowser.obj
 0001:00108900       ?resolverloop@@YAHPAX@Z    00509900 f   serverbrowser.obj
 0001:00108a80       ?connectwithtimeout@@YAHIPBDABU_ENetAddress@@@Z 00509a80 f   serverbrowser.obj
 0001:00108be0       ?addserver@@YAXPBDH0_N@Z   00509be0 f   serverbrowser.obj
 0001:00108d70       ?resolverwait@@YA_NPBDPAU_ENetAddress@@@Z 00509d70 f   serverbrowser.obj
 0001:00109770       ?consolebox@@YAXHHHH@Z     0050a770 f   3dgui.obj
 0001:001098e0       ?g3d_render@@YAXXZ         0050a8e0 f   3dgui.obj
 0001:00109cd0       ?g3d_limitscale@@YAXM@Z    0050acd0 f   3dgui.obj
 0001:00109ce0       ?g3d_movecursor@@YA_NHH@Z  0050ace0 f   3dgui.obj
 0001:00109db0       ?g3d_resetcursor@@YAXXZ    0050adb0 f   3dgui.obj
 0001:00109dd0       ?g3d_cursorpos@@YAXAAM0@Z  0050add0 f   3dgui.obj
 0001:00109e00       ?menukey@@YA_NH_NH@Z       0050ae00 f   3dgui.obj
 0001:0010a400       ?run@?$_icmd_textexec@$0CPN@@@SAXPAH@Z 0050b400 f   3dgui.obj
 0001:0010a450       ?run@?$_icmd_textcurrentline@$0CPH@@@SAXXZ 0050b450 f   3dgui.obj
 0001:0010a480       ?run@?$_icmd_textclear@$0CPG@@@SAXXZ 0050b480 f   3dgui.obj
 0001:0010a4b0       ?run@?$_icmd_textselectall@$0CPF@@@SAXXZ 0050b4b0 f   3dgui.obj
 0001:0010a4f0       ?run@?$_icmd_textmark@$0CPE@@@SAXPAH@Z 0050b4f0 f   3dgui.obj
 0001:0010a580       ?run@?$_icmd_textpaste@$0CPA@@@SAXXZ 0050b580 f   3dgui.obj
 0001:0010a5d0       ?run@?$_icmd_textcopy@$0COP@@@SAXXZ 0050b5d0 f   3dgui.obj
 0001:0010a620       ?run@?$_icmd_textinit@$0COL@@@SAXPAD00@Z 0050b620 f   3dgui.obj
 0001:0010a710       ?run@?$_icmd_textload@$0COB@@@SAXPAD@Z 0050b710 f   3dgui.obj
 0001:0010a760       ?run@?$_icmd_textsave@$0CNJ@@@SAXPAD@Z 0050b760 f   3dgui.obj
 0001:0010a7b0       ?run@?$_icmd_textmode@$0CNF@@@SAXPAH@Z 0050b7b0 f   3dgui.obj
 0001:0010a7f0       ?run@?$_icmd_textprev@$0CNB@@@SAXXZ 0050b7f0 f   3dgui.obj
 0001:0010a830       ?run@?$_icmd_textfocus@$0CNA@@@SAXPADPAH@Z 0050b830 f   3dgui.obj
 0001:0010a880       ?run@?$_icmd_textshow@$0CMM@@@SAXXZ 0050b880 f   3dgui.obj
 0001:0010a8f0       ?run@?$_icmd_textlist@$0CMG@@@SAXXZ 0050b8f0 f   3dgui.obj
 0001:0010acf0       ?g3d_windowhit@@YA_N_N0@Z  0050bcf0 f   3dgui.obj
 0001:0010ad80       ?g3d_addgui@@YAXPAUg3d_callback@@AAUvec@@H@Z 0050bd80 f   3dgui.obj
 0001:0010afa0       ??0BIH@@QAE@PAU?$vector@Utri@BIH@@@@@Z 0050bfa0 f   bih.obj
 0001:0010b3f0       ?build@BIH@@QAEXAAU?$vector@UBIHNode@@@@PAGHABUvec@@2H@Z 0050c3f0 f   bih.obj
 0001:0010bea0       ?triintersect@BIH@@SA_NAAUtri@1@ABUvec@@1MAAMHPAU21@@Z 0050cea0 f   bih.obj
 0001:0010c1f0       ?mmintersect@@YA_NABUextentity@@ABUvec@@1MHAAM@Z 0050d1f0 f   bih.obj
 0001:0010c500       ?flushblobs@@YAXXZ         0050d500 f   blob.obj
 0001:0010c520       ?renderblob@@YAXHABUvec@@MM@Z 0050d520 f   blob.obj
 0001:0010c590       ?initblobs@@YAXH@Z         0050d590 f   blob.obj
 0001:0010c5f0       ?var_blobdyntris@@YAXXZ    0050d5f0 f   blob.obj
 0001:0010c620       ?var_blobstattris@@YAXXZ   0050d620 f   blob.obj
 0001:0010c650       ?var_blobmargin@@YAXXZ     0050d650 f   blob.obj
 0001:0010c660       ?var_blobfadehigh@@YAXXZ   0050d660 f   blob.obj
 0001:0010c670       ?var_blobfadelow@@YAXXZ    0050d670 f   blob.obj
 0001:0010c680       ?var_blobheight@@YAXXZ     0050d680 f   blob.obj
 0001:0010c690       ?var_blobintensity@@YAXXZ  0050d690 f   blob.obj
 0001:0010c6a0       ?resetblobs@@YAXXZ         0050d6a0 f   blob.obj
 0001:0010c730       ?adddecal@@YAXHABUvec@@0MABUbvec@@H@Z 0050d730 f   decal.obj
 0001:0010c7e0       ?renderdecals@@YAX_N@Z     0050d7e0 f   decal.obj
 0001:0010c970       ?initdecals@@YAXXZ         0050d970 f   decal.obj
 0001:0010cab0       ?var_maxdecaltris@@YAXXZ   0050dab0 f   decal.obj
 0001:0010cac0       ?cleardecals@@YAXXZ        0050dac0 f   decal.obj
 0001:0010cb80       ?setdynlights@@YAHPAUvtxarray@@@Z 0050db80 f   dynlight.obj
 0001:0010d0c0       ?calcdynlightmask@@YAXPAUvtxarray@@@Z 0050e0c0 f   dynlight.obj
 0001:0010d200       ?dynlightreaching@@YAXABUvec@@AAU1@1_N@Z 0050e200 f   dynlight.obj
 0001:0010d330       ?getdynlight@@YA_NHAAUvec@@AAM0@Z 0050e330 f   dynlight.obj
 0001:0010d380       ?finddynlights@@YAHXZ      0050e380 f   dynlight.obj
 0001:0010d680       ?updatedynlights@@YAXXZ    0050e680 f   dynlight.obj
 0001:0010d7b0       ?removetrackeddynlights@@YAXPAUphysent@@@Z 0050e7b0 f   dynlight.obj
 0001:0010d810       ?cleardynlights@@YAXXZ     0050e810 f   dynlight.obj
 0001:0010d860       ?adddynlight@@YAXABUvec@@M0HHHM0PAUphysent@@@Z 0050e860 f   dynlight.obj
 0001:0010da40       ?addglare@@YAXXZ           0050ea40 f   glare.obj
 0001:0010dd00       ?drawglaretex@@YAXXZ       0050ed00 f   glare.obj
 0001:0010dd50       ?viewglaretex@@YAXXZ       0050ed50 f   glare.obj
 0001:0010dd70       ?var_glaresize@@YAXXZ      0050ed70 f   glare.obj
 0001:0010dd80       ?cleanupglare@@YAXXZ       0050ed80 f   glare.obj
 0001:0010e2b0       ?rendergrass@@YAXXZ        0050f2b0 f   grass.obj
 0001:0010e650       ?generategrass@@YAXXZ      0050f650 f   grass.obj
 0001:00110240       ?var_grasscolour@@YAXXZ    00511240 f   grass.obj
 0001:00110bb0       ?rendermaterials@@YAXXZ    00511bb0 f   material.obj
 0001:00111ec0       ?var_waterfallenv@@YAXXZ   00512ec0 f   material.obj
 0001:00114070       ?getglasscolor@@YAABUbvec@@H@Z 00515070 f   material.obj
 0001:001140a0       ?var_glass4colour@@YAXXZ   005150a0 f   material.obj
 0001:001140e0       ?var_glass3colour@@YAXXZ   005150e0 f   material.obj
 0001:00114120       ?var_glass2colour@@YAXXZ   00515120 f   material.obj
 0001:00114160       ?var_glasscolour@@YAXXZ    00515160 f   material.obj
 0001:001141a0       ?rendermatgrid@@YAXAAU?$vector@PAUmaterialsurface@@@@@Z 005151a0 f   material.obj
 0001:00114380       ?sortmaterials@@YAXAAU?$vector@PAUmaterialsurface@@@@@Z 00515380 f   material.obj
 0001:00114890       ?var_optmats@@YAXXZ        00515890 f   material.obj
 0001:00114bc0       ?visiblematerial@@YAHABUcube@@HHHHHG@Z 00515bc0 f   material.obj
 0001:00114ca0       ?getmaterialdesc@@YAPBDHPBD@Z 00515ca0 f   material.obj
 0001:00114dd0       ?findmaterialname@@YAPBDH@Z 00515dd0 f   material.obj
 0001:00115e00       ?optimizematsurfs@@YAHPAUmaterialsurface@@H@Z 00516e00 f   material.obj
 0001:001160f0       ?genmatsurfs@@YAXABUcube@@HHHHAAU?$vector@Umaterialsurface@@@@@Z 005170f0 f   material.obj
 0001:00116210       ?setupmaterials@@YAXHH@Z   00517210 f   material.obj
 0001:00116a60       ?findmaterial@@YAHPBD@Z    00517a60 f   material.obj
 0001:00116be0       ?gl_drawhud@@YAXHH@Z       00517be0 f   rendergl.obj
 0001:00117710       ?drawcrosshair@@YAXHH@Z    00518710 f   rendergl.obj
 0001:00117aa0       ?writecrosshairs@@YAXPAUstream@@@Z 00518aa0 f   rendergl.obj
 0001:00117b00       ?run@?$_icmd_getcrosshair@$0ION@@@SAXPAH@Z 00518b00 f   rendergl.obj
 0001:00117b90       ?loadcrosshair_@@YAXPBDPAH@Z 00518b90 f   rendergl.obj
 0001:00117ba0       ?loadcrosshair@@YAXPBDH@Z  00518ba0 f   rendergl.obj
 0001:00117c20       ?drawdamagescreen@@YAXHH@Z 00518c20 f   rendergl.obj
 0001:00117e20       ?damageblend@@YAXH@Z       00518e20 f   rendergl.obj
 0001:00117e80       ?var_damagescreen@@YAXXZ   00518e80 f   rendergl.obj
 0001:00117ea0       ?drawdamagecompass@@YAXHH@Z 00518ea0 f   rendergl.obj
 0001:00118140       ?damagecompass@@YAXHABUvec@@@Z 00519140 f   rendergl.obj
 0001:001182d0       ?gl_drawmainmenu@@YAXHH@Z  005192d0 f   rendergl.obj
 0001:001183d0       ?gl_drawframe@@YAXHH@Z     005193d0 f   rendergl.obj
 0001:00118cf0       ?addmotionblur@@YAXXZ      00519cf0 f   rendergl.obj
 0001:00119050       ?var_motionblur@@YAXXZ     0051a050 f   rendergl.obj
 0001:001190a0       ?drawminimap@@YAXXZ        0051a0a0 f   rendergl.obj
 0001:00119a00       ?clipminimap@@YAXAAUivec@@0PAUcube@@HHHH@Z 0051aa00 f   rendergl.obj
 0001:00119b10       ?bindminimap@@YAXXZ        0051ab10 f   rendergl.obj
 0001:00119b30       ?var_minimapsize@@YAXXZ    0051ab30 f   rendergl.obj
 0001:00119b40       ?var_minimapcolour@@YAXXZ  0051ab40 f   rendergl.obj
 0001:00119b70       ?drawcubemap@@YAXHABUvec@@MMABUcubemapside@@@Z 0051ab70 f   rendergl.obj
 0001:00119ed0       ?drawreflection@@YAXM_NHABUbvec@@@Z 0051aed0 f   rendergl.obj
 0001:0011aa00       ?rendergame@@YAX_N@Z       0051ba00 f   rendergl.obj
 0001:0011aa30       ?drawfogoverlay@@YAXHMH@Z  0051ba30 f   rendergl.obj
 0001:0011b120       ?var_fogcolour@@YAXXZ      0051c120 f   rendergl.obj
 0001:0011b150       ?setenvmatrix@@YAXXZ       0051c150 f   rendergl.obj
 0001:0011b240       ?popscissor@@YAXXZ         0051c240 f   rendergl.obj
 0001:0011b290       ?pushscissor@@YAHMMMM@Z    0051c290 f   rendergl.obj
 0001:0011b550       ?calcspherescissor@@YAXABUvec@@MAAM111@Z 0051c550 f   rendergl.obj
 0001:0011b8e0       ?popprojection@@YAXXZ      0051c8e0 f   rendergl.obj
 0001:0011b940       ?pushprojection@@YAXABUglmatrixf@@@Z 0051c940 f   rendergl.obj
 0001:0011b9a0       ?calcavatarpos@@YA?AUvec@@ABU1@M@Z 0051c9a0 f   rendergl.obj
 0001:0011bc20       ?project@@YAXMMH_N00M@Z    0051cc20 f   rendergl.obj
 0001:0011bd80       ?readmatrices@@YAXXZ       0051cd80 f   rendergl.obj
 0001:0011bde0       ?recomputecamera@@YAXXZ    0051cde0 f   rendergl.obj
 0001:0011c740       ?mousemove@@YAXHH@Z        0051d740 f   rendergl.obj
 0001:0011c920       ?fixcamerarange@@YAXXZ     0051d920 f   rendergl.obj
 0001:0011c990       ?isthirdperson@@YA_NXZ     0051d990 f   rendergl.obj
 0001:0011c9c0       ?computezoom@@YAXXZ        0051d9c0 f   rendergl.obj
 0001:0011cae0       ?disablezoom@@YAXXZ        0051dae0 f   rendergl.obj
 0001:0011cb00       ?transplayer@@YAXXZ        0051db00 f   rendergl.obj
 0001:0011cbe0       ?findorientation@@YAXXZ    0051dbe0 f   rendergl.obj
 0001:0011cf10       ?run@?$_icmd_getcampos@$0DEF@@@SAXXZ 0051df10 f   rendergl.obj
 0001:0011d040       ?run@?$_icmd_getcamroll@$0DEA@@@SAXXZ 0051e040 f   rendergl.obj
 0001:0011d060       ?run@?$_icmd_getcampitch@$0DDP@@@SAXXZ 0051e060 f   rendergl.obj
 0001:0011d080       ?run@?$_icmd_getcamyaw@$0DDO@@@SAXXZ 0051e080 f   rendergl.obj
 0001:0011d2d0       ?cleanupgl@@YAXXZ          0051e2d0 f   rendergl.obj
 0001:0011d350       ?gl_init@@YAXHHHHH@Z       0051e350 f   rendergl.obj
 0001:0011d570       ?glext@@YAXPAD@Z           0051e570 f   rendergl.obj
 0001:0011d5a0       ?gl_checkextensions@@YAXXZ 0051e5a0 f   rendergl.obj
 0001:0011e800       ?hasext@@YA_NPBD0@Z        0051f800 f   rendergl.obj
 0001:0011e8f0       ?getprocaddress@@YAPAXPBD@Z 0051f8f0 f   rendergl.obj
 0001:0011e900       ?cleanupmotionblur@@YAXXZ  0051f900 f   rendergl.obj
 0001:0011e940       ?clearminimap@@YAXXZ       0051f940 f   rendergl.obj
 0001:0011e970       ?defattrib@varray@@YAXHHI@Z 0051f970 f   rendergl.obj
 0001:0011ea70       ?begin@varray@@YAXI@Z      0051fa70 f   rendergl.obj
 0001:0011ea80       ?end@varray@@YAHXZ         0051fa80 f   rendergl.obj
 0001:0011ec10       ?enable@varray@@YAXXZ      0051fc10 f   rendergl.obj
 0001:0011ec50       ?disable@varray@@YAXXZ     0051fc50 f   rendergl.obj
 0001:0011ecd0       ?drawglare@@YAXXZ          0051fcd0 f   rendergl.obj
 0001:0011f060       ?start@modelpreview@@YAX_N@Z 00520060 f   rendergl.obj
 0001:0011f2b0       ?end@modelpreview@@YAXXZ   005202b0 f   rendergl.obj
 0001:0011f390       ?drawtextures@@YAXXZ       00520390 f   rendergl.obj
 0001:0011f3c0       ?enablepolygonoffset@@YAXI@Z 005203c0 f   rendergl.obj
 0001:0011f4e0       ?disablepolygonoffset@@YAXI@Z 005204e0 f   rendergl.obj
 0001:0011f560       ?invalidatepostfx@@YAXXZ   00520560 f   rendergl.obj
 0001:001203a0       ?setbbfrommodel@@YAXPAUdynent@@PBD@Z 005213a0 f   rendermodel.obj
 0001:00120490       ?renderclient@@YAXPAUdynent@@PBDPAUmodelattach@@HHHHHM_N@Z 00521490 f   rendermodel.obj
 0001:001207c0       ?loadskin@@YAXPBD0AAPAUTexture@@1@Z 005217c0 f   rendermodel.obj
 0001:001209a0       ?run@?$_icmd_findanims@$0DPC@@@SAXPAD@Z 005219a0 f   rendermodel.obj
 0001:00120b90       ?findanims@@YAXPBDAAU?$vector@H@@@Z 00521b90 f   rendermodel.obj
 0001:00120be0       ?matchanim@@YA_NPBD0@Z     00521be0 f   rendermodel.obj
 0001:00120c60       ?abovemodel@@YAXAAUvec@@PBD@Z 00521c60 f   rendermodel.obj
 0001:00120d10       ?rendermodelquery@@YAXPAUmodel@@PAUdynent@@ABUvec@@M@Z 00521d10 f   rendermodel.obj
 0001:00120ef0       ?endmodelquery@@YAXXZ      00521ef0 f   rendermodel.obj
 0001:00121020       ?startmodelquery@@YAXPAUoccludequery@@@Z 00522020 f   rendermodel.obj
 0001:00121030       ?endmodelbatches@@YAXXZ    00522030 f   rendermodel.obj
 0001:001215d0       ?renderbatchedmodel@@YAXPAUmodel@@AAUbatchedmodel@@@Z 005225d0 f   rendermodel.obj
 0001:00121750       ?addbatchedmodel@@YAAAUmodelbatch@@PAUmodel@@@Z 00522750 f   rendermodel.obj
 0001:00121850       ?startmodelbatches@@YAXXZ  00522850 f   rendermodel.obj
 0001:00121870       ?renderellipse@@YAXAAUvec@@MMM@Z 00522870 f   rendermodel.obj
 0001:001219d0       ?render3dbox@@YAXAAUvec@@MMMM@Z 005229d0 f   rendermodel.obj
 0001:00121e00       ?render2dbox@@YAXAAUvec@@MMM@Z 00522e00 f   rendermodel.obj
 0001:00121ef0       ?modeloccluded@@YA_NABUvec@@M@Z 00522ef0 f   rendermodel.obj
 0001:00121fc0       ?clearmodel@@YAXPAD@Z      00522fc0 f   rendermodel.obj
 0001:00122060       ?cleanupmodels@@YAXXZ      00523060 f   rendermodel.obj
 0001:001220a0       ?clear_mdls@@YAXXZ         005230a0 f   rendermodel.obj
 0001:001220f0       ?preloadmodelshaders@@YAXXZ 005230f0 f   rendermodel.obj
 0001:00122140       ?preloadmodel@@YAXPBD@Z    00523140 f   rendermodel.obj
 0001:001221b0       ?run@?$_icmd_nummapmodels@$0BGA@@@SAXXZ 005231b0 f   rendermodel.obj
 0001:001221d0       ?run@?$_icmd_mapmodelname@$0BFP@@@SAXPAH@Z 005231d0 f   rendermodel.obj
 0001:00122240       ?mapmodelname@@YAPBDH@Z    00523240 f   rendermodel.obj
 0001:00122260       ?getmminfo@@YAPAUmapmodelinfo@@H@Z 00523260 f   rendermodel.obj
 0001:00122280       ?mapmodelreset@@YAXPAH@Z   00523280 f   rendermodel.obj
 0001:001222c0       ?mapmodelcompat@@YAXPAH00PAD1@Z 005232c0 f   rendermodel.obj
 0001:001222d0       ?mmodel@@YAXPAD@Z          005232d0 f   rendermodel.obj
 0001:00122340       ?rdanimjoints@@YAXPAH@Z    00523340 f   rendermodel.obj
 0001:00122410       ?rdlimitrot@@YAXPAH0PAM1111@Z 00523410 f   rendermodel.obj
 0001:00122590       ?rdlimitdist@@YAXPAH0PAM1@Z 00523590 f   rendermodel.obj
 0001:001226b0       ?rdjoint@@YAXPAH0000@Z     005236b0 f   rendermodel.obj
 0001:001227e0       ?rdtri@@YAXPAH00@Z         005237e0 f   rendermodel.obj
 0001:001228f0       ?rdeye@@YAXPAH@Z           005238f0 f   rendermodel.obj
 0001:001229c0       ?rdvert@@YAXPAM000@Z       005239c0 f   rendermodel.obj
 0001:00122b00       ?mdlname@@YAXXZ            00523b00 f   rendermodel.obj
 0001:00122b30       ?mdlextendbb@@YAXPAM00@Z   00523b30 f   rendermodel.obj
 0001:00122b90       ?mdlbb@@YAXPAM00@Z         00523b90 f   rendermodel.obj
 0001:00122bd0       ?mdlshadow@@YAXPAH@Z       00523bd0 f   rendermodel.obj
 0001:00122c00       ?mdlpitch@@YAXPAM@Z        00523c00 f   rendermodel.obj
 0001:00122c30       ?mdlyaw@@YAXPAM@Z          00523c30 f   rendermodel.obj
 0001:00122c60       ?mdltrans@@YAXPAM00@Z      00523c60 f   rendermodel.obj
 0001:00122cc0       ?mdlscale@@YAXPAH@Z        00523cc0 f   rendermodel.obj
 0001:00122d10       ?mdlspin@@YAXPAM0@Z        00523d10 f   rendermodel.obj
 0001:00122d50       ?mdlshader@@YAXPAD@Z       00523d50 f   rendermodel.obj
 0001:00122da0       ?mdlfullbright@@YAXPAM@Z   00523da0 f   rendermodel.obj
 0001:00122dd0       ?mdlenvmap@@YAXPAM0PAD@Z   00523dd0 f   rendermodel.obj
 0001:00122e30       ?mdlglare@@YAXPAM0@Z       00523e30 f   rendermodel.obj
 0001:00122e80       ?mdlglow@@YAXPAH0PAM@Z     00523e80 f   rendermodel.obj
 0001:00122f10       ?mdldepthoffset@@YAXPAH@Z  00523f10 f   rendermodel.obj
 0001:00122f40       ?mdlalphadepth@@YAXPAH@Z   00523f40 f   rendermodel.obj
 0001:00122f70       ?mdlalphablend@@YAXPAH@Z   00523f70 f   rendermodel.obj
 0001:00122fa0       ?mdlalphatest@@YAXPAM@Z    00523fa0 f   rendermodel.obj
 0001:00122ff0       ?mdlambient@@YAXPAH@Z      00523ff0 f   rendermodel.obj
 0001:00123050       ?mdlspec@@YAXPAH@Z         00524050 f   rendermodel.obj
 0001:001230b0       ?mdlellipsecollide@@YAXPAH@Z 005240b0 f   rendermodel.obj
 0001:001230e0       ?mdlcollide@@YAXPAH@Z      005240e0 f   rendermodel.obj
 0001:00123110       ?mdlcullface@@YAXPAH@Z     00524110 f   rendermodel.obj
 0001:00123550       ?var_bumpmodels@@YAXXZ     00524550 f   rendermodel.obj
 0001:00123560       ?var_glowmodels@@YAXXZ     00524560 f   rendermodel.obj
 0001:00123570       ?var_envmapmodels@@YAXXZ   00524570 f   rendermodel.obj
 0001:00123580       ?var_lightmodels@@YAXXZ    00524580 f   rendermodel.obj
 0001:00123590       ?cleanragdoll@@YAXPAUdynent@@@Z 00524590 f   rendermodel.obj
 0001:001235b0       ?moveragdoll@@YAXPAUdynent@@@Z 005245b0 f   rendermodel.obj
 0001:00123750       ?move@ragdolldata@@QAEXPAUdynent@@M@Z 00524750 f   rendermodel.obj
 0001:00123d70       ?constrain@ragdolldata@@QAEXXZ 00524d70 f   rendermodel.obj
 0001:00123db0       ?updatepos@ragdolldata@@QAEXXZ 00524db0 f   rendermodel.obj
 0001:00123ff0       ?tryunstick@ragdolldata@@QAEXM@Z 00524ff0 f   rendermodel.obj
 0001:00124200       ?applyrotfriction@ragdolldata@@QAEXM@Z 00525200 f   rendermodel.obj
 0001:00124400       ?calcrotfriction@ragdolldata@@QAEXXZ 00525400 f   rendermodel.obj
 0001:00124620       ?constrainrot@ragdolldata@@QAEXXZ 00525620 f   rendermodel.obj
 0001:00124720       ?constraindist@ragdolldata@@QAEXXZ 00525720 f   rendermodel.obj
 0001:001249e0       ?rendermodel@@YAXPAUentitylight@@PBDHABUvec@@MMHPAUdynent@@PAUmodelattach@@HHM@Z 005259e0 f   rendermodel.obj
 0001:00125600       ?flushpreloadedmodels@@YAX_N@Z 00526600 f   rendermodel.obj
 0001:001256c0       ?preloadusedmapmodels@@YAX_N0@Z 005266c0 f   rendermodel.obj
 0001:00125870       ?loadmodel@@YAPAUmodel@@PBDH_N@Z 00526870 f   rendermodel.obj
 0001:00125ff0       ?updateparticles@@YAXXZ    00526ff0 f   renderparticles.obj
 0001:00126ac0       ?regular_particle_flame@@YAXHABUvec@@MMHHMMMH@Z 00527ac0 f   renderparticles.obj
 0001:00126cd0       ?regularshape@@YAXHHHHHHABUvec@@MHH@Z 00527cd0 f   renderparticles.obj
 0001:00127700       ?particle_fireball@@YAXABUvec@@MHHHM@Z 00528700 f   renderparticles.obj
 0001:00127790       ?particle_flare@@YAXABUvec@@0HHHMPAUphysent@@@Z 00528790 f   renderparticles.obj
 0001:001277e0       ?particle_meter@@YAXABUvec@@MHHHHM@Z 005287e0 f   renderparticles.obj
 0001:00127890       ?particle_icon@@YAXABUvec@@HHHHHMH@Z 00528890 f   renderparticles.obj
 0001:00127900       ?particle_textcopy@@YAXABUvec@@PBDHHHMH@Z 00528900 f   renderparticles.obj
 0001:001279f0       ?particle_text@@YAXABUvec@@PBDHHHMH@Z 005289f0 f   renderparticles.obj
 0001:00127ad0       ?particle_trail@@YAXHHABUvec@@0HMH@Z 00528ad0 f   renderparticles.obj
 0001:00127cc0       ?particle_splash@@YAXHHHABUvec@@HMHH@Z 00528cc0 f   renderparticles.obj
 0001:00127d10       ?regular_particle_splash@@YAXHHHABUvec@@HMHHH@Z 00528d10 f   renderparticles.obj
 0001:00127d80       ?canaddparticles@@YA_NXZ   00528d80 f   renderparticles.obj
 0001:00128100       ?removetrackedparticles@@YAXPAUphysent@@@Z 00529100 f   renderparticles.obj
 0001:00128130       ?cleanupparticles@@YAXXZ   00529130 f   renderparticles.obj
 0001:00128150       ?particleinit@@YAXXZ       00529150 f   renderparticles.obj
 0001:00128200       ?var_fewparticles@@YAXXZ   00529200 f   renderparticles.obj
 0001:00128210       ?var_maxparticles@@YAXXZ   00529210 f   renderparticles.obj
 0001:0012a4a0       ?binddepthfxparams@@YAXMM_NPAX@Z 0052b4a0 f   renderparticles.obj
 0001:0012a7d0       ?binddepthfxtex@@YA_NXZ    0052b7d0 f   renderparticles.obj
 0001:0012a8f0       ?cleanupdepthfx@@YAXXZ     0052b8f0 f   renderparticles.obj
 0001:0012a990       ?var_depthfxfilter@@YAXXZ  0052b990 f   renderparticles.obj
 0001:0012a9a0       ?var_depthfxrect@@YAXXZ    0052b9a0 f   renderparticles.obj
 0001:0012a9b0       ?var_depthfxsize@@YAXXZ    0052b9b0 f   renderparticles.obj
 0001:0012a9c0       ?var_fpdepthfx@@YAXXZ      0052b9c0 f   renderparticles.obj
 0001:0012a9d0       ?addparticleemitters@@YAXXZ 0052b9d0 f   renderparticles.obj
 0001:0012aab0       ?finddepthfxranges@@YAXXZ  0052bab0 f   renderparticles.obj
 0001:0012ac20       ?renderparticles@@YAX_N@Z  0052bc20 f   renderparticles.obj
 0001:0012b4e0       ?drawdepthfxtex@@YAXXZ     0052c4e0 f   renderparticles.obj
 0001:0012b550       ?viewdepthfxtex@@YAXXZ     0052c550 f   renderparticles.obj
 0001:0012b570       ?clearparticleemitters@@YAXXZ 0052c570 f   renderparticles.obj
 0001:0012b590       ?printparticles@@YA_NAAUextentity@@PAD@Z 0052c590 f   renderparticles.obj
 0001:0012b6c0       ?clearparticles@@YAXXZ     0052c6c0 f   renderparticles.obj
 0001:0012b700       ?seedparticles@@YAXXZ      0052c700 f   renderparticles.obj
 0001:0012bdf0       ?drawskyoutline@@YAXXZ     0052cdf0 f   rendersky.obj
 0001:0012bf10       ?drawskylimits@@YA_N_N@Z   0052cf10 f   rendersky.obj
 0001:0012bf80       ?cleanupsky@@YAXXZ         0052cf80 f   rendersky.obj
 0001:0012c1e0       ?var_fogdomecolour@@YAXXZ  0052d1e0 f   rendersky.obj
 0001:0012cd00       ?draw_env_overlay@@YAXHPAUTexture@@MM@Z 0052dd00 f   rendersky.obj
 0001:0012d0f0       ?draw_envbox@@YAXHMMHPAPAUTexture@@@Z 0052e0f0 f   rendersky.obj
 0001:0012d490       ?draw_envbox_face@@YAXMMHHHMMHHHMMHHHMMHHHI@Z 0052e490 f   rendersky.obj
 0001:0012d610       ?var_cloudlayer@@YAXXZ     0052e610 f   rendersky.obj
 0001:0012d630       ?var_cloudbox@@YAXXZ       0052e630 f   rendersky.obj
 0001:0012d650       ?var_skybox@@YAXXZ         0052e650 f   rendersky.obj
 0001:0012d670       ?loadskyoverlay@@YAPAUTexture@@PBD@Z 0052e670 f   rendersky.obj
 0001:0012d750       ?loadsky@@YAXPBDQAPAUTexture@@@Z 0052e750 f   rendersky.obj
 0001:0012d9c0       ?drawskybox@@YAXH_N@Z      0052e9c0 f   rendersky.obj
 0001:0012e390       ?limitsky@@YA_NXZ          0052f390 f   rendersky.obj
 0001:0012e490       ?reloadfonts@@YAXXZ        0052f490 f   rendertext.obj
 0001:0012e9c0       ?tabify@@YAXPBDPAH@Z       0052f9c0 f   rendertext.obj
 0001:0012eac0       ?popfont@@YA_NXZ           0052fac0 f   rendertext.obj
 0001:0012eaf0       ?pushfont@@YAXXZ           0052faf0 f   rendertext.obj
 0001:0012eb30       ?setfont@@YA_NPBD@Z        0052fb30 f   rendertext.obj
 0001:0012eb50       ?fontalias@@YAXPBD0@Z      0052fb50 f   rendertext.obj
 0001:0012ebc0       ?fontskip@@YAXPAH@Z        0052fbc0 f   rendertext.obj
 0001:0012ec30       ?fontchar@@YAXPAH000000@Z  0052fc30 f   rendertext.obj
 0001:0012ece0       ?fonttex@@YAXPAD@Z         0052fce0 f   rendertext.obj
 0001:0012ed60       ?fontscale@@YAXPAH@Z       0052fd60 f   rendertext.obj
 0001:0012ed80       ?fontoffset@@YAXPAD@Z      0052fd80 f   rendertext.obj
 0001:0012eda0       ?newfont@@YAXPAD0PAH1@Z    0052fda0 f   rendertext.obj
 0001:0012eeb0       ?gettextres@@YAXAAH0@Z     0052feb0 f   rendertext.obj
 0001:0012ef00       ?draw_textf@@YAXPBDHHZZ    0052ff00 f   rendertext.obj
 0001:0012ef70       ?text_posf@@YAXPBDHAAM1H@Z 0052ff70 f   rendertext.obj
 0001:0012f270       ?text_visible@@YAHPBDMMH@Z 00530270 f   rendertext.obj
 0001:0012f500       ?text_boundsf@@YAXPBDAAM1H@Z 00530500 f   rendertext.obj
 0001:0012f6f0       ?draw_text@@YAXPBDHHHHHHHH@Z 005306f0 f   rendertext.obj
 0001:0012fcd0       ?text_widthf@@YAMPBD@Z     00530cd0 f   rendertext.obj
 0001:0012fe30       ?renderreflectedskyvas@@YAXAAU?$vector@PAUvtxarray@@@@H@Z 00530e30 f   renderva.obj
 0001:0012ff40       ?renderskyva@@YAXPAUvtxarray@@_N@Z 00530f40 f   renderva.obj
 0001:00130030       ?findreflectedvas@@YAXAAU?$vector@PAUvtxarray@@@@H@Z 00531030 f   renderva.obj
 0001:00130500       ?cleanupTMUs@@YAXAAUrenderstate@@M_N@Z 00531500 f   renderva.obj
 0001:001306e0       ?setupTMUs@@YAXAAUrenderstate@@M_N@Z 005316e0 f   renderva.obj
 0001:00130d60       ?setupcaustics@@YAXHMPAM@Z 00531d60 f   renderva.obj
 0001:00131340       ?var_caustics@@YAXXZ       00532340 f   renderva.obj
 0001:00131350       ?cleanupva@@YAXXZ          00532350 f   renderva.obj
 0001:001316f0       ?renderva@@YAXAAUrenderstate@@PAUvtxarray@@H_N2@Z 005326f0 f   renderva.obj
 0001:00131b10       ?rendershadowmappass@@YAXAAUrenderstate@@PAUvtxarray@@@Z 00532b10 f   renderva.obj
 0001:00131bf0       ?renderfoggedvas@@YAXAAUrenderstate@@_N@Z 00532bf0 f   renderva.obj
 0001:00131db0       ?renderzpass@@YAXAAUrenderstate@@PAUvtxarray@@@Z 00532db0 f   renderva.obj
 0001:00134740       ?renderquery@@YAXAAUrenderstate@@PAUoccludequery@@PAUvtxarray@@_N@Z 00535740 f   renderva.obj
 0001:00134890       ?rendershadowmapreceivers@@YAXXZ 00535890 f   renderva.obj
 0001:00134c70       ?rendermapmodel@@YAXAAUextentity@@@Z 00535c70 f   renderva.obj
 0001:00134d10       ?findvisiblemms@@YAXABU?$vector@PAUextentity@@@@@Z 00535d10 f   renderva.obj
 0001:00134ff0       ?clearqueries@@YAXXZ       00535ff0 f   renderva.obj
 0001:00135040       ?flipqueries@@YAXXZ        00536040 f   renderva.obj
 0001:00135120       ?restorevfcP@@YAXXZ        00536120 f   renderva.obj
 0001:00135180       ?savevfcP@@YAXXZ           00536180 f   renderva.obj
 0001:001351e0       ?setvfcP@@YAXMABUvec@@0@Z  005361e0 f   renderva.obj
 0001:001356e0       ?calcvfcD@@YAXXZ           005366e0 f   renderva.obj
 0001:001357a0       ?findvisiblevas@@YAXAAU?$vector@PAUvtxarray@@@@_N@Z 005367a0 f   renderva.obj
 0001:001358a0       ?sortvisiblevas@@YAXXZ     005368a0 f   renderva.obj
 0001:001358e0       ?addvisibleva@@YAXPAUvtxarray@@@Z 005368e0 f   renderva.obj
 0001:00135a10       ?vadist@@YAMPAUvtxarray@@ABUvec@@@Z 00536a10 f   renderva.obj
 0001:00135af0       ?isvisiblecube@@YAHABUivec@@H@Z 00536af0 f   renderva.obj
 0001:00135da0       ?rendersky@@YA_N_N@Z       00536da0 f   renderva.obj
 0001:00135ee0       ?renderdepthobstacles@@YAXABUvec@@0MPAMH@Z 00536ee0 f   renderva.obj
 0001:001366a0       ?bboccluded@@YA_NABUivec@@0@Z 005376a0 f   renderva.obj
 0001:00136880       ?newquery@@YAPAUoccludequery@@PAX@Z 00537880 f   renderva.obj
 0001:001368e0       ?drawbb@@YAXABUivec@@0ABUvec@@@Z 005378e0 f   renderva.obj
 0001:00136e60       ?checkquery@@YA_NPAUoccludequery@@_N@Z 00537e60 f   renderva.obj
 0001:00136ec0       ?rendergeom@@YAXM_N@Z      00537ec0 f   renderva.obj
 0001:00138320       ?renderreflectedmapmodels@@YAXXZ 00539320 f   renderva.obj
 0001:001384a0       ?renderalphageom@@YAX_N@Z  005394a0 f   renderva.obj
 0001:00138bb0       ?renderreflectedgeom@@YAX_N0@Z 00539bb0 f   renderva.obj
 0001:00138c00       ?visiblecubes@@YAX_N@Z     00539c00 f   renderva.obj
 0001:00138d20       ?rendermapmodels@@YAXXZ    00539d20 f   renderva.obj
 0001:00139040       ?renderoutline@@YAXXZ      0053a040 f   renderva.obj
 0001:00139340       ?getnumqueries@@YAHXZ      0053a340 f   renderva.obj
 0001:00139360       ?loadcaustics@@YAX_N@Z     0053a360 f   renderva.obj
 0001:00139430       ?isfoggedsphere@@YA_NMABUvec@@@Z 0053a430 f   renderva.obj
 0001:001394d0       ?resetqueries@@YAXXZ       0053a4d0 f   renderva.obj
 0001:00139500       ?isvisiblesphere@@YAHMABUvec@@@Z 0053a500 f   renderva.obj
 0001:00139590       ?renderblendbrush@@YAXIMMMM@Z 0053a590 f   renderva.obj
 0001:00139ef0       ?reloadshaders@@YAXXZ      0053aef0 f   shader.obj
 0001:0013a080       ?cleanupshaders@@YAXXZ     0053b080 f   shader.obj
 0001:0013a2c0       ?committmufunc@@YAXI_NAAUtmufunc@@1@Z 0053b2c0 f   shader.obj
 0001:0013a410       ?parsetmufunc@@YAXAAUtmu@@AAUtmufunc@@PBD@Z 0053b410 f   shader.obj
 0001:0013a650       ?run@?$_icmd_setpostfx@$0IBA@@@SAXPADPAM111@Z 0053b650 f   shader.obj
 0001:0013a6d0       ?run@?$_icmd_addpostfx@$0IAK@@@SAXPADPAH10PAM222@Z 0053b6d0 f   shader.obj
 0001:0013a860       ?clearpostfx@@YAXXZ        0053b860 f   shader.obj
 0001:0013a920       ?cleanuppostfx@@YAX_N@Z    0053b920 f   shader.obj
 0001:0013ab50       ?run@?$_icmd_defuniformparam@$0HFA@@@SAXPADPAM111@Z 0053bb50 f   shader.obj
 0001:0013aba0       ?run@?$_icmd_defpixelparam@$0HEP@@@SAXPADPAHPAM222@Z 0053bba0 f   shader.obj
 0001:0013ac00       ?run@?$_icmd_defvertexparam@$0HEO@@@SAXPADPAHPAM222@Z 0053bc00 f   shader.obj
 0001:0013ac60       ?run@?$_icmd_setshaderparam@$0HEN@@@SAXPADPAM111@Z 0053bc60 f   shader.obj
 0001:0013acb0       ?run@?$_icmd_setuniformparam@$0HEM@@@SAXPADPAM111@Z 0053bcb0 f   shader.obj
 0001:0013ad00       ?run@?$_icmd_setpixelparam@$0HEL@@@SAXPAHPAM111@Z 0053bd00 f   shader.obj
 0001:0013ad50       ?run@?$_icmd_setvertexparam@$0HEK@@@SAXPAHPAM111@Z 0053bd50 f   shader.obj
 0001:0013ada0       ?addshaderparam@@YAXPBDHHMMMM@Z 0053bda0 f   shader.obj
 0001:0013aef0       ?isshadernative@@YAXPAD@Z  0053bef0 f   shader.obj
 0001:0013af40       ?isshaderdefined@@YAXPAD@Z 0053bf40 f   shader.obj
 0001:0013af80       ?run@?$_icmd_forceshader@$0HBG@@@SAXPBD@Z 0053bf80 f   shader.obj
 0001:0013afc0       ?fastshader@@YAXPAD0PAH@Z  0053bfc0 f   shader.obj
 0001:0013b030       ?altshader@@YAXPAD0@Z      0053c030 f   shader.obj
 0001:0013b060       ?linkvslotshader@@YAXAAUVSlot@@_N@Z 0053c060 f   shader.obj
 0001:0013b220       ?linkslotshader@@YAXAAUSlot@@_N@Z 0053c220 f   shader.obj
 0001:0013b360       ?setslotshader@@YAXAAUSlot@@@Z 0053c360 f   shader.obj
 0001:0013b3e0       ?resetslotshader@@YAXXZ    0053c3e0 f   shader.obj
 0001:0013b400       ?findshaderparam@@YAPAUShaderParam@@AAUVSlot@@PBDHH@Z 0053c400 f   shader.obj
 0001:0013b540       ?findshaderparam@@YAPAUShaderParam@@AAUSlot@@PBDHH@Z 0053c540 f   shader.obj
 0001:0013b620       ?setshader@@YAXPAD@Z       0053c620 f   shader.obj
 0001:0013b670       ?variantshader@@YAXPAHPAD011@Z 0053c670 f   shader.obj
 0001:0013b9e0       ?shader@@YAXPAHPAD11@Z     0053c9e0 f   shader.obj
 0001:0013bdb0       ?fixdetailshader@Shader@@QAEX_N0@Z 0053cdb0 f   shader.obj
 0001:0013be90       ?var_shaderdetail@@YAXXZ   0053ce90 f   shader.obj
 0001:0013bea0       ?var_nativeshaders@@YAXXZ  0053cea0 f   shader.obj
 0001:0013beb0       ?fixshaderdetail@@YAXXZ    0053ceb0 f   shader.obj
 0001:0013bf50       ?useshader@@YAXPAUShader@@@Z 0053cf50 f   shader.obj
 0001:0013c010       ?defershader@@YAXPAHPBD1@Z 0053d010 f   shader.obj
 0001:0013e590       ?genemufog@@YAXAAU?$vector@D@@0HH@Z 0053f590 f   shader.obj
 0001:0013eab0       ?newshader@@YAPAUShader@@HPBD00PAU1@H@Z 0053fab0 f   shader.obj
 0001:0013f3a0       ?cleanup@Shader@@QAEX_N@Z  005403a0 f   shader.obj
 0001:0013f590       ?compile@Shader@@QAE_NXZ   00540590 f   shader.obj
 0001:0013f790       ?var_forceglsl@@YAXXZ      00540790 f   shader.obj
 0001:0013f7b0       ?var_shaderprecision@@YAXXZ 005407b0 f   shader.obj
 0001:0013f7d0       ?var_shaders@@YAXXZ        005407d0 f   shader.obj
 0001:0013fe00       ?allocenvparams@Shader@@QAEXPAUSlot@@@Z 00540e00 f   shader.obj
 0001:00140f20       ?loadshaders@@YAXXZ        00541f20 f   shader.obj
 0001:001411a0       ?setslotparams@Shader@@QAEXAAUSlot@@AAUVSlot@@@Z 005421a0 f   shader.obj
 0001:001411e0       ?invalidateenvparams@@YAXHHH@Z 005421e0 f   shader.obj
 0001:00141210       ?setlocalparamfv@@YAXPBDHHPBM@Z 00542210 f   shader.obj
 0001:00141240       ?scaletmu@@YAXHHH@Z        00542240 f   shader.obj
 0001:00141280       ?uniformlocversion@Shader@@SAHXZ 00542280 f   shader.obj
 0001:00141300       ?inittmus@@YAXXZ           00542300 f   shader.obj
 0001:00141450       ?renderpostfx@@YAXXZ       00542450 f   shader.obj
 0001:00141c30       ?setupshaders@@YAXXZ       00542c30 f   shader.obj
 0001:00141e10       ?checkglslsupport@@YA_NXZ  00542e10 f   shader.obj
 0001:00141f20       ?colortmu@@YAXHMMMM@Z      00542f20 f   shader.obj
 0001:00141fc0       ?setupblurkernel@@YAXHMPAM0@Z 00542fc0 f   shader.obj
 0001:00142450       ?setblurshader@@YAXHHHPAM0I@Z 00543450 f   shader.obj
 0001:00142a80       ?setlocalparamf@@YAXPBDHHMMMM@Z 00543a80 f   shader.obj
 0001:00142b50       ?setenvparamf@@YAXPBDHHMMMM@Z 00543b50 f   shader.obj
 0001:00142c20       ?setuptmu@@YAXHPBD0@Z      00543c20 f   shader.obj
 0001:00142d40       ?resettmu@@YAXH@Z          00543d40 f   shader.obj
 0001:00142dc0       ?useshaderbyname@@YAPAUShader@@PBD@Z 00543dc0 f   shader.obj
 0001:00142e00       ?flushenvparams@Shader@@QAEXPAUSlot@@@Z 00543e00 f   shader.obj
 0001:00142f10       ?bindprograms@Shader@@QAEXXZ 00543f10 f   shader.obj
 0001:00142f80       ?getshaderparamname@@YAPBDPBD@Z 00543f80 f   shader.obj
 0001:00142ff0       ?lookupshaderbyname@@YAPAUShader@@PBD@Z 00543ff0 f   shader.obj
 0001:00143060       ?calcshadowmapbb@@YAXABUvec@@MMAAM111@Z 00544060 f   shadowmap.obj
 0001:001439e0       ?cleanshadowmap@@YAXXZ     005449e0 f   shadowmap.obj
 0001:00143a80       ?var_shadowmapangle@@YAXXZ 00544a80 f   shadowmap.obj
 0001:00143b20       ?setshadowdir@@YAXH@Z      00544b20 f   shadowmap.obj
 0001:00143bc0       ?var_shadowmapambient@@YAXXZ 00544bc0 f   shadowmap.obj
 0001:00143c10       ?var_shadowmapprecision@@YAXXZ 00544c10 f   shadowmap.obj
 0001:00143c20       ?var_fpshadowmap@@YAXXZ    00544c20 f   shadowmap.obj
 0001:00143c30       ?var_shadowmapsize@@YAXXZ  00544c30 f   shadowmap.obj
 0001:00143c40       ?isshadowmapreceiver@@YA_NPAUvtxarray@@@Z 00544c40 f   shadowmap.obj
 0001:00143dd0       ?pushshadowmap@@YAXXZ      00544dd0 f   shadowmap.obj
 0001:00144290       ?popshadowmap@@YAXXZ       00545290 f   shadowmap.obj
 0001:001442d0       ?isshadowmapcaster@@YA_NABUvec@@M@Z 005452d0 f   shadowmap.obj
 0001:001443c0       ?addshadowmapcaster@@YA_NABUvec@@MM@Z 005453c0 f   shadowmap.obj
 0001:00144470       ?rendershadowmap@@YAXXZ    00545470 f   shadowmap.obj
 0001:001444f0       ?viewshadowmap@@YAXXZ      005454f0 f   shadowmap.obj
 0001:00144510       ?guessshadowdir@@YAXXZ     00545510 f   shadowmap.obj
 0001:00145d60       ?mergenormalmaps@@YAXPAD0@Z 00546d60 f   texture.obj
 0001:00146180       ?flipnormalmapy@@YAXPAD0@Z 00547180 f   texture.obj
 0001:00146370       ?screenshot@@YAXPAD@Z      00547370 f   texture.obj
 0001:00146610       ?saveimage@@YAXPBDHAAUImageData@@_N@Z 00547610 f   texture.obj
 0001:00146740       ?guessimageformat@@YAHPBDH@Z 00547740 f   texture.obj
 0001:001467b0       ?savetga@@YAXPBDAAUImageData@@_N@Z 005477b0 f   texture.obj
 0001:00146a70       ?writepngchunk@@YAXPAUstream@@PBDPAEI@Z 00547a70 f   texture.obj
 0001:00146b30       ?gendds@@YAXPAD0@Z         00547b30 f   texture.obj
 0001:00147020       ?loaddds@@YA_NPBDAAUImageData@@@Z 00548020 f   texture.obj
 0001:001471e0       ?reloadtextures@@YAXXZ     005481e0 f   texture.obj
 0001:00147380       ?reloadtex@@YAXPAD@Z       00548380 f   texture.obj
 0001:001474b0       ?reloadtexture@@YA_NPBD@Z  005484b0 f   texture.obj
 0001:00147520       ?cleanuptextures@@YAXXZ    00548520 f   texture.obj
 0001:00147690       ?cleanuptexture@@YAXPAUTexture@@@Z 00548690 f   texture.obj
 0001:001476e0       ?genenvmap@@YAIABUvec@@HH@Z 005486e0 f   texture.obj
 0001:00147bc0       ?clearenvmaps@@YAXXZ       00548bc0 f   texture.obj
 0001:00147c30       ?cubemaploadwildcard@@YAPAUTexture@@PAU1@PBD_N22@Z 00548c30 f   texture.obj
 0001:00148430       ?var_envmapsize@@YAXXZ     00549430 f   texture.obj
 0001:00148440       ?forcecubemapload@@YAXI@Z  00549440 f   texture.obj
 0001:0014aee0       ?texffenv@@YAXPAH@Z        0054bee0 f   texture.obj
 0001:0014af10       ?texcolor@@YAXPAM00@Z      0054bf10 f   texture.obj
 0001:0014afc0       ?texalpha@@YAXPAM0@Z       0054bfc0 f   texture.obj
 0001:0014b030       ?texlayer@@YAXPAHPAD0PAM@Z 0054c030 f   texture.obj
 0001:0014b0d0       ?texscale@@YAXPAM@Z        0054c0d0 f   texture.obj
 0001:0014b120       ?texrotate_@@YAXPAH@Z      0054c120 f   texture.obj
 0001:0014b170       ?texoffset_@@YAXPAH0@Z     0054c170 f   texture.obj
 0001:0014b1c0       ?texscroll@@YAXPAM0@Z      0054c1c0 f   texture.obj
 0001:0014b220       ?autograss@@YAXPAD@Z       0054c220 f   texture.obj
 0001:0014b280       ?texture@@YAXPAD0PAH11PAM@Z 0054c280 f   texture.obj
 0001:0014b4c0       ?findslottex@@YAHPBD@Z     0054c4c0 f   texture.obj
 0001:0014b520       ?run@?$_icmd_fixinsidefaces@$0GIO@@@SAXPAH@Z 0054c520 f   texture.obj
 0001:0014b7a0       ?findvslot@@YAPAUVSlot@@AAUSlot@@ABU1@1@Z 0054c7a0 f   texture.obj
 0001:0014c100       ?run@?$_icmd_compactvslots@$0FLK@@@SAXXZ 0054d100 f   texture.obj
 0001:0014c1a0       ?materialreset@@YAXXZ      0054d1a0 f   texture.obj
 0001:0014c1e0       ?texturereset@@YAXPAH@Z    0054d1e0 f   texture.obj
 0001:0014c370       ?settexture@@YA_NPBDH@Z    0054d370 f   texture.obj
 0001:0014cee0       ?loadsurface@@YAPAUSDL_Surface@@PBD@Z 0054dee0 f   texture.obj
 0001:0014cf80       ?canloadsurface@@YA_NPBD@Z 0054df80 f   texture.obj
 0001:0014cfc0       ?forcergbimage@@YAXAAUImageData@@@Z 0054dfc0 f   texture.obj
 0001:0014d150       ?scaleimage@@YAXAAUImageData@@HH@Z 0054e150 f   texture.obj
 0001:0014d260       ?texblur@@YAXAAUImageData@@HH@Z 0054e260 f   texture.obj
 0001:0014d3a0       ?texnormal@@YAXAAUImageData@@H@Z 0054e3a0 f   texture.obj
 0001:0014d620       ?texflip@@YAXAAUImageData@@@Z 0054e620 f   texture.obj
 0001:0014d750       ?fixsurfaceformat@@YAPAUSDL_Surface@@PAU1@@Z 0054e750 f   texture.obj
 0001:0014d820       ?checkgrayscale@@YA_NPAUSDL_Surface@@@Z 0054e820 f   texture.obj
 0001:0014d870       ?creatergbasurface@@YAPAUSDL_Surface@@PAU1@@Z 0054e870 f   texture.obj
 0001:0014d8d0       ?creatergbsurface@@YAPAUSDL_Surface@@PAU1@@Z 0054e8d0 f   texture.obj
 0001:0014d920       ?wrapsurface@@YAPAUSDL_Surface@@PAXHHH@Z 0054e920 f   texture.obj
 0001:0014ddf0       ?createcompressedtexture@@YAXHHHPAEHHHHHII@Z 0054edf0 f   texture.obj
 0001:0014de70       ?uncompressedformat@@YAII@Z 0054ee70 f   texture.obj
 0001:0014dfb0       ?textarget@@YAII@Z         0054efb0 f   texture.obj
 0001:0014dfd0       ?uploadcompressedtexture@@YAXIIIHHPAEHHH_N@Z 0054efd0 f   texture.obj
 0001:0014e0f0       ?uploadtexture@@YAXIIHHIIPAXHHH_N@Z 0054f0f0 f   texture.obj
 0001:0014e450       ?resizetexture@@YAXHH_N0IHAAH1@Z 0054f450 f   texture.obj
 0001:0014e5c0       ?var_usenp2@@YAXXZ         0054f5c0 f   texture.obj
 0001:0014e5e0       ?var_hwmipmap@@YAXXZ       0054f5e0 f   texture.obj
 0001:0014e600       ?formatsize@@YAHI@Z        0054f600 f   texture.obj
 0001:0014e640       ?compressedformat@@YAIIHHH@Z 0054f640 f   texture.obj
 0001:0014e6e0       ?var_aniso@@YAXXZ          0054f6e0 f   texture.obj
 0001:0014e700       ?var_bilinear@@YAXXZ       0054f700 f   texture.obj
 0001:0014e720       ?var_trilinear@@YAXXZ      0054f720 f   texture.obj
 0001:0014e740       ?var_texcompressquality@@YAXXZ 0054f740 f   texture.obj
 0001:0014e790       ?var_texcompress@@YAXXZ    0054f790 f   texture.obj
 0001:0014e7b0       ?var_texreduce@@YAXXZ      0054f7b0 f   texture.obj
 0001:0014e7d0       ?var_reducefilter@@YAXXZ   0054f7d0 f   texture.obj
 0001:0014e7f0       ?var_maxtexsize@@YAXXZ     0054f7f0 f   texture.obj
 0001:0014e810       ?texagrad@@YAXAAUImageData@@MMMM@Z 0054f810 f   texture.obj
 0001:0014e9c0       ?texpremul@@YAXAAUImageData@@@Z 0054f9c0 f   texture.obj
 0001:0014eac0       ?texgrey@@YAXAAUImageData@@@Z 0054fac0 f   texture.obj
 0001:0014ec90       ?texmix@@YAXAAUImageData@@HHHH@Z 0054fc90 f   texture.obj
 0001:0014ee80       ?texdecal@@YAXAAUImageData@@@Z 0054fe80 f   texture.obj
 0001:0014f000       ?texdup@@YAXAAUImageData@@HH@Z 00550000 f   texture.obj
 0001:0014f070       ?texffmask@@YAXAAUImageData@@MM@Z 00550070 f   texture.obj
 0001:0014f320       ?texcolormask@@YAXAAUImageData@@ABUvec@@1@Z 00550320 f   texture.obj
 0001:0014f550       ?texcolorify@@YAXAAUImageData@@ABUvec@@U2@@Z 00550550 f   texture.obj
 0001:0014f690       ?texmad@@YAXAAUImageData@@ABUvec@@1@Z 00550690 f   texture.obj
 0001:0014f770       ?texoffset@@YAXAAUImageData@@HH@Z 00550770 f   texture.obj
 0001:0014f900       ?texrotate@@YAXAAUImageData@@HH@Z 00550900 f   texture.obj
 0001:0014f950       ?texreorient@@YAXAAUImageData@@_N11H@Z 00550950 f   texture.obj
 0001:00152330       ?linkslotshaders@@YAXXZ    00553330 f   texture.obj
 0001:00152410       ?reloadtexture@@YA_NAAUTexture@@@Z 00553410 f   texture.obj
 0001:00152530       ?cubemapload@@YAPAUTexture@@PBD_N11@Z 00553530 f   texture.obj
 0001:00152680       ?setuptexcompress@@YAXXZ   00553680 f   texture.obj
 0001:001526d0       ?setuptexparameters@@YAXHPAXHHII@Z 005536d0 f   texture.obj
 0001:00152810       ?genenvmaps@@YAXXZ         00553810 f   texture.obj
 0001:001528f0       ?closestenvmap@@YAGABUvec@@@Z 005538f0 f   texture.obj
 0001:001529b0       ?lookupmaterialslot@@YAAAUMSlot@@H_N@Z 005539b0 f   texture.obj
 0001:001529f0       ?lookupenvmap@@YAIAAUSlot@@@Z 005539f0 f   texture.obj
 0001:00152a40       ?lookupenvmap@@YAIG@Z      00553a40 f   texture.obj
 0001:00152a90       ?loadalphamask@@YAXPAUTexture@@@Z 00553a90 f   texture.obj
 0001:00152c10       ?compactvslots@@YAHXZ      00553c10 f   texture.obj
 0001:00152f20       ?textureload@@YAPAUTexture@@PBDH_N1@Z 00553f20 f   texture.obj
 0001:00153060       ?clearslots@@YAXXZ         00554060 f   texture.obj
 0001:001530c0       ?closestenvmap@@YAGHHHHH@Z 005540c0 f   texture.obj
 0001:00153160       ?initenvmaps@@YAXXZ        00554160 f   texture.obj
 0001:001532c0       ?compactvslot@@YAXAAH@Z    005542c0 f   texture.obj
 0001:00153310       ?compactvslots@@YAXPAUcube@@H@Z 00554310 f   texture.obj
 0001:00153410       ?mergevslot@@YAXAAUVSlot@@ABU1@1@Z 00554410 f   texture.obj
 0001:001534f0       ?editvslot@@YAPAUVSlot@@ABU1@0@Z 005544f0 f   texture.obj
 0001:00153570       ?lookupslot@@YAAAUSlot@@H_N@Z 00554570 f   texture.obj
 0001:001535a0       ?loadthumbnail@@YAPAUTexture@@AAUSlot@@@Z 005545a0 f   texture.obj
 0001:00153d30       ?texalign@@YAHPAXHH@Z      00554d30 f   texture.obj
 0001:00153d50       ?blurtexture@@YAXHHHHPAEPBEH@Z 00554d50 f   texture.obj
 0001:00153e20       ?blurnormals@@YAXHHHPAUbvec@@PBU1@H@Z 00554e20 f   texture.obj
 0001:00153e80       ?lookupvslot@@YAAAUVSlot@@H_N@Z 00554e80 f   texture.obj
 0001:00153ef0       ?loadlayermasks@@YAXXZ     00554ef0 f   texture.obj
 0001:00153fd0       ?savepng@@YAXPBDAAUImageData@@_N@Z 00554fd0 f   texture.obj
 0001:001543e0       ?createtexture@@YAXHHHPAXHHIIHHH_NI@Z 005553e0 f   texture.obj
 0001:00154600       ?loadimage@@YA_NPBDAAUImageData@@@Z 00555600 f   texture.obj
 0001:00155090       ?maskreflection@@YAXAAUReflection@@M_N1@Z 00556090 f   water.obj
 0001:00155490       ?queryreflection@@YAXAAUReflection@@_N@Z 00556490 f   water.obj
 0001:00155a80       ?addreflection@@YAXAAUmaterialsurface@@@Z 00556a80 f   water.obj
 0001:00155bf0       ?addwaterfallrefraction@@YAXAAUmaterialsurface@@@Z 00556bf0 f   water.obj
 0001:00155c80       ?genwatertex@@YAXAAI00_N@Z 00556c80 f   water.obj
 0001:00155ff0       ?var_reflectsize@@YAXXZ    00556ff0 f   water.obj
 0001:00156000       ?cleanreflection@@YAXAAUReflection@@@Z 00557000 f   water.obj
 0001:00156060       ?var_waterfade@@YAXXZ      00557060 f   water.obj
 0001:00156070       ?renderwaterff@@YAXXZ      00557070 f   water.obj
 0001:001566e0       ?cleanupwaterTMUs@@YAX_N@Z 005576e0 f   water.obj
 0001:00156760       ?setupreflectTMUs@@YAXXZ   00557760 f   water.obj
 0001:00156800       ?setuprefractTMUs@@YAXXZ   00557800 f   water.obj
 0001:001568d0       ?setprojtexmatrix@@YAXAAUReflection@@_N@Z 005578d0 f   water.obj
 0001:00156930       ?var_lava4colour@@YAXXZ    00557930 f   water.obj
 0001:00156970       ?var_lava3colour@@YAXXZ    00557970 f   water.obj
 0001:001569b0       ?var_lava2colour@@YAXXZ    005579b0 f   water.obj
 0001:001569f0       ?var_lavacolour@@YAXXZ     005579f0 f   water.obj
 0001:00156a30       ?getwaterspec@@YAHH@Z      00557a30 f   water.obj
 0001:00156a60       ?var_water4fallcolour@@YAXXZ 00557a60 f   water.obj
 0001:00156a90       ?var_water4colour@@YAXXZ   00557a90 f   water.obj
 0001:00156ad0       ?var_water3fallcolour@@YAXXZ 00557ad0 f   water.obj
 0001:00156b00       ?var_water3colour@@YAXXZ   00557b00 f   water.obj
 0001:00156b40       ?var_water2fallcolour@@YAXXZ 00557b40 f   water.obj
 0001:00156b70       ?var_water2colour@@YAXXZ   00557b70 f   water.obj
 0001:00156bb0       ?var_waterfallcolour@@YAXXZ 00557bb0 f   water.obj
 0001:00156be0       ?var_watercolour@@YAXXZ    00557be0 f   water.obj
 0001:00156ca0       ?var_vertwater@@YAXXZ      00557ca0 f   water.obj
 0001:00156cb0       ?renderflatwater@@YAXHHHHHH@Z 00557cb0 f   water.obj
 0001:001572c0       ?renderwaterlod@@YAHHHHHH@Z 005582c0 f   water.obj
 0001:00157490       ?calcwatersubdiv@@YAHHHHH@Z 00558490 f   water.obj
 0001:001575d0       ?rendervertwater@@YAXHHHHHH@Z 005585d0 f   water.obj
 0001:0015a0d0       ?var_waterfallrefract@@YAXXZ 0055b0d0 f   water.obj
 0001:0015a0e0       ?var_waterenvmap@@YAXXZ    0055b0e0 f   water.obj
 0001:0015a0f0       ?var_waterrefract@@YAXXZ   0055b0f0 f   water.obj
 0001:0015a100       ?var_waterreflect@@YAXXZ   0055b100 f   water.obj
 0001:0015a110       ?getlavacolor@@YAABUbvec@@H@Z 0055b110 f   water.obj
 0001:0015a140       ?getlavafog@@YAHH@Z        0055b140 f   water.obj
 0001:0015a170       ?renderwater@@YAXXZ        0055b170 f   water.obj
 0001:0015b380       ?queryreflections@@YAXXZ   0055c380 f   water.obj
 0001:0015b750       ?drawreflections@@YAXXZ    0055c750 f   water.obj
 0001:0015c050       ?preloadwatershaders@@YAX_N@Z 0055d050 f   water.obj
 0001:0015c260       ?getwatercolor@@YAABUbvec@@H@Z 0055d260 f   water.obj
 0001:0015c290       ?getwaterfallcolor@@YAABUbvec@@H@Z 0055d290 f   water.obj
 0001:0015c2c0       ?getwaterfog@@YAHH@Z       0055d2c0 f   water.obj
 0001:0015c2f0       ?renderlava@@YAXABUmaterialsurface@@PAUTexture@@M@Z 0055d2f0 f   water.obj
 0001:0015c360       ?setupwaterfallrefract@@YAXII@Z 0055d360 f   water.obj
 0001:0015c420       ?cleanreflections@@YAXXZ   0055d420 f   water.obj
 0001:0015d040       ?clearsleep_@@YAXPAH@Z     0055e040 f   command.obj
 0001:0015d060       ?addsleep@@YAXPAHPAD@Z     0055e060 f   command.obj
 0001:0015d0f0       ?run@?$_stdcmd@$0MCP@@@SAXPAH@Z 0055e0f0 f   command.obj
 0001:0015d120       ?strsplice@@YAXPBD0PAH1@Z  0055e120 f   command.obj
 0001:0015d210       ?run@?$_stdcmd@$0MBO@@@SAXPAD00@Z 0055e210 f   command.obj
 0001:0015d240       ?strreplace@@YAPADPBD00@Z  0055e240 f   command.obj
 0001:0015d460       ?run@?$_stdcmd@$0MAE@@@SAXPAD@Z 0055e460 f   command.obj
 0001:0015d4d0       ?run@?$_stdcmd@$0MAD@@@SAXPAD@Z 0055e4d0 f   command.obj
 0001:0015d540       ?run@?$_stdcmd@$0LPH@@@SAXPAH@Z 0055e540 f   command.obj
 0001:0015d5a0       ?run@?$_stdcmd@$0LPG@@@SAXPADPAH@Z 0055e5a0 f   command.obj
 0001:0015d610       ?run@?$_stdcmd@$0LPF@@@SAXPAH@Z 0055e610 f   command.obj
 0001:0015d640       ?run@?$_stdcmd@$0LPE@@@SAXPADPAH@Z 0055e640 f   command.obj
 0001:0015d6b0       ?run@?$_stdcmd@$0LPD@@@SAXPAD@Z 0055e6b0 f   command.obj
 0001:0015d6d0       ?run@?$_stdcmd@$0LPC@@@SAXPAD0@Z 0055e6d0 f   command.obj
 0001:0015d710       ?run@?$_stdcmd@$0LPB@@@SAXPAD@Z 0055e710 f   command.obj
 0001:0015d730       ?run@?$_stdcmd@$0LPA@@@SAXPAD@Z 0055e730 f   command.obj
 0001:0015d750       ?run@?$_stdcmd@$0LOP@@@SAXPAD0@Z 0055e750 f   command.obj
 0001:0015d7a0       ?run@?$_stdcmd@$0LOO@@@SAXPAD0@Z 0055e7a0 f   command.obj
 0001:0015d7f0       ?run@?$_stdcmd@$0LON@@@SAXPAD0@Z 0055e7f0 f   command.obj
 0001:0015d840       ?run@?$_stdcmd@$0LOM@@@SAXPAD0@Z 0055e840 f   command.obj
 0001:0015d890       ?run@?$_stdcmd@$0LOL@@@SAXPAD0@Z 0055e890 f   command.obj
 0001:0015d8e0       ?run@?$_stdcmd@$0LOK@@@SAXPAD0@Z 0055e8e0 f   command.obj
 0001:0015d930       ?run@?$_stdcmd@$0LOJ@@@SAXPAD0@Z 0055e930 f   command.obj
 0001:0015d980       ?run@?$_stdcmd@$0LOI@@@SAXPAH0@Z 0055e980 f   command.obj
 0001:0015d9c0       ?run@?$_stdcmd@$0LOG@@@SAXPAUtagval@@H@Z 0055e9c0 f   command.obj
 0001:0015db10       ?run@?$_stdcmd@$0LOF@@@SAXPAUtagval@@H@Z 0055eb10 f   command.obj
 0001:0015dc90       ?run@?$_stdcmd@$0LOE@@@SAXPAUtagval@@H@Z 0055ec90 f   command.obj
 0001:0015dd70       ?run@?$_stdcmd@$0LNF@@@SAXPAUtagval@@H@Z 0055ed70 f   command.obj
 0001:0015de60       ?run@?$_stdcmd@$0LMB@@@SAXPAM@Z 0055ee60 f   command.obj
 0001:0015de80       ?run@?$_stdcmd@$0LMA@@@SAXPAH@Z 0055ee80 f   command.obj
 0001:0015dea0       ?run@?$_stdcmd@$0LLP@@@SAXPAUtagval@@H@Z 0055eea0 f   command.obj
 0001:0015e000       ?run@?$_stdcmd@$0LLJ@@@SAXPAUtagval@@H@Z 0055f000 f   command.obj
 0001:0015e150       ?run@?$_stdcmd@$0LLD@@@SAXPAUtagval@@H@Z 0055f150 f   command.obj
 0001:0015e220       ?run@?$_stdcmd@$0LKN@@@SAXPAUtagval@@H@Z 0055f220 f   command.obj
 0001:0015e2f0       ?run@?$_stdcmd@$0LKH@@@SAXPAM@Z 0055f2f0 f   command.obj
 0001:0015e310       ?run@?$_stdcmd@$0LKG@@@SAXPAM@Z 0055f310 f   command.obj
 0001:0015e330       ?run@?$_stdcmd@$0LKF@@@SAXPAM@Z 0055f330 f   command.obj
 0001:0015e360       ?run@?$_stdcmd@$0LKE@@@SAXPAM@Z 0055f360 f   command.obj
 0001:0015e380       ?run@?$_stdcmd@$0LKD@@@SAXPAM0@Z 0055f380 f   command.obj
 0001:0015e3b0       ?run@?$_stdcmd@$0LKC@@@SAXPAM@Z 0055f3b0 f   command.obj
 0001:0015e3d0       ?run@?$_stdcmd@$0LKB@@@SAXPAM0@Z 0055f3d0 f   command.obj
 0001:0015e410       ?run@?$_stdcmd@$0LKA@@@SAXPAM@Z 0055f410 f   command.obj
 0001:0015e440       ?run@?$_stdcmd@$0LJP@@@SAXPAM@Z 0055f440 f   command.obj
 0001:0015e470       ?run@?$_stdcmd@$0LJO@@@SAXPAM@Z 0055f470 f   command.obj
 0001:0015e4a0       ?run@?$_stdcmd@$0LJN@@@SAXPAM@Z 0055f4a0 f   command.obj
 0001:0015e4d0       ?run@?$_stdcmd@$0LJM@@@SAXPAM@Z 0055f4d0 f   command.obj
 0001:0015e500       ?run@?$_stdcmd@$0LJL@@@SAXPAM@Z 0055f500 f   command.obj
 0001:0015e530       ?run@?$_stdcmd@$0LJK@@@SAXPAM0@Z 0055f530 f   command.obj
 0001:0015e580       ?run@?$_stdcmd@$0LJJ@@@SAXPAM0@Z 0055f580 f   command.obj
 0001:0015e5c0       ?run@?$_stdcmd@$0LJI@@@SAXPAH0@Z 0055f5c0 f   command.obj
 0001:0015e600       ?run@?$_stdcmd@$0LJH@@@SAXPAH0@Z 0055f600 f   command.obj
 0001:0015e640       ?run@?$_stdcmd@$0LJF@@@SAXPAUtagval@@H@Z 0055f640 f   command.obj
 0001:0015e710       ?run@?$_stdcmd@$0LIL@@@SAXPAUtagval@@H@Z 0055f710 f   command.obj
 0001:0015e7e0       ?run@?$_stdcmd@$0LIB@@@SAXPAH0@Z 0055f7e0 f   command.obj
 0001:0015e820       ?run@?$_stdcmd@$0LIA@@@SAXPAH0@Z 0055f820 f   command.obj
 0001:0015e860       ?run@?$_stdcmd@$0LHP@@@SAXPAH0@Z 0055f860 f   command.obj
 0001:0015e880       ?run@?$_stdcmd@$0LHO@@@SAXPAH0@Z 0055f880 f   command.obj
 0001:0015e8a0       ?run@?$_stdcmd@$0LHN@@@SAXPAH0@Z 0055f8a0 f   command.obj
 0001:0015e8c0       ?run@?$_stdcmd@$0LHM@@@SAXPAH@Z 0055f8c0 f   command.obj
 0001:0015e8e0       ?run@?$_stdcmd@$0LHL@@@SAXPAH0@Z 0055f8e0 f   command.obj
 0001:0015e900       ?run@?$_stdcmd@$0LHK@@@SAXPAH0@Z 0055f900 f   command.obj
 0001:0015e920       ?run@?$_stdcmd@$0LHJ@@@SAXPAUtagval@@@Z 0055f920 f   command.obj
 0001:0015e990       ?run@?$_stdcmd@$0LHI@@@SAXPAH0@Z 0055f990 f   command.obj
 0001:0015e9b0       ?run@?$_stdcmd@$0LHH@@@SAXPAM0@Z 0055f9b0 f   command.obj
 0001:0015e9e0       ?run@?$_stdcmd@$0LHG@@@SAXPAM0@Z 0055f9e0 f   command.obj
 0001:0015ea10       ?run@?$_stdcmd@$0LHF@@@SAXPAM0@Z 0055fa10 f   command.obj
 0001:0015ea40       ?run@?$_stdcmd@$0LHE@@@SAXPAM0@Z 0055fa40 f   command.obj
 0001:0015ea70       ?run@?$_stdcmd@$0LHD@@@SAXPAM0@Z 0055fa70 f   command.obj
 0001:0015eab0       ?run@?$_stdcmd@$0LHC@@@SAXPAM0@Z 0055fab0 f   command.obj
 0001:0015eaf0       ?run@?$_stdcmd@$0LHB@@@SAXPAH0@Z 0055faf0 f   command.obj
 0001:0015eb10       ?run@?$_stdcmd@$0LHA@@@SAXPAH0@Z 0055fb10 f   command.obj
 0001:0015eb30       ?run@?$_stdcmd@$0LGP@@@SAXPAH0@Z 0055fb30 f   command.obj
 0001:0015eb50       ?run@?$_stdcmd@$0LGO@@@SAXPAH0@Z 0055fb50 f   command.obj
 0001:0015eb70       ?run@?$_stdcmd@$0LGN@@@SAXPAH0@Z 0055fb70 f   command.obj
 0001:0015eb90       ?run@?$_stdcmd@$0LGM@@@SAXPAH0@Z 0055fb90 f   command.obj
 0001:0015ebb0       ?run@?$_stdcmd@$0LGL@@@SAXPAM0@Z 0055fbb0 f   command.obj
 0001:0015ebe0       ?run@?$_stdcmd@$0LGK@@@SAXPAM0@Z 0055fbe0 f   command.obj
 0001:0015ec10       ?run@?$_stdcmd@$0LGJ@@@SAXPAM0@Z 0055fc10 f   command.obj
 0001:0015ec40       ?run@?$_stdcmd@$0LGI@@@SAXPAH0@Z 0055fc40 f   command.obj
 0001:0015ec60       ?run@?$_stdcmd@$0LGH@@@SAXPAH0@Z 0055fc60 f   command.obj
 0001:0015ec80       ?run@?$_stdcmd@$0LGG@@@SAXPAH0@Z 0055fc80 f   command.obj
 0001:0015eca0       ?sortlist@@YAXPADPAUident@@1PAI@Z 0055fca0 f   command.obj
 0001:0015ef30       ?findfile_@@YAXPAD@Z       0055ff30 f   command.obj
 0001:0015efd0       ?run@?$_stdcmd@$0LAP@@@SAXPAUident@@PAD1PAI@Z 0055ffd0 f   command.obj
 0001:0015f210       ?listsplice@@YAXPBD0PAH1@Z 00560210 f   command.obj
 0001:0015f550       ?run@?$_stdcmd@$0KNC@@@SAXPAD0@Z 00560550 f   command.obj
 0001:0015f570       ?listdel@@YAPADPBD0@Z      00560570 f   command.obj
 0001:0015f730       ?run@?$_stdcmd@$0KMC@@@SAXPAD0@Z 00560730 f   command.obj
 0001:0015f770       ?listincludes@@YAHPBD0H@Z  00560770 f   command.obj
 0001:0015f9d0       ?prettylist@@YAXPBD0@Z     005609d0 f   command.obj
 0001:0015fc50       ?listfilter@@YAXPAUident@@PBDPBI@Z 00560c50 f   command.obj
 0001:0015fe90       ?run@?$_stdcmd@$0KIH@@@SAXPAUident@@PADPAI@Z 00560e90 f   command.obj
 0001:0015feb0       ?run@?$_stdcmd@$0KIG@@@SAXPAUident@@PADPAI@Z 00560eb0 f   command.obj
 0001:0015fed0       ?looplistconc@@YAXPAUident@@PBDPBI_N@Z 00560ed0 f   command.obj
 0001:001601d0       ?looplist@@YAXPAUident@@PBDPBI@Z 005611d0 f   command.obj
 0001:001602d0       ?listfind@@YAXPAUident@@PBDPBI@Z 005612d0 f   command.obj
 0001:001604c0       ?run@?$_stdcmd@$0KDJ@@@SAXPAD@Z 005614c0 f   command.obj
 0001:00160520       ?sublist@@YAXPBDPAH11@Z    00561520 f   command.obj
 0001:001606b0       ?substr@@YAXPADPAH11@Z     005616b0 f   command.obj
 0001:00160750       ?at@@YAXPAUtagval@@H@Z     00561750 f   command.obj
 0001:00160900       ?run@?$_stdcmd@$0KBA@@@SAXPAD@Z 00561900 f   command.obj
 0001:00160920       ?listlen@@YAHPBD@Z         00561920 f   command.obj
 0001:00160b70       ?indexlist@@YAPADPBDH@Z    00561b70 f   command.obj
 0001:00160ef0       ?format@@YAXPAUtagval@@H@Z 00561ef0 f   command.obj
 0001:00161150       ?run@?$_stdcmd@$0JLC@@@SAXPAUtagval@@@Z 00562150 f   command.obj
 0001:00161170       ?result@@YAXAAUtagval@@@Z  00562170 f   command.obj
 0001:00161190       ?concatword@@YAXPAUtagval@@H@Z 00562190 f   command.obj
 0001:001611c0       ?concat@@YAXPAUtagval@@H@Z 005621c0 f   command.obj
 0001:001611f0       ?run@?$_stdcmd@$0JJA@@@SAXPAUident@@PAHPAI@Z 005621f0 f   command.obj
 0001:00161230       ?run@?$_stdcmd@$0JIL@@@SAXPAUident@@PAHPAI@Z 00562230 f   command.obj
 0001:00161270       ?loopconc@@YAPADPAUident@@HPAI_N@Z 00562270 f   command.obj
 0001:00161560       ?run@?$_stdcmd@$0JHC@@@SAXPAI0@Z 00562560 f   command.obj
 0001:001615a0       ?run@?$_stdcmd@$0JHB@@@SAXPAUident@@PAHPAI2@Z 005625a0 f   command.obj
 0001:00161660       ?run@?$_stdcmd@$0JGF@@@SAXPAUident@@PAHPAI@Z 00562660 f   command.obj
 0001:00161770       ?run@?$_stdcmd@$0JDB@@@SAXPAUident@@PAUtagval@@PAI@Z 00562770 f   command.obj
 0001:001617d0       ?run@?$_stdcmd@$0JCD@@@SAXPAUtagval@@00@Z 005627d0 f   command.obj
 0001:00161850       ?run@?$_stdcmd@$0JCC@@@SAXPAUtagval@@PAI1@Z 00562850 f   command.obj
 0001:00161900       ?run@?$_stdcmd@$0JCB@@@SAXPAI@Z 00562900 f   command.obj
 0001:00161910       ?writecfg@@YAXPBD@Z        00562910 f   command.obj
 0001:00161dd0       ?validateblock@@YA_NPBD@Z  00562dd0 f   command.obj
 0001:00161ec0       ?run@?$_icmd_unescape@$0ILE@@@SAXPAD@Z 00562ec0 f   command.obj
 0001:00161f20       ?run@?$_icmd_escape@$0IKN@@@SAXPAD@Z 00562f20 f   command.obj
 0001:00161f80       ?run@?$_icmd_exec@$0IJG@@@SAXPADPAH@Z 00562f80 f   command.obj
 0001:00162120       ?executeret@@YAXPBDAAUtagval@@@Z 00563120 f   command.obj
 0001:00162260       ?executeret@@YAXPBIAAUtagval@@@Z 00563260 f   command.obj
 0001:00165300       ?printvar@@YAXPAUident@@@Z 00566300 f   command.obj
 0001:00165350       ?printsvar@@YAXPAUident@@PBD@Z 00566350 f   command.obj
 0001:00165380       ?printfvar@@YAXPAUident@@M@Z 00566380 f   command.obj
 0001:001653d0       ?printvar@@YAXPAUident@@H@Z 005663d0 f   command.obj
 0001:00165450       ?freecode@@YAXPAI@Z        00566450 f   command.obj
 0001:001654d0       ?compilecode@@YAPAIPBD@Z   005664d0 f   command.obj
 0001:00167e30       ?unescapestring@@YAHPADPBD1@Z 00568e30 f   command.obj
 0001:00167e80       ?parsestring@@YAPBDPBD@Z   00568e80 f   command.obj
 0001:00167f20       ?addkeyword@@YA_NHPBD@Z    00568f20 f   command.obj
 0001:00167f60       ?setsvarchecked@@YAXPAUident@@PBD@Z 00568f60 f   command.obj
 0001:00168040       ?setfvarchecked@@YAXPAUident@@M@Z 00569040 f   command.obj
 0001:00168130       ?clampfvar@@YAMPAUident@@MMM@Z 00569130 f   command.obj
 0001:00168200       ?setvarchecked@@YAXPAUident@@H@Z 00569200 f   command.obj
 0001:001682d0       ?clampvar@@YAHPAUident@@HHH@Z 005692d0 f   command.obj
 0001:00168330       ?run@?$_icmd_getalias@$0CFI@@@SAXPAD@Z 00569330 f   command.obj
 0001:001683c0       ?getalias@@YAPBDPBD@Z      005693c0 f   command.obj
 0001:00168410       ?run@?$_icmd_getfvarmax@$0CEA@@@SAXPAD@Z 00569410 f   command.obj
 0001:00168460       ?run@?$_icmd_getfvarmin@$0CDP@@@SAXPAD@Z 00569460 f   command.obj
 0001:001684b0       ?run@?$_icmd_getvarmax@$0CDO@@@SAXPAD@Z 005694b0 f   command.obj
 0001:001684f0       ?run@?$_icmd_getvarmin@$0CDN@@@SAXPAD@Z 005694f0 f   command.obj
 0001:00168530       ?getfvarmax@@YAMPBD@Z      00569530 f   command.obj
 0001:00168560       ?getfvarmin@@YAMPBD@Z      00569560 f   command.obj
 0001:00168590       ?getvarmax@@YAHPBD@Z       00569590 f   command.obj
 0001:001685b0       ?getvarmin@@YAHPBD@Z       005695b0 f   command.obj
 0001:001685d0       ?run@?$_icmd_alias@$0BOB@@@SAXPBDPAUtagval@@@Z 005695d0 f   command.obj
 0001:001685f0       ?alias@@YAXPBD0@Z          005695f0 f   command.obj
 0001:00168850       ?resetvar@@YAXPAD@Z        00569850 f   command.obj
 0001:00168880       ?readident@@YAPAUident@@PBD@Z 00569880 f   command.obj
 0001:001688c0       ?writeident@@YAPAUident@@PBDH@Z 005698c0 f   command.obj
 0001:00168920       ?newident@@YAPAUident@@PBDH@Z 00569920 f   command.obj
 0001:00168a60       ?run@?$_icmd_push@$0BFH@@@SAXPAUident@@PAUtagval@@PAI@Z 00569a60 f   command.obj
 0001:00168b80       ?run@?$_icmd_nodebug@$0BDD@@@SAXPAI@Z 00569b80 f   command.obj
 0001:00169070       ?clearoverride@@YAXAAUident@@@Z 0056a070 f   command.obj
 0001:00169100       ?clear_command@@YAXXZ      0056a100 f   command.obj
 0001:00169550       ?stringret@@YAXPAD@Z       0056a550 f   command.obj
 0001:00169560       ?explodelist@@YAXPBDAAU?$vector@PAD@@H@Z 0056a560 f   command.obj
 0001:00169610       ?floatret@@YAXM@Z          0056a610 f   command.obj
 0001:00169630       ?floatstr@@YAPBDM@Z        0056a630 f   command.obj
 0001:00169670       ?executestr@@YAPADPBD@Z    0056a670 f   command.obj
 0001:00169680       ?identexists@@YA_NPBD@Z    0056a680 f   command.obj
 0001:001696a0       ?intstr@@YAPBDH@Z          0056a6a0 f   command.obj
 0001:001696f0       ?escapestring@@YAPBDPBD@Z  0056a6f0 f   command.obj
 0001:00169960       ?escapeid@@YAPBDPBD@Z      0056a960 f   command.obj
 0001:00169990       ?checksleep@@YAXH@Z        0056a990 f   command.obj
 0001:00169a40       ?setsvar@@YAXPBD0_N@Z      0056aa40 f   command.obj
 0001:00169af0       ?getident@@YAPAUident@@PBD@Z 0056aaf0 f   command.obj
 0001:00169b00       ?setfvar@@YAXPBDM_N1@Z     0056ab00 f   command.obj
 0001:00169ba0       ?svariable@@YAPADPBD0PAPADP6AXXZH@Z 0056aba0 f   command.obj
 0001:00169c20       ?executebool@@YA_NPBI@Z    0056ac20 f   command.obj
 0001:00169cc0       ?execute@@YAHPBI@Z         0056acc0 f   command.obj
 0001:00169d60       ?clearoverrides@@YAXXZ     0056ad60 f   command.obj
 0001:00169e70       ?clearsleep@@YAX_N@Z       0056ae70 f   command.obj
 0001:00169ef0       ?setvar@@YAXPBDH_N1@Z      0056aef0 f   command.obj
 0001:00169f90       ?execute@@YAHPBD@Z         0056af90 f   command.obj
 0001:0016a150       ?fvariable@@YAMPBDMMMPAMP6AXXZH@Z 0056b150 f   command.obj
 0001:0016a1b0       ?execfile@@YA_NPBD_N@Z     0056b1b0 f   command.obj
 0001:0016a270       ?variable@@YAHPBDHHHPAHP6AXXZH@Z 0056b270 f   command.obj
 0001:0016a2d0       ?result@@YAXPBD@Z          0056b2d0 f   command.obj
 0001:0016a320       ?intret@@YAXH@Z            0056b320 f   command.obj
 0001:0016a330       ?addcommand@@YA_NPBDP6AXXZ0@Z 0056b330 f   command.obj
 0001:0016ab80       ?complete@@YAXPADPBD@Z     0056bb80 f   console.obj
 0001:0016aff0       ?addlistcomplete@@YAXPAD0@Z 0056bff0 f   console.obj
 0001:0016b010       ?addfilecomplete@@YAXPAD00@Z 0056c010 f   console.obj
 0001:0016b030       ?addcomplete@@YAXPADH00@Z  0056c030 f   console.obj
 0001:0016b1e0       ?resetcomplete@@YAXXZ      0056c1e0 f   console.obj
 0001:0016b300       ?clear_console@@YAXXZ      0056c300 f   console.obj
 0001:0016b310       ?keypress@@YAXH_NH@Z       0056c310 f   console.obj
 0001:0016b3b0       ?consolekey@@YAXH_NH@Z     0056c3b0 f   console.obj
 0001:0016ba70       ?execbind@@YAXAAUkeym@@_N@Z 0056ca70 f   console.obj
 0001:0016bb90       ?onrelease@@YAXPBD@Z       0056cb90 f   console.obj
 0001:0016bc20       ?history_@@YAXPAH@Z        0056cc20 f   console.obj
 0001:0016bc60       ?pasteconsole@@YAXXZ       0056cc60 f   console.obj
 0001:0016bd70       ?run@?$_icmd_saycommand@$0BBE@@@SAXPAD@Z 0056cd70 f   console.obj
 0001:0016bd90       ?inputcommand@@YAXPAD000@Z 0056cd90 f   console.obj
 0001:0016bef0       ?run@?$_icmd_searcheditbinds@$0PN@@@SAXPAD@Z 0056cef0 f   console.obj
 0001:0016bf00       ?run@?$_icmd_searchspecbinds@$0PM@@@SAXPAD@Z 0056cf00 f   console.obj
 0001:0016bf10       ?run@?$_icmd_searchbinds@$0PL@@@SAXPAD@Z 0056cf10 f   console.obj
 0001:0016bf20       ?run@?$_icmd_geteditbind@$0PK@@@SAXPAD@Z 0056cf20 f   console.obj
 0001:0016bf30       ?run@?$_icmd_getspecbind@$0PJ@@@SAXPAD@Z 0056cf30 f   console.obj
 0001:0016bf40       ?run@?$_icmd_getbind@$0PI@@@SAXPAD@Z 0056cf40 f   console.obj
 0001:0016bf50       ?run@?$_icmd_editbind@$0PH@@@SAXPAD0@Z 0056cf50 f   console.obj
 0001:0016bf90       ?run@?$_icmd_specbind@$0PG@@@SAXPAD0@Z 0056cf90 f   console.obj
 0001:0016bfd0       ?run@?$_icmd_bind@$0PF@@@SAXPAD0@Z 0056cfd0 f   console.obj
 0001:0016c010       ?bindkey@@YAXPAD0HPBD@Z    0056d010 f   console.obj
 0001:0016c0f0       ?getbind@@YAXPADH@Z        0056d0f0 f   console.obj
 0001:0016c150       ?findbind@@YAPAUkeym@@PAD@Z 0056d150 f   console.obj
 0001:0016c1b0       ?searchbinds@@YAXPADH@Z    0056d1b0 f   console.obj
 0001:0016c390       ?keymap@@YAXPAHPAD@Z       0056d390 f   console.obj
 0001:0016c450       ?drawconlines@@YAHHHHHHHHH@Z 0056d450 f   console.obj
 0001:0016c690       ?run@?$_icmd_clearconsole@$0GD@@@SAXXZ 0056d690 f   console.obj
 0001:0016c6f0       ?run@?$_icmd_miniconskip@$0GB@@@SAXPAH@Z 0056d6f0 f   console.obj
 0001:0016c710       ?run@?$_icmd_conskip@$0GA@@@SAXPAH@Z 0056d710 f   console.obj
 0001:0016c740       ?setconskip@@YAXAAHHH@Z    0056d740 f   console.obj
 0001:0016c7d0       ?run@?$_icmd_toggleconsole@$0DG@@@SAXXZ 0056d7d0 f   console.obj
 0001:0016c7e0       ?conline@@YAXHPBD@Z        0056d7e0 f   console.obj
 0001:0016c8d0       ?var_maxcon@@YAXXZ         0056d8d0 f   console.obj
 0001:0016c940       ?conoutfv@@YAXHPBDPAD@Z    0056d940 f   console.obj
 0001:0016c980       ?addreleaseaction@@YAPBDPAD@Z 0056d980 f   console.obj
 0001:0016c9e0       ?writebinds@@YAXPAUstream@@@Z 0056d9e0 f   console.obj
 0001:0016cb90       ?writecompletions@@YAXPAUstream@@@Z 0056db90 f   console.obj
 0001:0016cdb0       ?rendercommand@@YAHHHH@Z   0056ddb0 f   console.obj
 0001:0016cec0       ?renderconsole@@YAHHHH@Z   0056dec0 f   console.obj
 0001:0016d070       ?getkeyname@@YAPBDH@Z      0056e070 f   console.obj
 0001:0016d0a0       ?conoutf@@YAXPBDZZ         0056e0a0 f   console.obj
 0001:0016d0e0       ?conoutf@@YAXHPBDZZ        0056e0e0 f   console.obj
 0001:0016d240       ?getclockmillis@@YAHXZ     0056e240 f   main.obj
 0001:0016d290       ?var_clockfix@@YAXXZ       0056e290 f   main.obj
 0001:0016d2b0       ?var_clockerror@@YAXXZ     0056e2b0 f   main.obj
 0001:0016d330       ?getfps_@@YAXPAH@Z         0056e330 f   main.obj
 0001:0016d3a0       ?updatefpshistory@@YAXH@Z  0056e3a0 f   main.obj
 0001:0016d3e0       ?resetfpshistory@@YAXXZ    0056e3e0 f   main.obj
 0001:0016d400       ?stackdumper@@YAXIPAU_EXCEPTION_POINTERS@@@Z 0056e400 f   main.obj
 0001:0016d650       ?limitfps@@YAXAAHH@Z       0056e650 f   main.obj
 0001:0016d6e0       ?swapbuffers@@YAX_N@Z      0056e6e0 f   main.obj
 0001:0016d700       ?checkinput@@YAXXZ         0056e700 f   main.obj
 0001:0016da60       ?pushevent@@YAXABTSDL_Event@@@Z 0056ea60 f   main.obj
 0001:0016da70       ?resetgl@@YAXXZ            0056ea70 f   main.obj
 0001:0016dc10       ?setupscreen@@YAXAAH00@Z   0056ec10 f   main.obj
 0001:0016e260       ?cleargamma@@YAXXZ         0056f260 f   main.obj
 0001:0016e290       ?restoregamma@@YAXXZ       0056f290 f   main.obj
 0001:0016e300       ?var_gamma@@YAXXZ          0056f300 f   main.obj
 0001:0016e360       ?screenres@@YAXPAH0@Z      0056f360 f   main.obj
 0001:0016e3c0       ?var_fullscreen@@YAXXZ     0056f3c0 f   main.obj
 0001:0016e400       ?setfullscreen@@YAX_N@Z    0056f400 f   main.obj
 0001:0016e430       ?inputgrab@@YAX_N@Z        0056f430 f   main.obj
 0001:0016e460       ?restorebackground@@YAXXZ  0056f460 f   main.obj
 0001:0016e570       ?var_vsync@@YAXXZ          0056f570 f   main.obj
 0001:0016e590       ?var_fsaa@@YAXXZ           0056f590 f   main.obj
 0001:0016e5b0       ?var_stencilbits@@YAXXZ    0056f5b0 f   main.obj
 0001:0016e5d0       ?var_depthbits@@YAXXZ      0056f5d0 f   main.obj
 0001:0016e5f0       ?var_colorbits@@YAXXZ      0056f5f0 f   main.obj
 0001:0016e610       ?var_scr_h@@YAXXZ          0056f610 f   main.obj
 0001:0016e630       ?var_scr_w@@YAXXZ          0056f630 f   main.obj
 0001:0016e650       ?quit@@YAXXZ               0056f650 f   main.obj
 0001:0016e690       ?cleanup@@YAXXZ            0056f690 f   main.obj
 0001:0016e720       ?writeinitcfg@@YAXXZ       0056f720 f   main.obj
 0001:0016e850       ?initwarning@@YA_NPBDHH@Z  0056f850 f   main.obj
 0001:0016e860       ?getfps@@YAXAAH00@Z        0056f860 f   main.obj
 0001:0016e8d0       _SDL_main                  0056f8d0 f   main.obj
 0001:0016f2a0       ?keyrepeat@@YAX_N@Z        005702a0 f   main.obj
 0001:0016f2c0       ?interceptkey@@YA_NH@Z     005702c0 f   main.obj
 0001:0016f390       ?renderprogress@@YAXMPBDI_N@Z 00570390 f   main.obj
 0001:0016fe10       ?renderbackground@@YAXPBDPAUTexture@@00_N2@Z 00570e10 f   main.obj
 0001:00171180       ?fatal@@YAXPBDZZ           00572180 f   main.obj
 0001:001715e0       ?guimodelpreview@@YAXPAD00PAMPAH@Z 005725e0 f   menus.obj
 0001:00171730       ?guiplayerpreview@@YAXPAH00PADPAM0@Z 00572730 f   menus.obj
 0001:001717b0       ?run@?$_icmd_cleargui@$0CED@@@SAXPAH@Z 005727b0 f   menus.obj
 0001:001717d0       ?notifywelcome@@YAXXZ      005727d0 f   menus.obj
 0001:00171810       ?guiservers@@YAXPAIPAH1@Z  00572810 f   menus.obj
 0001:00171890       ?newgui@@YAXPAD000@Z       00572890 f   menus.obj
 0001:001719b0       ?guialign@@YAXPAHPAI@Z     005729b0 f   menus.obj
 0001:00171a00       ?guilist@@YAXPAI@Z         00572a00 f   menus.obj
 0001:00171a30       ?guikeyfield@@YAXPADPAH0@Z 00572a30 f   menus.obj
 0001:00171a90       ?guieditor@@YAXPADPAH11@Z  00572a90 f   menus.obj
 0001:00171ae0       ?guifield@@YAXPADPAH0@Z    00572ae0 f   menus.obj
 0001:00171b40       ?guibitfield@@YAXPAD0PAH0@Z 00572b40 f   menus.obj
 0001:00171bc0       ?guiradio@@YAXPAD0PAM0@Z   00572bc0 f   menus.obj
 0001:00171c30       ?guicheckbox@@YAXPAD0PAM10@Z 00572c30 f   menus.obj
 0001:00171cd0       ?guinameslider@@YAXPAD000@Z 00572cd0 f   menus.obj
 0001:00171e60       ?guilistslider@@YAXPAD00@Z 00572e60 f   menus.obj
 0001:00172010       ?guislider@@YAXPADPAH10@Z  00573010 f   menus.obj
 0001:00172280       ?guicolumn@@YAXPAH@Z       00573280 f   menus.obj
 0001:001722a0       ?guispring@@YAXPAH@Z       005732a0 f   menus.obj
 0001:001722d0       ?guistrut@@YAXPAMPAH@Z     005732d0 f   menus.obj
 0001:00172300       ?guibar@@YAXXZ             00573300 f   menus.obj
 0001:00172310       ?guitab@@YAXPAD@Z          00573310 f   menus.obj
 0001:00172330       ?guititle@@YAXPAD@Z        00573330 f   menus.obj
 0001:00172350       ?guitext@@YAXPAD0@Z        00573350 f   menus.obj
 0001:001723e0       ?guitextbox@@YAXPADPAH11@Z 005733e0 f   menus.obj
 0001:00172440       ?guicolor@@YAXPAH@Z        00573440 f   menus.obj
 0001:00172490       ?guiimage@@YAXPAD0PAMPAH0@Z 00573490 f   menus.obj
 0001:00172560       ?guibutton@@YAXPAD00@Z     00573560 f   menus.obj
 0001:00172640       ?guimerge@@YAXPAI@Z        00573640 f   menus.obj
 0001:00172670       ?guinoautotab@@YAXPAI@Z    00573670 f   menus.obj
 0001:001726a0       ?guistayopen@@YAXPAI@Z     005736a0 f   menus.obj
 0001:001726c0       ?guionclear@@YAXPAD@Z      005736c0 f   menus.obj
 0001:00172700       ?clearguis@@YAXH@Z         00573700 f   menus.obj
 0001:00172750       ?hidegui@@YAXPBD@Z         00573750 f   menus.obj
 0001:00172770       ?showgui@@YAXPBD@Z         00573770 f   menus.obj
 0001:001727c0       ?restoregui@@YAXH@Z        005737c0 f   menus.obj
 0001:00172810       ?pushgui@@YAXPAUmenu@@H@Z  00573810 f   menus.obj
 0001:00172970       ?removegui@@YAXPAUmenu@@@Z 00573970 f   menus.obj
 0001:001729d0       ?popgui@@YAXXZ             005739d0 f   menus.obj
 0001:001729f0       ?addchange@@YAXPBDH@Z      005739f0 f   menus.obj
 0001:00172b00       ?clearchanges@@YAXH@Z      00573b00 f   menus.obj
 0001:00172bc0       ?menuprocess@@YAXXZ        00573bc0 f   menus.obj
 0001:00172ca0       ?cleargui@@YAHH@Z          00573ca0 f   menus.obj
 0001:00172d90       ?g3d_mainmenu@@YAXXZ       00573d90 f   menus.obj
 0001:00172e50       ?clearmainmenu@@YAXXZ      00573e50 f   menus.obj
 0001:00172e90       ?menuinfrontofplayer@@YA?AUvec@@XZ 00573e90 f   menus.obj
 0001:00172f80       ?run@?$_icmd_movierecording@$0EKH@@@SAXXZ 00573f80 f   movie.obj
 0001:00172fa0       ?movie@@YAXPAD@Z           00573fa0 f   movie.obj
 0001:00173000       ?drawhud@recorder@@YAXXZ   00574000 f   movie.obj
 0001:00173270       ?readbuffer@recorder@@YA_NXZ 00574270 f   movie.obj
 0001:00173370       ?readbuffer@recorder@@YAXAAUvideobuffer@1@I@Z 00574370 f   movie.obj
 0001:00174120       ?drawquad@recorder@@YAXMMMMMM@Z 00575120 f   movie.obj
 0001:00174250       ?start@recorder@@YAXPBDHHH_N@Z 00575250 f   movie.obj
 0001:001745e0       ?soundencoder@recorder@@YAXPAXPAEH@Z 005755e0 f   movie.obj
 0001:00174680       ?videoencoder@recorder@@YAHPAX@Z 00575680 f   movie.obj
 0001:00174960       ?gettime@recorder@@YAHXZ   00575960 f   movie.obj
 0001:001749c0       ?calcquality@recorder@@YAMXZ 005759c0 f   movie.obj
 0001:00174a20       ?isrecording@recorder@@YA_NXZ 00575a20 f   movie.obj
 0001:00174a30       ?stop@recorder@@YAXXZ      00575a30 f   movie.obj
 0001:00174bc0       ?cleanup@recorder@@YAXXZ   00575bc0 f   movie.obj
 0001:00174c60       ?capture@recorder@@YAX_N@Z 00575c60 f   movie.obj
 0001:00174dc0       ?updatemumble@@YAXXZ       00575dc0 f   sound.obj
 0001:00174fd0       ?closemumble@@YAXXZ        00575fd0 f   sound.obj
 0001:00175010       ?var_mumble@@YAXXZ         00576010 f   sound.obj
 0001:00175060       ?resetsound@@YAXXZ         00576060 f   sound.obj
 0001:00175250       ?sound@@YAXPAH@Z           00576250 f   sound.obj
 0001:00175270       ?stopsound@@YA_NHHH@Z      00576270 f   sound.obj
 0001:00175330       ?run@?$_icmd_playsoundfile@$0CFJ@@@SAXPADPAH@Z 00576330 f   sound.obj
 0001:00175380       ?playsoundfile@@YAHPADPAH@Z 00576380 f   sound.obj
 0001:001753d0       ?playsound@@YAHHPBUvec@@PAUextentity@@HHHHHH@Z 005763d0 f   sound.obj
 0001:00175810       ?preloadmapsound@@YAXH@Z   00576810 f   sound.obj
 0001:00175860       ?preloadsound@@YAXH@Z      00576860 f   sound.obj
 0001:00175a50       ?updatechannel@@YA_NAAUsoundchannel@@@Z 00576a50 f   sound.obj
 0001:00175c80       ?checkmapsounds@@YAXXZ     00576c80 f   sound.obj
 0001:00175d50       ?stopmapsound@@YAXPAUextentity@@@Z 00576d50 f   sound.obj
 0001:00175dd0       ?stopmapsounds@@YAXXZ      00576dd0 f   sound.obj
 0001:00175e50       ?resetchannels@@YAXXZ      00576e50 f   sound.obj
 0001:00175eb0       ?altmapsound@@YAXPADPAH@Z  00576eb0 f   sound.obj
 0001:00175ef0       ?altsound@@YAXPADPAH@Z     00576ef0 f   sound.obj
 0001:00175f30       ?mapsound@@YAXPADPAH1@Z    00576f30 f   sound.obj
 0001:00175fc0       ?registersound@@YAXPADPAH@Z 00576fc0 f   sound.obj
 0001:001761c0       ?startmusic@@YAXPAD0@Z     005771c0 f   sound.obj
 0001:00176320       ?loadmusic@@YAPAU_Mix_Music@@PBD@Z 00577320 f   sound.obj
 0001:00176410       ?musicdone@@YAXXZ          00577410 f   sound.obj
 0001:001764c0       ?var_soundbufferlen@@YAXXZ 005774c0 f   sound.obj
 0001:001764e0       ?var_soundfreq@@YAXXZ      005774e0 f   sound.obj
 0001:00176500       ?var_soundchans@@YAXXZ     00577500 f   sound.obj
 0001:00176520       ?stopmusic@@YAXXZ          00577520 f   sound.obj
 0001:001765d0       ?setmusicvol@@YAXH@Z       005775d0 f   sound.obj
 0001:00176610       ?var_musicvol@@YAXXZ       00577610 f   sound.obj
 0001:00176650       ?var_soundvol@@YAXXZ       00577650 f   sound.obj
 0001:00176680       ?stopchannels@@YAXXZ       00577680 f   sound.obj
 0001:001766f0       ?syncchannel@@YAXAAUsoundchannel@@@Z 005776f0 f   sound.obj
 0001:00176740       ?freechannel@@YAXH@Z       00577740 f   sound.obj
 0001:00176780       ?newchannel@@YAAAUsoundchannel@@HPAUsoundslot@@PBUvec@@PAUextentity@@HH@Z 00577780 f   sound.obj
 0001:00176900       ?stopsounds@@YAXXZ         00577900 f   sound.obj
 0001:00176970       ?initsound@@YAXXZ          00577970 f   sound.obj
 0001:001769e0       ?initmumble@@YAXXZ         005779e0 f   sound.obj
 0001:00176aa0       ?updatesounds@@YAXXZ       00577aa0 f   sound.obj
 0001:00176be0       ?clear_sound@@YAXXZ        00577be0 f   sound.obj
 0001:00176cb0       ?preloadmapsounds@@YAXXZ   00577cb0 f   sound.obj
 0001:00176d30       ?clearmapsounds@@YAXXZ     00577d30 f   sound.obj
 0001:00176d80       ?checkchallenge@@YA_NPBDPAX@Z 00577d80 f   crypto.obj
 0001:00176de0       ?freechallenge@@YAXPAX@Z   00577de0 f   crypto.obj
 0001:00176df0       ?genchallenge@@YAPAXPAXPBXHAAU?$vector@D@@@Z 00577df0 f   crypto.obj
 0001:00177080       ?freepubkey@@YAXPAX@Z      00578080 f   crypto.obj
 0001:00177090       ?parsepubkey@@YAPAXPBD@Z   00578090 f   crypto.obj
 0001:001770f0       ?answerchallenge@@YAXPBD0AAU?$vector@D@@@Z 005780f0 f   crypto.obj
 0001:001771e0       ?hashstring@@YA_NPBDPADH@Z 005781e0 f   crypto.obj
 0001:001772f0       ?genprivkey@@YAXPBDAAU?$vector@D@@1@Z 005782f0 f   crypto.obj
 0001:001774b0       ?hash@tiger@@YAXPBEHAAThashval@1@@Z 005784b0 f   crypto.obj
 0001:001775d0       ?gensboxes@tiger@@YAXXZ    005785d0 f   crypto.obj
 0001:00177790       ?compress@tiger@@YAXPB_KQA_K@Z 00578790 f   crypto.obj
 0001:00178310       ?linecylinderintersect@@YA_NABUvec@@000MAAM@Z 00579310 f   geom.obj
 0001:001786e0       ?adjoint@glmatrixf@@QAEXABU1@@Z 005796e0 f   geom.obj
 0001:00178c70       ?invert@glmatrixf@@QAE_NABU1@M@Z 00579c70 f   geom.obj
 0001:00178d40       ?rayboxintersect@@YA_NABUvec@@000AAMAAH@Z 00579d40 f   geom.obj
 0001:00178f40       ?opentempfile@@YAPAUstream@@PBD0@Z 00579f40 f   stream.obj
 0001:00179000       ?openrawfile@@YAPAUstream@@PBD0@Z 0057a000 f   stream.obj
 0001:001790d0       ?printf@stream@@UAAIPBDZZ  0057a0d0 f   stream.obj
 0001:00179170       ?getline@stream@@UAE_NPADI@Z 0057a170 f   stream.obj
 0001:001791f0       ?size@stream@@UAE_JXZ      0057a1f0 f   stream.obj
 0001:00179330       ?listdir@@YA_NPBD_N0AAU?$vector@PAD@@@Z 0057a330 f   stream.obj
 0001:00179510       ?subhomedir@@YA_NPADHPBD@Z 0057a510 f   stream.obj
 0001:001795c0       ?fixpackagedir@@YAIPAD@Z   0057a5c0 f   stream.obj
 0001:001795f0       ?decodeutf8@@YAIPAEIPBEIPAI@Z 0057a5f0 f   stream.obj
 0001:00179800       ?sethomedir@@YAPBDPBD@Z    0057a800 f   stream.obj
 0001:001798d0       ?addpackagedir@@YAPBDPBD@Z 0057a8d0 f   stream.obj
 0001:00179ab0       ?loadfile@@YAPADPBDPAI_N@Z 0057aab0 f   stream.obj
 0001:00179bc0       ?listfiles@@YAHPBD0AAU?$vector@PAD@@@Z 0057abc0 f   stream.obj
 0001:00179d60       ?rwops@stream@@QAEPAUSDL_RWops@@XZ 0057ad60 f   stream.obj
 0001:00179d90       ?fileexists@@YA_NPBD0@Z    0057ad90 f   stream.obj
 0001:00179dd0       ?createdir@@YA_NPBD@Z      0057add0 f   stream.obj
 0001:00179e30       ?parentdir@@YAPBDPBD@Z     0057ae30 f   stream.obj
 0001:00179ea0       ?openutf8file@@YAPAUstream@@PBD0PAU1@@Z 0057aea0 f   stream.obj
 0001:00179f50       ?path@@YAPADPBD_N@Z        0057af50 f   stream.obj
 0001:00179fa0       ?encodeutf8@@YAIPAEIPBEIPAI@Z 0057afa0 f   stream.obj
 0001:0017a120       ?findfile@@YAPBDPBD0@Z     0057b120 f   stream.obj
 0001:0017a350       ?openfile@@YAPAUstream@@PBD0@Z 0057b350 f   stream.obj
 0001:0017a370       ?makerelpath@@YAPADPBD000@Z 0057b370 f   stream.obj
 0001:0017a4a0       ?opengzfile@@YAPAUstream@@PBD0PAU1@H@Z 0057b4a0 f   stream.obj
 0001:0017a560       ?path@@YAPADPAD@Z          0057b560 f   stream.obj
 0001:0017ac70       ?sendstring@@YAXPBDAAU?$vector@E@@@Z 0057bc70 f   tools.obj
 0001:0017aca0       ?sendstring@@YAXPBDAAU?$databuf@E@@@Z 0057bca0 f   tools.obj
 0001:0017acd0       ?getfloat@@YAMAAU?$databuf@E@@@Z 0057bcd0 f   tools.obj
 0001:0017ad20       ?putfloat@@YAXAAU?$databuf@E@@M@Z 0057bd20 f   tools.obj
 0001:0017ad70       ?getuint@@YAHAAU?$databuf@E@@@Z 0057bd70 f   tools.obj
 0001:0017ae40       ?putuint@@YAXAAUpacketbuf@@H@Z 0057be40 f   tools.obj
 0001:0017ae50       ?putuint@@YAXAAU?$databuf@E@@H@Z 0057be50 f   tools.obj
 0001:0017ae60       ?putint@@YAXAAU?$vector@E@@H@Z 0057be60 f   tools.obj
 0001:0017ae70       ?seedMT@@YAXI@Z            0057be70 f   tools.obj
 0001:0017aeb0       ?guessnumcpus@@YAHXZ       0057beb0 f   tools.obj
 0001:0017aed0       ?putint@@YAXAAU?$databuf@E@@H@Z 0057bed0 f   tools.obj
 0001:0017aee0       ?getint@@YAHAAU?$databuf@E@@@Z 0057bee0 f   tools.obj
 0001:0017aff0       ?filtertext@@YAXPADPBD_NI@Z 0057bff0 f   tools.obj
 0001:0017b040       ?getstring@@YAXPADAAU?$databuf@E@@I@Z 0057c040 f   tools.obj
 0001:0017b190       ?putint@@YAXAAUpacketbuf@@H@Z 0057c190 f   tools.obj
 0001:0017b1a0       ?putfloat@@YAXAAUpacketbuf@@M@Z 0057c1a0 f   tools.obj
 0001:0017b1c0       ?sendstring@@YAXPBDAAUpacketbuf@@@Z 0057c1c0 f   tools.obj
 0001:0017b1f0       ?randomMT@@YAIXZ           0057c1f0 f   tools.obj
 0001:0017b2b0       ??3@YAXPAX@Z               0057c2b0 f   tools.obj
 0001:0017b2d0       ??2@YAPAXI@Z               0057c2d0 f   tools.obj
 0001:0017b460       ?run@?$_icmd_removezip@$0CEK@@@SAXPBD@Z 0057c460 f   zip.obj
 0001:0017b470       ?run@?$_icmd_addzip@$0CEJ@@@SAXPBD00@Z 0057c470 f   zip.obj
 0001:0017b4a0       ?removezip@@YA_NPBD@Z      0057c4a0 f   zip.obj
 0001:0017b5e0       ?addzip@@YA_NPBD00@Z       0057c5e0 f   zip.obj
 0001:0017bb90       ?findzip@@YAPAUziparchive@@PBD@Z 0057cb90 f   zip.obj
 0001:0017c030       ?listzipfiles@@YAHPBD0AAU?$vector@PAD@@@Z 0057d030 f   zip.obj
 0001:0017c260       ?findzipfile@@YA_NPBD@Z    0057d260 f   zip.obj
 0001:0017c320       ?openzipfile@@YAPAUstream@@PBD0@Z 0057d320 f   zip.obj
 0001:0017c520       ?render@ai@@YAXXZ          0057d520 f   ai.obj
 0001:0017cb80       ?drawroute@ai@@YAXPAUfpsent@@M@Z 0057db80 f   ai.obj
 0001:0017cec0       ?think@ai@@YAXPAUfpsent@@_N@Z 0057dec0 f   ai.obj
 0001:0017d080       ?avoid@ai@@YAXXZ           0057e080 f   ai.obj
 0001:0017d160       ?logic@ai@@YAXPAUfpsent@@AAUaistate@1@_N@Z 0057e160 f   ai.obj
 0001:0017d3b0       ?timeouts@ai@@YAXPAUfpsent@@AAUaistate@1@@Z 0057e3b0 f   ai.obj
 0001:0017d670       ?request@ai@@YA_NPAUfpsent@@AAUaistate@1@@Z 0057e670 f   ai.obj
 0001:0017d7e0       ?hasrange@ai@@YA_NPAUfpsent@@0H@Z 0057e7e0 f   ai.obj
 0001:0017d8d0       ?process@ai@@YAHPAUfpsent@@AAUaistate@1@@Z 0057e8d0 f   ai.obj
 0001:0017e5c0       ?lockon@ai@@YA_NPAUfpsent@@0M@Z 0057f5c0 f   ai.obj
 0001:0017e670       ?scaleyawpitch@ai@@YAXAAM0MMMM@Z 0057f670 f   ai.obj
 0001:0017e790       ?getyawpitch@ai@@YAXABUvec@@0AAM1@Z 0057f790 f   ai.obj
 0001:0017e850       ?fixrange@ai@@YAXAAM0@Z    0057f850 f   ai.obj
 0001:0017e8c0       ?fixfullrange@ai@@YAXAAM00_N@Z 0057f8c0 f   ai.obj
 0001:0017e950       ?jumpto@ai@@YAXPAUfpsent@@AAUaistate@1@ABUvec@@@Z 0057f950 f   ai.obj
 0001:0017eb90       ?hunt@ai@@YA_NPAUfpsent@@AAUaistate@1@@Z 0057fb90 f   ai.obj
 0001:0017ec70       ?checkroute@ai@@YA_NPAUfpsent@@H@Z 0057fc70 f   ai.obj
 0001:0017eee0       ?anynode@ai@@YA_NPAUfpsent@@AAUaistate@1@H@Z 0057fee0 f   ai.obj
 0001:0017f030       ?randomlink@ai@@YAHPAUfpsent@@H@Z 00580030 f   ai.obj
 0001:0017f1d0       ?wpspot@ai@@YAHPAUfpsent@@H_N@Z 005801d0 f   ai.obj
 0001:0017f320       ?closenode@ai@@YAHPAUfpsent@@@Z 00580320 f   ai.obj
 0001:0017f500       ?dopursue@ai@@YAHPAUfpsent@@AAUaistate@1@@Z 00580500 f   ai.obj
 0001:0017f680       ?dointerest@ai@@YAHPAUfpsent@@AAUaistate@1@@Z 00580680 f   ai.obj
 0001:0017f800       ?dodefend@ai@@YAHPAUfpsent@@AAUaistate@1@@Z 00580800 f   ai.obj
 0001:0017f950       ?dowait@ai@@YAHPAUfpsent@@AAUaistate@1@@Z 00580950 f   ai.obj
 0001:0017fa10       ?check@ai@@YA_NPAUfpsent@@AAUaistate@1@@Z 00580a10 f   ai.obj
 0001:0017fa40       ?itemspawned@ai@@YAXH@Z    00580a40 f   ai.obj
 0001:0017fc60       ?killed@ai@@YAXPAUfpsent@@0@Z 00580c60 f   ai.obj
 0001:0017fcb0       ?spawned@ai@@YAXPAUfpsent@@@Z 00580cb0 f   ai.obj
 0001:0017fcd0       ?setup@ai@@YAXPAUfpsent@@@Z 00580cd0 f   ai.obj
 0001:0017fde0       ?findorientation@ai@@YAXAAUvec@@MM0@Z 00580de0 f   ai.obj
 0001:0017ff60       ?damaged@ai@@YAXPAUfpsent@@0@Z 00580f60 f   ai.obj
 0001:001800b0       ?find@ai@@YA_NPAUfpsent@@AAUaistate@1@_N@Z 005810b0 f   ai.obj
 0001:00180330       ?parseinterests@ai@@YA_NPAUfpsent@@AAUaistate@1@AAU?$vector@Uinterest@ai@@@@_N3@Z 00581330 f   ai.obj
 0001:00180580       ?items@ai@@YAXPAUfpsent@@AAUaistate@1@AAU?$vector@Uinterest@ai@@@@_N@Z 00581580 f   ai.obj
 0001:001807a0       ?assist@ai@@YAXPAUfpsent@@AAUaistate@1@AAU?$vector@Uinterest@ai@@@@_N3@Z 005817a0 f   ai.obj
 0001:001808f0       ?hasgoodammo@ai@@YA_NPAUfpsent@@@Z 005818f0 f   ai.obj
 0001:00180910       ?isgoodammo@ai@@YAHH@Z     00581910 f   ai.obj
 0001:00180920       ?target@ai@@YA_NPAUfpsent@@AAUaistate@1@H_NM@Z 00581920 f   ai.obj
 0001:00180bf0       ?violence@ai@@YA_NPAUfpsent@@AAUaistate@1@0H@Z 00581bf0 f   ai.obj
 0001:00180d10       ?defend@ai@@YA_NPAUfpsent@@AAUaistate@1@ABUvec@@MMH@Z 00581d10 f   ai.obj
 0001:00180e10       ?patrol@ai@@YA_NPAUfpsent@@AAUaistate@1@ABUvec@@MMH_N@Z 00581e10 f   ai.obj
 0001:00180fc0       ?enemy@ai@@YA_NPAUfpsent@@AAUaistate@1@ABUvec@@MH@Z 00581fc0 f   ai.obj
 0001:00181170       ?badhealth@ai@@YA_NPAUfpsent@@@Z 00582170 f   ai.obj
 0001:001811a0       ?randomnode@ai@@YA_NPAUfpsent@@AAUaistate@1@MM@Z 005821a0 f   ai.obj
 0001:00181200       ?randomnode@ai@@YA_NPAUfpsent@@AAUaistate@1@ABUvec@@MM@Z 00582200 f   ai.obj
 0001:001813b0       ?makeroute@ai@@YA_NPAUfpsent@@AAUaistate@1@ABUvec@@_NH@Z 005823b0 f   ai.obj
 0001:001813f0       ?makeroute@ai@@YA_NPAUfpsent@@AAUaistate@1@H_NH@Z 005823f0 f   ai.obj
 0001:00181470       ?checkothers@ai@@YA_NAAU?$vector@H@@PAUfpsent@@HHH_NPAH@Z 00582470 f   ai.obj
 0001:001815d0       ?update@ai@@YAXXZ          005825d0 f   ai.obj
 0001:001816f0       ?init@ai@@YAXPAUfpsent@@HHHHHPBD1@Z 005826f0 f   ai.obj
 0001:00181a80       ?destroy@ai@@YAXPAUfpsent@@@Z 00582a80 f   ai.obj
 0001:00181ab0       ?create@ai@@YAXPAUfpsent@@@Z 00582ab0 f   ai.obj
 0001:00181b20       ?getaimpos@ai@@YA?AUvec@@PAUfpsent@@0@Z 00582b20 f   ai.obj
 0001:00181d10       ?hastarget@ai@@YA_NPAUfpsent@@AAUaistate@1@0MMM@Z 00582d10 f   ai.obj
 0001:00181e90       ?canshoot@ai@@YA_NPAUfpsent@@0@Z 00582e90 f   ai.obj
 0001:00181f80       ?cansee@ai@@YA_NPAUfpsent@@AAUvec@@11@Z 00582f80 f   ai.obj
 0001:00182000       ?getsight@ai@@YA_NAAUvec@@MM00MMM@Z 00583000 f   ai.obj
 0001:00182180       ?targetable@ai@@YA_NPAUfpsent@@0@Z 00583180 f   ai.obj
 0001:00182200       ?weaprange@ai@@YA_NPAUfpsent@@HM@Z 00583200 f   ai.obj
 0001:00182250       ?weapmaxdist@ai@@YAMH@Z    00583250 f   ai.obj
 0001:00182270       ?weapmindist@ai@@YAMH@Z    00583270 f   ai.obj
 0001:001822a0       ?canmove@ai@@YA_NPAUfpsent@@@Z 005832a0 f   ai.obj
 0001:001822b0       ?viewfieldy@ai@@YAMH@Z     005832b0 f   ai.obj
 0001:00182310       ?viewfieldx@ai@@YAMH@Z     00583310 f   ai.obj
 0001:00182350       ?viewdist@ai@@YAMH@Z       00583350 f   ai.obj
 0001:001823a0       ?run@?$_icmd_botbalance@$0BD@@ai@@SAXPAH@Z 005833a0 f   ai.obj
 0001:001823c0       ?run@?$_icmd_botlimit@$0BC@@ai@@SAXPAH@Z 005833c0 f   ai.obj
 0001:001823e0       ?run@?$_icmd_delbot@$0BB@@ai@@SAXXZ 005833e0 f   ai.obj
 0001:001823f0       ?run@?$_icmd_addbot@$0BA@@ai@@SAXPAD@Z 005833f0 f   ai.obj
 0001:00182450       ?checktriggers@entities@@YAXXZ 00583450 f   entities.obj
 0001:001828d0       ?doleveltrigger@entities@@YAXHH@Z 005838d0 f   entities.obj
 0001:00182930       ?run@?$_icmd_trigger@$0BPA@@entities@@SAXPAH0@Z 00583930 f   entities.obj
 0001:00182960       ?unlocktriggers@entities@@YAXHHH@Z 00583960 f   entities.obj
 0001:00182a20       ?resettriggers@entities@@YAXXZ 00583a20 f   entities.obj
 0001:00182ae0       ?setspawn@entities@@YAXH_N@Z 00583ae0 f   entities.obj
 0001:00182b00       ?spawnitems@entities@@YAX_N@Z 00583b00 f   entities.obj
 0001:00182bb0       ?resetspawns@entities@@YAXXZ 00583bb0 f   entities.obj
 0001:00182be0       ?putitems@entities@@YAXAAUpacketbuf@@@Z 00583be0 f   entities.obj
 0001:00182c70       ?trypickup@entities@@YAXHPAUfpsent@@@Z 00583c70 f   entities.obj
 0001:00182eb0       ?teleport@entities@@YAXHPAUfpsent@@@Z 00583eb0 f   entities.obj
 0001:00183060       ?jumppadeffects@entities@@YAXPAUfpsent@@H_N@Z 00584060 f   entities.obj
 0001:00183210       ?teleporteffects@entities@@YAXPAUfpsent@@HH_N@Z 00584210 f   entities.obj
 0001:00183420       ?pickupeffects@entities@@YAXHPAUfpsent@@@Z 00584420 f   entities.obj
 0001:001835a0       ?repammo@entities@@YAXPAUfpsent@@H_N@Z 005845a0 f   entities.obj
 0001:00183610       ?addammo@entities@@YAXHAAH_N@Z 00584610 f   entities.obj
 0001:00183670       ?renderentities@entities@@YAXXZ 00584670 f   entities.obj
 0001:00183800       ?preloadentities@entities@@YAXXZ 00584800 f   entities.obj
 0001:00183a90       ?entmdlname@entities@@YAPBDH@Z 00584a90 f   entities.obj
 0001:00183aa0       ?itemicon@entities@@YAHH@Z 00584aa0 f   entities.obj
 0001:00183ad0       ?checkquad@entities@@YAXHPAUfpsent@@@Z 00584ad0 f   entities.obj
 0001:00183b40       ?checkitems@entities@@YAXPAUfpsent@@@Z 00584b40 f   entities.obj
 0001:00183c50       ?animatemapmodel@entities@@YAXABUextentity@@AAH1@Z 00584c50 f   entities.obj
 0001:00183cb0       ?readent@entities@@YAXAAUentity@@PADH@Z 00584cb0 f   entities.obj
 0001:00183d50       ?extraentinfosize@entities@@YAHXZ 00584d50 f   entities.obj
 0001:00183d60       ?writeent@entities@@YAXAAUentity@@PAD@Z 00584d60 f   entities.obj
 0001:00183d70       ?entname@entities@@YAPBDH@Z 00584d70 f   entities.obj
 0001:00183d90       ?entnameinfo@entities@@YAPBDAAUentity@@@Z 00584d90 f   entities.obj
 0001:00183da0       ?mayattach@entities@@YA_NAAUextentity@@@Z 00584da0 f   entities.obj
 0001:00183db0       ?attachent@entities@@YA_NAAUextentity@@0@Z 00584db0 f   entities.obj
 0001:00183dc0       ?editent@entities@@YAXH_N@Z 00584dc0 f   entities.obj
 0001:00183e70       ?entmodel@entities@@YAPBDABUentity@@@Z 00584e70 f   entities.obj
 0001:00183eb0       ?entradius@entities@@YAXAAUextentity@@_N@Z 00584eb0 f   entities.obj
 0001:00184160       ?fixentity@entities@@YAXAAUextentity@@@Z 00585160 f   entities.obj
 0001:001841d0       ?deleteentity@entities@@YAXPAUextentity@@@Z 005851d0 f   entities.obj
 0001:001841e0       ?printent@entities@@YA_NAAUextentity@@PAD@Z 005851e0 f   entities.obj
 0001:001841f0       ?clearents@entities@@YAXXZ 005851f0 f   entities.obj
 0001:00184230       ?dropheight@entities@@YAMAAUentity@@@Z 00585230 f   entities.obj
 0001:00184250       ?newentity@entities@@YAPAUextentity@@XZ 00585250 f   entities.obj
 0001:001842f0       ?getents@entities@@YAAAU?$vector@PAUextentity@@@@XZ 005852f0 f   entities.obj
 0001:00184380       ?mastermodeicon@game@@YAPBDHPBD@Z 00585380 f   fps.obj
 0001:001843a0       ?mastermodecolor@game@@YAPBDHPBD@Z 005853a0 f   fps.obj
 0001:001843c0       ?drawhudicons@game@@YAXPAUfpsent@@@Z 005853c0 f   fps.obj
 0001:00184500       ?drawammohud@game@@YAXPAUfpsent@@@Z 00585500 f   fps.obj
 0001:00184790       ?run@?$_icmd_ammohudcycle@$0CPP@@game@@SAXPAUtagval@@H@Z 00585790 f   fps.obj
 0001:00184860       ?run@?$_icmd_ammohuddown@$0CPK@@game@@SAXPAUtagval@@H@Z 00585860 f   fps.obj
 0001:00184930       ?run@?$_icmd_ammohudup@$0CPF@@game@@SAXPAUtagval@@H@Z 00585930 f   fps.obj
 0001:00184a00       ?drawicon@game@@YAXHMMM@Z  00585a00 f   fps.obj
 0001:00184bb0       ?run@?$_icmd_suicide@$0CNC@@game@@SAXXZ 00585bb0 f   fps.obj
 0001:00184bc0       ?teamcolor@game@@YAPBDPBD00@Z 00585bc0 f   fps.obj
 0001:00184c40       ?teamcolor@game@@YAPBDPBD_N0@Z 00585c40 f   fps.obj
 0001:00184cf0       ?teamcolorname@game@@YAPBDPAUfpsent@@PBD@Z 00585cf0 f   fps.obj
 0001:00184da0       ?duplicatename@game@@YA_NPAUfpsent@@PBD1@Z 00585da0 f   fps.obj
 0001:00184e50       ?startgame@game@@YAXXZ     00585e50 f   fps.obj
 0001:00185100       ?clearclients@game@@YAX_N@Z 00586100 f   fps.obj
 0001:00185260       ?clientdisconnected@game@@YAXH_N@Z 00586260 f   fps.obj
 0001:00185390       ?run@?$_icmd_gettotalshots@$0BNH@@game@@SAXXZ 00586390 f   fps.obj
 0001:001853b0       ?run@?$_icmd_gettotaldamage@$0BNG@@game@@SAXXZ 005863b0 f   fps.obj
 0001:001853d0       ?run@?$_icmd_getaccuracy@$0BNF@@game@@SAXXZ 005863d0 f   fps.obj
 0001:00185410       ?run@?$_icmd_getdeaths@$0BNE@@game@@SAXXZ 00586410 f   fps.obj
 0001:00185430       ?run@?$_icmd_getflags@$0BND@@game@@SAXXZ 00586430 f   fps.obj
 0001:00185450       ?run@?$_icmd_getfrags@$0BNC@@game@@SAXXZ 00586450 f   fps.obj
 0001:00185470       ?timeupdate@game@@YAXH@Z   00586470 f   fps.obj
 0001:00185610       ?killed@game@@YAXPAUfpsent@@0@Z 00586610 f   fps.obj
 0001:00185820       ?deathstate@game@@YAXPAUfpsent@@_N@Z 00586820 f   fps.obj
 0001:00185990       ?damaged@game@@YAXHPAUfpsent@@0_N@Z 00586990 f   fps.obj
 0001:00185b40       ?respawn@game@@YAXXZ       00586b40 f   fps.obj
 0001:00185c60       ?spawnplayer@game@@YAXPAUfpsent@@@Z 00586c60 f   fps.obj
 0001:00185ce0       ?checkslowmo@game@@YAXXZ   00586ce0 f   fps.obj
 0001:00185da0       ?var_slowmosp@game@@YAXXZ  00586da0 f   fps.obj
 0001:00185e00       ?otherplayers@game@@YAXH@Z 00586e00 f   fps.obj
 0001:00186030       ?predictplayer@game@@YAXPAUfpsent@@_N@Z 00587030 f   fps.obj
 0001:001861b0       ?hudplayer@game@@YAPAUfpsent@@XZ 005871b0 f   fps.obj
 0001:00186210       ?followingplayer@game@@YAPAUfpsent@@XZ 00587210 f   fps.obj
 0001:00186250       ?stopfollowing@game@@YAXXZ 00587250 f   fps.obj
 0001:00186280       ?respawnself@game@@YAXXZ   00587280 f   fps.obj
 0001:00186340       ?spawnstate@game@@YAPAUfpsent@@PAU2@@Z 00587340 f   fps.obj
 0001:00186360       ?run@?$_icmd_nextfollow@$0EC@@game@@SAXPAH@Z 00587360 f   fps.obj
 0001:00186380       ?nextfollow@game@@YAXH@Z   00587380 f   fps.obj
 0001:00186460       ?follow@game@@YAXPAD@Z     00587460 f   fps.obj
 0001:001864e0       ?run@?$_icmd_getfollow@$0BP@@game@@SAXXZ 005874e0 f   fps.obj
 0001:00186540       ?taunt@game@@YAXXZ         00587540 f   fps.obj
 0001:00186590       ?clientoption@game@@YA_NPBD@Z 00587590 f   fps.obj
 0001:001865a0       ?msgsound@game@@YAXHPAUphysent@@@Z 005875a0 f   fps.obj
 0001:00186630       ?newclient@game@@YAPAUfpsent@@H@Z 00587630 f   fps.obj
 0001:00186750       ?colorname@game@@YAPBDPAUfpsent@@PBD111@Z 00587750 f   fps.obj
 0001:00186840       ?getclient@game@@YAPAUfpsent@@H@Z 00587840 f   fps.obj
 0001:00186870       ?initclient@game@@YAXXZ    00587870 f   fps.obj
 0001:00186950       ?restoreconfig@game@@YAPBDXZ 00587950 f   fps.obj
 0001:00186960       ?loadconfigs@game@@YAXXZ   00587960 f   fps.obj
 0001:00186970       ?updateworld@game@@YAXXZ   00587970 f   fps.obj
 0001:00186c70       ?clipconsole@game@@YAHHH@Z 00587c70 f   fps.obj
 0001:00186c90       ?savedconfig@game@@YAPBDXZ 00587c90 f   fps.obj
 0001:00186ca0       ?autoexec@game@@YAPBDXZ    00587ca0 f   fps.obj
 0001:00186cb0       ?defaultconfig@game@@YAPBDXZ 00587cb0 f   fps.obj
 0001:00186cc0       ?lighteffects@game@@YAXPAUdynent@@AAUvec@@1@Z 00587cc0 f   fps.obj
 0001:00186cd0       ?setupcamera@game@@YAXXZ   00587cd0 f   fps.obj
 0001:00186d90       ?detachcamera@game@@YA_NXZ 00587d90 f   fps.obj
 0001:00186da0       ?collidecamera@game@@YA_NXZ 00587da0 f   fps.obj
 0001:00186e00       ?needminimap@game@@YA_NXZ  00587e00 f   fps.obj
 0001:00186e50       ?defaultcrosshair@game@@YAPBDH@Z 00587e50 f   fps.obj
 0001:00186e70       ?selectcrosshair@game@@YAHAAM00@Z 00587e70 f   fps.obj
 0001:00187020       ?gameplayhud@game@@YAXHH@Z 00588020 f   fps.obj
 0001:001872b0       ?abovegameplayhud@game@@YAMHH@Z 005882b0 f   fps.obj
 0001:001872d0       ?serverinfostartcolumn@game@@YA_NPAUg3d_gui@@H@Z 005882d0 f   fps.obj
 0001:00187340       ?serverinfoentry@game@@YA_NPAUg3d_gui@@HPBDH11HABU?$vector@H@@H@Z 00588340 f   fps.obj
 0001:00187630       ?serverinfoendcolumn@game@@YAXPAUg3d_gui@@H@Z 00588630 f   fps.obj
 0001:00187650       ?savedservers@game@@YAPBDXZ 00588650 f   fps.obj
 0001:00187660       ?writegamedata@game@@YAXAAU?$vector@D@@@Z 00588660 f   fps.obj
 0001:00187670       ?getmapinfo@game@@YAPBDXZ  00588670 f   fps.obj
 0001:001876a0       ?readgamedata@game@@YAXAAU?$vector@D@@@Z 005886a0 f   fps.obj
 0001:001876b0       ?startmap@game@@YAXPBD@Z   005886b0 f   fps.obj
 0001:001877c0       ?numdynents@game@@YAHXZ    005887c0 f   fps.obj
 0001:001877e0       ?iterdynents@game@@YAPAUdynent@@H@Z 005887e0 f   fps.obj
 0001:00187820       ?dynentcollide@game@@YAXPAUphysent@@0ABUvec@@@Z 00588820 f   fps.obj
 0001:00187890       ?allowmove@game@@YA_NPAUphysent@@@Z 00588890 f   fps.obj
 0001:001878c0       ?physicstrigger@game@@YAXPAUphysent@@_NHHH@Z 005888c0 f   fps.obj
 0001:00187970       ?suicide@game@@YAXPAUphysent@@@Z 00588970 f   fps.obj
 0001:00187a30       ?canjump@game@@YA_NXZ      00588a30 f   fps.obj
 0001:00187a60       ?doattack@game@@YAX_N@Z    00588a60 f   fps.obj
 0001:00187a80       ?resetgamestate@game@@YAXXZ 00588a80 f   fps.obj
 0001:00187ad0       ?getclientmap@game@@YAPBDXZ 00588ad0 f   fps.obj
 0001:00187b60       ?hitmonster@game@@YAXHPAUmonster@1@PAUfpsent@@ABUvec@@H@Z 00588b60 f   monster.obj
 0001:00187b70       ?rendermonsters@game@@YAXXZ 00588b70 f   monster.obj
 0001:00187cc0       ?monsterkilled@game@@YAXXZ 00588cc0 f   monster.obj
 0001:00187d10       ?run@?$_icmd_endsp@$0BFM@@game@@SAXXZ 00588d10 f   monster.obj
 0001:00187d40       ?spawnmonster@game@@YAXXZ  00588d40 f   monster.obj
 0001:00187e20       ?preloadmonsters@game@@YAXXZ 00588e20 f   monster.obj
 0001:00188010       ?run@?$_icmd_nummonsters@$0BBK@@game@@SAXPAH0@Z 00589010 f   monster.obj
 0001:00188040       ?nummonsters@game@@YAHHH@Z 00589040 f   monster.obj
 0001:001880a0       ?clearmonsters@game@@YAXXZ 005890a0 f   monster.obj
 0001:001883a0       ?updatemonsters@game@@YAXH@Z 005893a0 f   monster.obj
 0001:001885d0       ?spsummary@game@@YAXH@Z    005895d0 f   monster.obj
 0001:001887e0       ?stackmonster@game@@YAXPAUmonster@1@PAUphysent@@@Z 005897e0 f   monster.obj
 0001:00188800       ?suicidemonster@game@@YAXPAUmonster@1@@Z 00589800 f   monster.obj
 0001:00188820       ?endsp@game@@YAX_N@Z       00589820 f   monster.obj
 0001:00188880       ?hitmovable@game@@YAXHPAUmovable@1@PAUfpsent@@ABUvec@@H@Z 00589880 f   movable.obj
 0001:00188960       ?rendermovables@game@@YAXXZ 00589960 f   movable.obj
 0001:00188a40       ?run@?$_icmd_platform@$0HK@@game@@SAXPAH0@Z 00589a40 f   movable.obj
 0001:00188a60       ?triggerplatform@game@@YAXHH@Z 00589a60 f   movable.obj
 0001:00188bf0       ?clearmovables@game@@YAXXZ 00589bf0 f   movable.obj
 0001:00188d30       ?updatemovables@game@@YAXH@Z 00589d30 f   movable.obj
 0001:001890f0       ?stackmovable@game@@YAXPAUmovable@1@PAUphysent@@@Z 0058a0f0 f   movable.obj
 0001:00189110       ?suicidemovable@game@@YAXPAUmovable@1@@Z 0058a110 f   movable.obj
 0001:00189230       ?preloadsounds@game@@YAXXZ 0058a230 f   render.obj
 0001:001893a0       ?preloadweapons@game@@YAXXZ 0058a3a0 f   render.obj
 0001:00189590       ?hudgunorigin@game@@YA?AUvec@@HABU2@0PAUfpsent@@@Z 0058a590 f   render.obj
 0001:00189940       ?drawhudgun@game@@YAXXZ    0058a940 f   render.obj
 0001:00189a40       ?drawhudmodel@game@@YAXPAUfpsent@@HMH@Z 0058aa40 f   render.obj
 0001:00189ed0       ?renderplayer@game@@YAXPAUfpsent@@ABUplayermodelinfo@1@HM_N@Z 0058aed0 f   render.obj
 0001:0018a330       ?preloadplayermodel@game@@YAXXZ 0058b330 f   render.obj
 0001:0018a4c0       ?changedplayermodel@game@@YAXXZ 0058b4c0 f   render.obj
 0001:0018a630       ?getplayermodelinfo@game@@YAABUplayermodelinfo@1@PAUfpsent@@@Z 0058b630 f   render.obj
 0001:0018a680       ?getplayermodelinfo@game@@YAPBUplayermodelinfo@1@H@Z 0058b680 f   render.obj
 0001:0018a6a0       ?saveragdoll@game@@YAXPAUfpsent@@@Z 0058b6a0 f   render.obj
 0001:0018a7d0       ?var_playermodel@game@@YAXXZ 0058b7d0 f   render.obj
 0001:0018a7e0       ?moveragdolls@game@@YAXXZ  0058b7e0 f   render.obj
 0001:0018a860       ?swayhudgun@game@@YAXH@Z   0058b860 f   render.obj
 0001:0018aaf0       ?clearragdolls@game@@YAXXZ 0058baf0 f   render.obj
 0001:0018ab00       ?chooserandomplayermodel@game@@YAHH@Z 0058bb00 f   render.obj
 0001:0018ab10       ?rendergame@game@@YAX_N@Z  0058bb10 f   render.obj
 0001:0018b060       ?renderavatar@game@@YAXXZ  0058c060 f   render.obj
 0001:0018b070       ?renderplayerpreview@game@@YAXHHH@Z 0058c070 f   render.obj
 0001:0018b260       ?preload@game@@YAXXZ       0058c260 f   render.obj
 0001:0018bba0       ?run@?$_icmd_showscores@$0BOL@@game@@SAXPAH@Z 0058cba0 f   scoreboard.obj
 0001:0018bbd0       ?var_scoreboard@game@@YAXXZ 0058cbd0 f   scoreboard.obj
 0001:0018bbf0       ?renderscoreboard@game@@YAXAAUg3d_gui@@_N@Z 0058cbf0 f   scoreboard.obj
 0001:0018cfa0       ?setteaminfo@game@@YAXPBDH@Z 0058dfa0 f   scoreboard.obj
 0001:0018d010       ?getbestteams@game@@YAXAAU?$vector@PBD@@@Z 0058e010 f   scoreboard.obj
 0001:0018d2c0       ?getbestplayers@game@@YAXAAU?$vector@PAUfpsent@@@@@Z 0058e2c0 f   scoreboard.obj
 0001:0018d380       ?showscores@game@@YAX_N@Z  0058e380 f   scoreboard.obj
 0001:0018d3a0       ?clearteaminfo@game@@YAXXZ 0058e3a0 f   scoreboard.obj
 0001:0018d3b0       ?g3d_gamemenus@game@@YAXXZ 0058e3b0 f   scoreboard.obj
 0001:0018d4b0       ?run@?$_icmd_movewaypoints@$0DCG@@ai@@SAXPAH00@Z 0058e4b0 f   waypoint.obj
 0001:0018d500       ?movewaypoints@ai@@YAXABUvec@@@Z 0058e500 f   waypoint.obj
 0001:0018d620       ?delselwaypoints@ai@@YAXXZ 0058e620 f   waypoint.obj
 0001:0018d760       ?run@?$_icmd_savewaypoints@$0CPF@@ai@@SAXPAD@Z 0058e760 f   waypoint.obj
 0001:0018d770       ?run@?$_icmd_loadwaypoints@$0CNI@@ai@@SAXPAD@Z 0058e770 f   waypoint.obj
 0001:0018d780       ?getwaypointfile@ai@@YA_NPBDPAD@Z 0058e780 f   waypoint.obj
 0001:0018d800       ?cleanwaypoints@ai@@YA_NXZ 0058e800 f   waypoint.obj
 0001:0018d9d0       ?remapwaypoints@ai@@YAXXZ  0058e9d0 f   waypoint.obj
 0001:0018db90       ?seedwaypoints@ai@@YAXXZ   0058eb90 f   waypoint.obj
 0001:0018dca0       ?run@?$_icmd_clearwaypoints@$0CGB@@ai@@SAXXZ 0058eca0 f   waypoint.obj
 0001:0018dcc0       ?navigate@ai@@YAXPAUfpsent@@@Z 0058ecc0 f   waypoint.obj
 0001:0018df50       ?linkwaypoint@ai@@YAXAAUwaypoint@1@H@Z 0058ef50 f   waypoint.obj
 0001:0018e050       ?addwaypoint@ai@@YAHABUvec@@H@Z 0058f050 f   waypoint.obj
 0001:0018e0c0       ?var_dropwaypoints@ai@@YAXXZ 0058f0c0 f   waypoint.obj
 0001:0018e0f0       ?buildwpcache@ai@@YAXXZ    0058f0f0 f   waypoint.obj
 0001:0018e1c0       ?run@?$_icmd_clearwpcache@$0LL@@ai@@SAXXZ 0058f1c0 f   waypoint.obj
 0001:0018e1d0       ?clearwpcache@ai@@YAX_N@Z  0058f1d0 f   waypoint.obj
 0001:0018e360       ?getweight@ai@@YAHABUvec@@@Z 0058f360 f   waypoint.obj
 0001:0018e4c0       ?clipped@ai@@YA_NABUvec@@@Z 0058f4c0 f   waypoint.obj
 0001:0018e4f0       ?navigate@ai@@YAXXZ        0058f4f0 f   waypoint.obj
 0001:0018e560       ?savewaypoints@ai@@YAX_NPBD@Z 0058f560 f   waypoint.obj
 0001:0018e770       ?clearwaypoints@ai@@YAX_N@Z 0058f770 f   waypoint.obj
 0001:0018e7a0       ?inferwaypoints@ai@@YAXPAUfpsent@@ABUvec@@1M@Z 0058f7a0 f   waypoint.obj
 0001:0018e900       ?loadwaypoints@ai@@YAX_NPBD@Z 0058f900 f   waypoint.obj
 0001:0018ec20       ?route@ai@@YA_NPAUfpsent@@HHAAU?$vector@H@@ABUavoidset@1@H@Z 0058fc20 f   waypoint.obj
 0001:0018f240       ?closestwaypoint@ai@@YAHABUvec@@M_NPAUfpsent@@@Z 00590240 f   waypoint.obj
 0001:0018f690       ?findwaypointswithin@ai@@YAXABUvec@@MMAAU?$vector@H@@@Z 00590690 f   waypoint.obj
 0001:0018fb80       ?remap@avoidset@ai@@QAEHPAUfpsent@@HAAUvec@@_N@Z 00590b80 f   waypoint.obj
 0001:0018fd70       ?avoidnear@avoidset@ai@@QAEXPAXMABUvec@@M@Z 00590d70 f   waypoint.obj
 0001:00190250       ?checkidlesound@game@@YAXPAUfpsent@@_N@Z 00591250 f   weapon.obj
 0001:00190360       ?checkattacksound@game@@YAXPAUfpsent@@_N@Z 00591360 f   weapon.obj
 0001:00190420       ?raydamage@game@@YAXAAUvec@@0PAUfpsent@@@Z 00591420 f   weapon.obj
 0001:00190a10       ?shorten@game@@YAXAAUvec@@0M@Z 00591a10 f   weapon.obj
 0001:00190a70       ?shoteffects@game@@YAXHABUvec@@0PAUfpsent@@_NHH@Z 00591a70 f   weapon.obj
 0001:001916d0       ?updateprojectiles@game@@YAXH@Z 005926d0 f   weapon.obj
 0001:00191d90       ?projdamage@game@@YA_NPAUdynent@@AAUprojectile@1@AAUvec@@H@Z 00592d90 f   weapon.obj
 0001:00191f10       ?explodeeffects@game@@YAXHPAUfpsent@@_NH@Z 00592f10 f   weapon.obj
 0001:00192370       ?projsplash@game@@YAXAAUprojectile@1@AAUvec@@PAUdynent@@H@Z 00593370 f   weapon.obj
 0001:00192520       ?radialeffect@game@@YAXPAUdynent@@ABUvec@@HPAUfpsent@@H@Z 00593520 f   weapon.obj
 0001:00192660       ?projdist@game@@YAMPAUdynent@@AAUvec@@ABU3@@Z 00593660 f   weapon.obj
 0001:00192720       ?hitpush@game@@YAXHPAUdynent@@PAUfpsent@@AAUvec@@2HH@Z 00593720 f   weapon.obj
 0001:00192830       ?hit@game@@YAXHPAUdynent@@PAUfpsent@@ABUvec@@HMH@Z 00593830 f   weapon.obj
 0001:00192ad0       ?spawnbouncer@game@@YAXABUvec@@0PAUfpsent@@HPAUentitylight@@@Z 00593ad0 f   weapon.obj
 0001:00192c10       ?removeprojectiles@game@@YAXPAUfpsent@@@Z 00593c10 f   weapon.obj
 0001:00192cc0       ?newprojectile@game@@YAXABUvec@@0M_NHPAUfpsent@@H@Z 00593cc0 f   weapon.obj
 0001:00192e40       ?removebouncers@game@@YAXPAUfpsent@@@Z 00593e40 f   weapon.obj
 0001:00192eb0       ?updatebouncers@game@@YAXH@Z 00593eb0 f   weapon.obj
 0001:001932e0       ?newbouncer@game@@YAXABUvec@@0_NHPAUfpsent@@HHHPAUentitylight@@@Z 005942e0 f   weapon.obj
 0001:00193750       ?createrays@game@@YAXHABUvec@@0@Z 00594750 f   weapon.obj
 0001:00193a60       ?offsetray@game@@YAXABUvec@@0HMAAU2@@Z 00594a60 f   weapon.obj
 0001:00193d30       ?run@?$_icmd_weapon@$0HE@@game@@SAXPAUtagval@@H@Z 00594d30 f   weapon.obj
 0001:00193e10       ?weaponswitch@game@@YAXPAUfpsent@@@Z 00594e10 f   weapon.obj
 0001:00193ee0       ?run@?$_icmd_cycleweapon@$0FG@@game@@SAXPAUtagval@@H@Z 00594ee0 f   weapon.obj
 0001:00193fe0       ?cycleweapon@game@@YAXHPAH_N@Z 00594fe0 f   weapon.obj
 0001:001940c0       ?run@?$_icmd_setweapon@$0DO@@game@@SAXPADPAH@Z 005950c0 f   weapon.obj
 0001:00194120       ?setweapon@game@@YAXPBD_N@Z 00595120 f   weapon.obj
 0001:00194170       ?run@?$_icmd_nextweapon@$0CN@@game@@SAXPAH0@Z 00595170 f   weapon.obj
 0001:00194190       ?nextweapon@game@@YAXH_N@Z 00595190 f   weapon.obj
 0001:001942b0       ?run@?$_icmd_getweapon@$0BE@@game@@SAXXZ 005952b0 f   weapon.obj
 0001:001942d0       ?renderbouncers@game@@YAXXZ 005952d0 f   weapon.obj
 0001:001944e0       ?renderprojectiles@game@@YAXXZ 005954e0 f   weapon.obj
 0001:001947a0       ?preloadbouncers@game@@YAXXZ 005957a0 f   weapon.obj
 0001:00194a30       ?explode@game@@YAX_NPAUfpsent@@ABUvec@@PAUdynent@@HH@Z 00595a30 f   weapon.obj
 0001:00194f30       ?clearprojectiles@game@@YAXXZ 00595f30 f   weapon.obj
 0001:00194f50       ?clearbouncers@game@@YAXXZ 00595f50 f   weapon.obj
 0001:00194f60       ?intersect@game@@YA_NPAUdynent@@ABUvec@@1AAM@Z 00595f60 f   weapon.obj
 0001:00194fe0       ?updateweapons@game@@YAXH@Z 00595fe0 f   weapon.obj
 0001:00195090       ?damageeffect@game@@YAXHPAUfpsent@@_N@Z 00596090 f   weapon.obj
 0001:001951c0       ?gibeffect@game@@YAXHABUvec@@PAUfpsent@@@Z 005961c0 f   weapon.obj
 0001:00195260       ?getweapon@game@@YAHPBD@Z  00596260 f   weapon.obj
 0001:001952f0       ?removeweapons@game@@YAXPAUfpsent@@@Z 005962f0 f   weapon.obj
 0001:00195300       ?intersectclosest@game@@YAPAUdynent@@ABUvec@@0PAUfpsent@@AAM@Z 00596300 f   weapon.obj
 0001:00195460       ?gunselect@game@@YAXHPAUfpsent@@@Z 00596460 f   weapon.obj
 0001:001954b0       ?shoot@game@@YAXPAUfpsent@@ABUvec@@@Z 005964b0 f   weapon.obj
 0001:00195970       ?avoidweapons@game@@YAXAAUavoidset@ai@@M@Z 00596970 f   weapon.obj
 0001:00195a70       ?particletrack@game@@YAXPAUphysent@@AAUvec@@1@Z 00596a70 f   weapon.obj
 0001:00195c50       ?adddynlights@game@@YAXXZ  00596c50 f   weapon.obj
 0001:00195eb0       ?dynlighttrack@game@@YAXPAUphysent@@AAUvec@@1@Z 00596eb0 f   weapon.obj
 0001:00195f40       ?bounced@game@@YAXPAUphysent@@ABUvec@@@Z 00596f40 f   weapon.obj
 0001:00196210       ?gotosel@game@@YAXXZ       00597210 f   client1.obj
 0001:00196360       ?gotoplayer@game@@YAXPBD@Z 00597360 f   client1.obj
 0001:001964f0       ?sendmap@game@@YAXXZ       005974f0 f   client1.obj
 0001:00196680       ?listdemos@game@@YAXXZ     00597680 f   client1.obj
 0001:001966a0       ?run@?$_icmd_getdemo@$0IMJ@@game@@SAXPAH@Z 005976a0 f   client1.obj
 0001:001966f0       ?getdemo@game@@YAXH@Z      005976f0 f   client1.obj
 0001:00196740       ?run@?$_icmd_cleardemos@$0IMB@@game@@SAXPAH@Z 00597740 f   client1.obj
 0001:00196770       ?cleardemos@game@@YAXH@Z   00597770 f   client1.obj
 0001:001967a0       ?run@?$_icmd_recorddemo@$0ILK@@game@@SAXPAH@Z 005977a0 f   client1.obj
 0001:001967d0       ?recorddemo@game@@YAXH@Z   005977d0 f   client1.obj
 0001:00196800       ?stopdemo@game@@YAXXZ      00597800 f   client1.obj
 0001:00196850       ?getmap@game@@YAXXZ        00597850 f   client1.obj
 0001:001968a0       ?receivefile@game@@YAXAAUpacketbuf@@@Z 005978a0 f   client1.obj
 0001:00196e90       ?parsemessages@game@@YAXHPAUfpsent@@AAU?$databuf@E@@@Z 00597e90 f   client1.obj
 0001:001999c0       ?parsestate@game@@YAXPAUfpsent@@AAU?$databuf@E@@_N@Z 0059a9c0 f   client1.obj
 0001:00199b30       ?run@?$_icmd_getclientarmour@$0EPC@@game@@SAXPAH@Z 0059ab30 f   client1.obj
 0001:00199b90       ?run@?$_icmd_getarmour@$0EON@@game@@SAXXZ 0059ab90 f   client1.obj
 0001:00199bb0       ?run@?$_icmd_clienthashelmet@$0EOK@@game@@SAXPAH@Z 0059abb0 f   client1.obj
 0001:00199c20       ?run@?$_icmd_hashelmet@$0EOF@@game@@SAXXZ 0059ac20 f   client1.obj
 0001:00199c40       ?run@?$_icmd_clienthaskevlar@$0EOC@@game@@SAXPAH@Z 0059ac40 f   client1.obj
 0001:00199cb0       ?run@?$_icmd_haskevlar@$0ENN@@game@@SAXXZ 0059acb0 f   client1.obj
 0001:00199cd0       ?run@?$_icmd_getclientcash@$0ENK@@game@@SAXPAH@Z 0059acd0 f   client1.obj
 0001:00199d40       ?run@?$_icmd_getcash@$0ENF@@game@@SAXXZ 0059ad40 f   client1.obj
 0001:00199d60       ?parsepositions@game@@YAXAAU?$databuf@E@@@Z 0059ad60 f   client1.obj
 0001:0019a730       ?updatepos@game@@YAXPAUfpsent@@@Z 0059b730 f   client1.obj
 0001:0019a830       ?sendintro@game@@YAXXZ     0059b830 f   client1.obj
 0001:0019aae0       ?scfAnswerModelAuth@game@@YA_NHPAUfpsent@@@Z 0059bae0 f   client1.obj
 0001:0019ad30       ?run@?$_icmd_pm@$0DPF@@game@@SAXPAHPBD@Z 0059bd30 f   client1.obj
 0001:0019ade0       ?sendmessages@game@@YAXXZ  0059bde0 f   client1.obj
 0001:0019b050       ?sendpositions@game@@YAXXZ 0059c050 f   client1.obj
 0001:0019bae0       ?run@?$_icmd_servcmd@$0DFN@@game@@SAXPAD@Z 0059cae0 f   client1.obj
 0001:0019bb00       ?sayteam@game@@YAXPAD@Z    0059cb00 f   client1.obj
 0001:0019bb50       ?run@?$_icmd_gamespeed@$0COF@@game@@SAXPAH0PAUident@@@Z 0059cb50 f   client1.obj
 0001:0019bbd0       ?changegamespeed@game@@YAXH@Z 0059cbd0 f   client1.obj
 0001:0019bc30       ?run@?$_icmd_paused@$0CNE@@game@@SAXPAH0PAUident@@@Z 0059cc30 f   client1.obj
 0001:0019bcc0       ?run@?$_icmd_pausegame@$0CMO@@game@@SAXPAH@Z 0059ccc0 f   client1.obj
 0001:0019bcd0       ?pausegame@game@@YAX_N@Z   0059ccd0 f   client1.obj
 0001:0019bd30       ?printvar@game@@YAXPAUfpsent@@PAUident@@@Z 0059cd30 f   client1.obj
 0001:0019be60       ?sendclipboard@game@@YAXXZ 0059ce60 f   client1.obj
 0001:0019bfe0       ?run@?$_icmd_map@$0CDO@@game@@SAXPAD@Z 0059cfe0 f   client1.obj
 0001:0019bff0       ?run@?$_icmds_@$0CCP@@game@@SAXPAH@Z 0059cff0 f   client1.obj
 0001:0019c030       ?run@?$_icmds_@$0CCO@@game@@SAXPAH@Z 0059d030 f   client1.obj
 0001:0019c070       ?run@?$_icmds_@$0CCN@@game@@SAXPAH@Z 0059d070 f   client1.obj
 0001:0019c0b0       ?run@?$_icmds_@$0CCM@@game@@SAXPAH@Z 0059d0b0 f   client1.obj
 0001:0019c0f0       ?run@?$_icmds_@$0CCL@@game@@SAXPAH@Z 0059d0f0 f   client1.obj
 0001:0019c130       ?run@?$_icmds_@$0CCK@@game@@SAXPAH@Z 0059d130 f   client1.obj
 0001:0019c170       ?run@?$_icmds_@$0CCJ@@game@@SAXPAH@Z 0059d170 f   client1.obj
 0001:0019c1b0       ?run@?$_icmds_@$0CCI@@game@@SAXPAH@Z 0059d1b0 f   client1.obj
 0001:0019c1f0       ?run@?$_icmds_@$0CCH@@game@@SAXPAH@Z 0059d1f0 f   client1.obj
 0001:0019c240       ?run@?$_icmds_@$0CCG@@game@@SAXPAH@Z 0059d240 f   client1.obj
 0001:0019c290       ?run@?$_icmds_@$0CCF@@game@@SAXPAH@Z 0059d290 f   client1.obj
 0001:0019c2d0       ?run@?$_icmds_@$0CCE@@game@@SAXPAH@Z 0059d2d0 f   client1.obj
 0001:0019c320       ?run@?$_icmds_@$0CCD@@game@@SAXPAH@Z 0059d320 f   client1.obj
 0001:0019c360       ?run@?$_icmds_@$0CCC@@game@@SAXPAH@Z 0059d360 f   client1.obj
 0001:0019c3a0       ?run@?$_icmds_@$0CCB@@game@@SAXPAH@Z 0059d3a0 f   client1.obj
 0001:0019c3e0       ?run@?$_icmds_@$0CCA@@game@@SAXPAH@Z 0059d3e0 f   client1.obj
 0001:0019c420       ?run@?$_icmds_@$0CBP@@game@@SAXPAH@Z 0059d420 f   client1.obj
 0001:0019c460       ?run@?$_icmds_@$0CBO@@game@@SAXPAH@Z 0059d460 f   client1.obj
 0001:0019c4a0       ?run@?$_icmd_timeremaining@$0CBN@@game@@SAXPAH@Z 0059d4a0 f   client1.obj
 0001:0019c580       ?run@?$_icmd_getmode@$0CBD@@game@@SAXXZ 0059d580 f   client1.obj
 0001:0019c5a0       ?run@?$_icmd_mode@$0CBC@@game@@SAXPAH@Z 0059d5a0 f   client1.obj
 0001:0019c5b0       ?setmode@game@@YAXH@Z      0059d5b0 f   client1.obj
 0001:0019c630       ?changemapserv@game@@YAXPBDH@Z 0059d630 f   client1.obj
 0001:0019c760       ?run@?$_icmd_checkmaps@$0BOO@@game@@SAXXZ 0059d760 f   client1.obj
 0001:0019c770       ?run@?$_icmd_spectator@$0BOM@@game@@SAXPAHPAD@Z 0059d770 f   client1.obj
 0001:0019c7b0       ?togglespectator@game@@YAXHPBD@Z 0059d7b0 f   client1.obj
 0001:0019c7f0       ?run@?$_icmd_dauth@$0BOF@@game@@SAXPAD@Z 0059d7f0 f   client1.obj
 0001:0019c820       ?run@?$_icmd_sauth@$0BOE@@game@@SAXXZ 0059d820 f   client1.obj
 0001:0019c860       ?run@?$_icmd_auth@$0BOD@@game@@SAXPAD@Z 0059d860 f   client1.obj
 0001:0019c890       ?tryauth@game@@YA_NPBD@Z   0059d890 f   client1.obj
 0001:0019c8c0       ?run@?$_icmd_mastermode@$0BNJ@@game@@SAXPAH@Z 0059d8c0 f   client1.obj
 0001:0019c8e0       ?setmaster@game@@YAXPBD0@Z 0059d8e0 f   client1.obj
 0001:0019c9b0       ?hashpwd@game@@YAXPBD@Z    0059d9b0 f   client1.obj
 0001:0019ca30       ?setteam@game@@YAXPBD0@Z   0059da30 f   client1.obj
 0001:0019ca60       ?run@?$_icmd_isignored@$0BLE@@game@@SAXPAD@Z 0059da60 f   client1.obj
 0001:0019cab0       ?run@?$_icmd_unignore@$0BLD@@game@@SAXPAD@Z 0059dab0 f   client1.obj
 0001:0019cac0       ?run@?$_icmd_ignore@$0BLC@@game@@SAXPAD@Z 0059dac0 f   client1.obj
 0001:0019cad0       ?isignored@game@@YA_NH@Z   0059dad0 f   client1.obj
 0001:0019cb00       ?ignore@game@@YAXH@Z       0059db00 f   client1.obj
 0001:0019cbb0       ?run@?$_icmd_dauthkick@$0BJM@@game@@SAXPBD00@Z 0059dbb0 f   client1.obj
 0001:0019cc10       ?run@?$_icmd_sauthkick@$0BJL@@game@@SAXPBD0@Z 0059dc10 f   client1.obj
 0001:0019cc70       ?run@?$_icmd_authkick@$0BJK@@game@@SAXPBD0@Z 0059dc70 f   client1.obj
 0001:0019ccd0       ?authkick@game@@YAXPBD00@Z 0059dcd0 f   client1.obj
 0001:0019cd20       ?kick@game@@YAXPBD0@Z      0059dd20 f   client1.obj
 0001:0019cd50       ?clearbans@game@@YAXXZ     0059dd50 f   client1.obj
 0001:0019cd60       ?run@?$_icmd_listclients@$0BIB@@game@@SAXPAH0@Z 0059dd60 f   client1.obj
 0001:0019cd80       ?listclients@game@@YAX_N0@Z 0059dd80 f   client1.obj
 0001:0019cff0       ?run@?$_icmd_getclientnum@$0BGL@@game@@SAXPAD@Z 0059dff0 f   client1.obj
 0001:0019d030       ?run@?$_icmd_isscf@$0BFC@@game@@SAXPAH@Z 0059e030 f   client1.obj
 0001:0019d080       ?run@?$_icmd_isai@$0BEN@@game@@SAXPAH0@Z 0059e080 f   client1.obj
 0001:0019d0f0       ?isai@game@@YA_NHH@Z       0059e0f0 f   client1.obj
 0001:0019d140       ?run@?$_icmd_isspectator@$0BEF@@game@@SAXPAH@Z 0059e140 f   client1.obj
 0001:0019d1a0       ?isspectator@game@@YA_NH@Z 0059e1a0 f   client1.obj
 0001:0019d1e0       ?run@?$_icmd_mastermodename@$0BDO@@game@@SAXPAH@Z 0059e1e0 f   client1.obj
 0001:0019d250       ?run@?$_icmd_getmastermode@$0BDN@@game@@SAXXZ 0059e250 f   client1.obj
 0001:0019d270       ?run@?$_icmd_isadmin@$0BDL@@game@@SAXPAH@Z 0059e270 f   client1.obj
 0001:0019d2d0       ?isadmin@game@@YA_NH@Z     0059e2d0 f   client1.obj
 0001:0019d310       ?run@?$_icmd_isauth@$0BDE@@game@@SAXPAH@Z 0059e310 f   client1.obj
 0001:0019d370       ?isauth@game@@YA_NH@Z      0059e370 f   client1.obj
 0001:0019d3b0       ?run@?$_icmd_ismaster@$0BCN@@game@@SAXPAH@Z 0059e3b0 f   client1.obj
 0001:0019d410       ?ismaster@game@@YA_NH@Z    0059e410 f   client1.obj
 0001:0019d450       ?run@?$_icmd_getclienticon@$0BCG@@game@@SAXPAH@Z 0059e450 f   client1.obj
 0001:0019d4b0       ?getclienticon@game@@YAPBDH@Z 0059e4b0 f   client1.obj
 0001:0019d570       ?run@?$_icmd_getclientmodel@$0BBN@@game@@SAXPAH@Z 0059e570 f   client1.obj
 0001:0019d5d0       ?getclientmodel@game@@YAHH@Z 0059e5d0 f   client1.obj
 0001:0019d600       ?run@?$_icmd_getclientteam@$0BBG@@game@@SAXPAH@Z 0059e600 f   client1.obj
 0001:0019d680       ?getclientteam@game@@YAPBDH@Z 0059e680 f   client1.obj
 0001:0019d6c0       ?run@?$_icmd_getclientname@$0BAP@@game@@SAXPAH@Z 0059e6c0 f   client1.obj
 0001:0019d740       ?getclientname@game@@YAPBDH@Z 0059e740 f   client1.obj
 0001:0019d780       ?saveauthkeys@game@@YAXXZ  0059e780 f   client1.obj
 0001:0019d830       ?genauthkey@game@@YAXPBD@Z 0059e830 f   client1.obj
 0001:0019d930       ?run@?$_icmd_hasauthkey@$0MO@@game@@SAXPAD0@Z 0059e930 f   client1.obj
 0001:0019d960       ?hasauthkey@game@@YA_NPBD0@Z 0059e960 f   client1.obj
 0001:0019da10       ?run@?$_icmd_authkey@$0MF@@game@@SAXPAD00@Z 0059ea10 f   client1.obj
 0001:0019da30       ?addauthkey@game@@YAXPBD00@Z 0059ea30 f   client1.obj
 0001:0019dba0       ?findauthkey@game@@YAPAUauthkey@1@PBD@Z 0059eba0 f   client1.obj
 0001:0019dc80       ?run@?$_icmd_getteam@$0JL@@game@@SAXXZ 0059ec80 f   client1.obj
 0001:0019dce0       ?run@?$_icmd_team@$0JK@@game@@SAXPADPAH@Z 0059ece0 f   client1.obj
 0001:0019dd60       ?printteam@game@@YAXXZ     0059ed60 f   client1.obj
 0001:0019dd80       ?switchteam@game@@YAXPBD@Z 0059ed80 f   client1.obj
 0001:0019ddc0       ?run@?$_icmd_getname@$0IK@@game@@SAXXZ 0059edc0 f   client1.obj
 0001:0019de20       ?run@?$_icmd_name@$0IJ@@game@@SAXPADPAH@Z 0059ee20 f   client1.obj
 0001:0019de80       ?printname@game@@YAXXZ     0059ee80 f   client1.obj
 0001:0019deb0       ?switchname@game@@YAXPBD@Z 0059eeb0 f   client1.obj
 0001:0019df20       ?run@?$_icmd_dropflag@$0ELK@@game@@SAXXZ 0059ef20 f   client1.obj
 0001:0019df30       ?run@?$_icmd_insidebases@$0DAJ@@game@@SAXXZ 0059ef30 f   client1.obj
 0001:0019e180       ?run@?$_icmd_repammo@$0CPJ@@game@@SAXXZ 0059f180 f   client1.obj
 0001:0019e190       ?drawteammates@game@@YAXPAUfpsent@@MMM@Z 0059f190 f   client1.obj
 0001:0019e4b0       ?drawteammate@game@@YAXPAUfpsent@@MMM0M@Z 0059f4b0 f   client1.obj
 0001:0019e790       ?drawradar@game@@YAXMMM@Z  0059f790 f   client1.obj
 0001:0019e8a0       ?drawminimap@game@@YAXPAUfpsent@@MMM@Z 0059f8a0 f   client1.obj
 0001:0019eb10       ?calcradarscale@game@@YAMXZ 0059fb10 f   client1.obj
 0001:0019eb60       ?parseplayer@game@@YAHPBD@Z 0059fb60 f   client1.obj
 0001:0019ec60       ?c2sinfo@game@@YAX_N@Z     0059fc60 f   client1.obj
 0001:0019ecb0       ?changemap@game@@YAXPBDH@Z 0059fcb0 f   client1.obj
 0001:0019ed00       ?unignore@game@@YAXH@Z     0059fd00 f   client1.obj
 0001:0019ed80       ?setclientmode@game@@YAXXZ 0059fd80 f   client1.obj
 0001:0019ede0       ?switchplayermodel@game@@YAXH@Z 0059fde0 f   client1.obj
 0001:0019ee10       ?sendmapinfo@game@@YAXXZ   0059fe10 f   client1.obj
 0001:0019ee50       ?sendposition@game@@YAXPAUfpsent@@_N@Z 0059fe50 f   client1.obj
 0001:0019ef70       ?addmsg@game@@YAXHPBDZZ    0059ff70 f   client1.obj
 0001:0019f310       ?changemap@game@@YAXPBD@Z  005a0310 f   client1.obj
 0001:0019f370       ?toserver@game@@YAXPAD@Z   005a0370 f   client1.obj
 0001:0019f3c0       ?vartrigger@game@@YAXPAUident@@@Z 005a03c0 f   client1.obj
 0001:0019f460       ?writeclientinfo@game@@YAXPAUstream@@@Z 005a0460 f   client1.obj
 0001:0019f490       ?allowmouselook@game@@YA_NXZ 005a0490 f   client1.obj
 0001:0019f4d0       ?ispaused@game@@YA_NXZ     005a04d0 f   client1.obj
 0001:0019f4e0       ?connectfail@game@@YAXXZ   005a04e0 f   client1.obj
 0001:0019f500       ?connectattempt@game@@YAXPBD0ABU_ENetAddress@@@Z 005a0500 f   client1.obj
 0001:0019f540       ?gamedisconnect@game@@YAX_N@Z 005a0540 f   client1.obj
 0001:0019f650       ?parsepacketclient@game@@YAXHAAUpacketbuf@@@Z 005a0650 f   client1.obj
 0001:0019f690       ?gameconnect@game@@YAX_N@Z 005a0690 f   client1.obj
 0001:0019f6a0       ?newmap@game@@YAXH@Z       005a06a0 f   client1.obj
 0001:0019f6c0       ?scaletime@game@@YAHH@Z    005a06c0 f   client1.obj
 0001:0019f6d0       ?allowedittoggle@game@@YA_NXZ 005a06d0 f   client1.obj
 0001:0019f750       ?edittoggled@game@@YAX_N@Z 005a0750 f   client1.obj
 0001:0019f7e0       ?edittrigger@game@@YAXABUselinfo@@HHHH@Z 005a07e0 f   client1.obj
 0001:0019f9b0       ?forceedit@game@@YAXPBD@Z  005a09b0 f   client1.obj
 0001:0019ff70       ?changeteam@aiman@server@@YAXPAUclientinfo@2@@Z 005a0f70 f   server1.obj
 0001:0019ff90       ?addclient@aiman@server@@YAXPAUclientinfo@2@@Z 005a0f90 f   server1.obj
 0001:0019ffb0       ?changemap@aiman@server@@YAXXZ 005a0fb0 f   server1.obj
 0001:001a0040       ?setbotbalance@aiman@server@@YAXPAUclientinfo@2@_N@Z 005a1040 f   server1.obj
 0001:001a00c0       ?setbotlimit@aiman@server@@YAXPAUclientinfo@2@H@Z 005a10c0 f   server1.obj
 0001:001a0130       ?reqdel@aiman@server@@YAXPAUclientinfo@2@@Z 005a1130 f   server1.obj
 0001:001a0170       ?reqadd@aiman@server@@YAXPAUclientinfo@2@H@Z 005a1170 f   server1.obj
 0001:001a01d0       ?checkai@aiman@server@@YAXXZ 005a11d0 f   server1.obj
 0001:001a0250       ?clearai@aiman@server@@YAXXZ 005a1250 f   server1.obj
 0001:001a0390       ?checksetup@aiman@server@@YAXXZ 005a1390 f   server1.obj
 0001:001a03e0       ?reassignai@aiman@server@@YA_NXZ 005a13e0 f   server1.obj
 0001:001a04b0       ?removeai@aiman@server@@YAXPAUclientinfo@2@@Z 005a14b0 f   server1.obj
 0001:001a04e0       ?shiftai@aiman@server@@YAXPAUclientinfo@2@0@Z 005a14e0 f   server1.obj
 0001:001a0590       ?reinitai@aiman@server@@YAXPAUclientinfo@2@@Z 005a1590 f   server1.obj
 0001:001a0620       ?deleteai@aiman@server@@YA_NXZ 005a1620 f   server1.obj
 0001:001a0710       ?deleteai@aiman@server@@YAXPAUclientinfo@2@@Z 005a1710 f   server1.obj
 0001:001a07e0       ?addai@aiman@server@@YA_NHH@Z 005a17e0 f   server1.obj
 0001:001a0ae0       ?findaiclient@aiman@server@@YAPAUclientinfo@2@PAU32@@Z 005a1ae0 f   server1.obj
 0001:001a0ba0       ?chooseteam@aiman@server@@YAPBDXZ 005a1ba0 f   server1.obj
 0001:001a0c30       ?balanceteams@aiman@server@@YAXXZ 005a1c30 f   server1.obj
 0001:001a0ed0       ?calcteams@aiman@server@@YAXAAU?$vector@Uteamscore@@@@@Z 005a1ed0 f   server1.obj
 0001:001a1030       ?extserverinforeply@server@@YAXAAU?$databuf@E@@0@Z 005a2030 f   server1.obj
 0001:001a11c0       ?extinfoteams@server@@YAXAAU?$databuf@E@@@Z 005a21c0 f   server1.obj
 0001:001a1400       ?extinfoplayer@server@@YAXAAU?$databuf@E@@PAUclientinfo@1@@Z 005a2400 f   server1.obj
 0001:001a15c0       ?run@?$_icmd_onswitchname@$0PIA@@server@@SAXPBD@Z 005a25c0 f   server1.obj
 0001:001a1630       ?run@?$_icmd_flush_onswitchname@$0PHK@@server@@SAXXZ 005a2630 f   server1.obj
 0001:001a16b0       ?run@?$_icmd_rename@$0PHA@@server@@SAXPAHPBD@Z 005a26b0 f   server1.obj
 0001:001a18b0       ?run@?$_icmd_listclients@$0PFO@@server@@SAXPAH@Z 005a28b0 f   server1.obj
 0001:001a18c0       ?listclients@server@@YAX_N@Z 005a28c0 f   server1.obj
 0001:001a1aa0       ?run@?$_icmd_sendpubliccommand@$0PEP@@server@@SAXPBD@Z 005a2aa0 f   server1.obj
 0001:001a1b00       ?run@?$_icmd_sendcommand@$0PEI@@server@@SAXPAHPBD@Z 005a2b00 f   server1.obj
 0001:001a1b40       ?run@?$_icmd_sendneededfiles@$0PEC@@server@@SAXXZ 005a2b40 f   server1.obj
 0001:001a1c10       ?run@?$_icmd_sendfile@$0PDH@@server@@SAXPAHPADPBD00@Z 005a2c10 f   server1.obj
 0001:001a1d90       ?run@?$_icmd_getclientreturned@$0PCA@@server@@SAXPAH@Z 005a2d90 f   server1.obj
 0001:001a1e10       ?run@?$_icmd_getclientstolen@$0PBL@@server@@SAXPAH@Z 005a2e10 f   server1.obj
 0001:001a1e90       ?run@?$_icmd_getclientscored@$0PBG@@server@@SAXPAH@Z 005a2e90 f   server1.obj
 0001:001a1f10       ?run@?$_icmd_getclienttk@$0PBB@@server@@SAXPAH@Z 005a2f10 f   server1.obj
 0001:001a1f90       ?run@?$_icmd_getclientacc@$0PAM@@server@@SAXPAH@Z 005a2f90 f   server1.obj
 0001:001a2010       ?run@?$_icmd_getclientkpd@$0PAH@@server@@SAXPAH@Z 005a3010 f   server1.obj
 0001:001a20a0       ?run@?$_icmd_getactualfrags@$0PAC@@server@@SAXPAH@Z 005a30a0 f   server1.obj
 0001:001a2110       ?run@?$_icmd_getclientsuicides@$0OPN@@server@@SAXPAH@Z 005a3110 f   server1.obj
 0001:001a2170       ?run@?$_icmd_getclientdeaths@$0OPI@@server@@SAXPAH@Z 005a3170 f   server1.obj
 0001:001a21d0       ?run@?$_icmd_getclientfrags@$0OPD@@server@@SAXPAH@Z 005a31d0 f   server1.obj
 0001:001a2230       ?connected@server@@YAXPAUclientinfo@1@@Z 005a3230 f   server1.obj
 0001:001a24b0       ?run@?$_icmd_getclienthostname@$0OMF@@server@@SAXPAH@Z 005a34b0 f   server1.obj
 0001:001a24f0       ?scfAnswerModelAuth@server@@YA_NHPAUclientinfo@1@@Z 005a34f0 f   server1.obj
 0001:001a2570       ?run@?$_icmd_onconnect@$0OHH@@server@@SAXPBD@Z 005a3570 f   server1.obj
 0001:001a25e0       ?run@?$_icmd_flush_onconnect@$0OHB@@server@@SAXXZ 005a35e0 f   server1.obj
 0001:001a2660       ?run@?$_icmd_iswindows@$0OEL@@server@@SAXXZ 005a3660 f   server1.obj
 0001:001a2680       ?run@?$_icmd_DISC_NUM@$0ODP@@server@@SAXXZ 005a3680 f   server1.obj
 0001:001a26a0       ?run@?$_icmd_DISC_PASSWORD@$0ODO@@server@@SAXXZ 005a36a0 f   server1.obj
 0001:001a26c0       ?run@?$_icmd_DISC_OVERFLOW@$0ODN@@server@@SAXXZ 005a36c0 f   server1.obj
 0001:001a26e0       ?run@?$_icmd_DISC_TIMEOUT@$0ODM@@server@@SAXXZ 005a36e0 f   server1.obj
 0001:001a2700       ?run@?$_icmd_DISC_MAXCLIENTS@$0ODL@@server@@SAXXZ 005a3700 f   server1.obj
 0001:001a2720       ?run@?$_icmd_DISC_PRIVATE@$0ODK@@server@@SAXXZ 005a3720 f   server1.obj
 0001:001a2740       ?run@?$_icmd_DISC_IPBAN@$0ODJ@@server@@SAXXZ 005a3740 f   server1.obj
 0001:001a2760       ?run@?$_icmd_DISC_MSGERR@$0ODI@@server@@SAXXZ 005a3760 f   server1.obj
 0001:001a2780       ?run@?$_icmd_DISC_KICK@$0ODH@@server@@SAXXZ 005a3780 f   server1.obj
 0001:001a27a0       ?run@?$_icmd_DISC_LOCAL@$0ODG@@server@@SAXXZ 005a37a0 f   server1.obj
 0001:001a27c0       ?run@?$_icmd_DISC_EOP@$0ODF@@server@@SAXXZ 005a37c0 f   server1.obj
 0001:001a27e0       ?run@?$_icmd_DISC_NONE@$0ODE@@server@@SAXXZ 005a37e0 f   server1.obj
 0001:001a2800       ?run@?$_icmd_getmode@$0ODD@@server@@SAXXZ 005a3800 f   server1.obj
 0001:001a2820       ?run@?$_icmds_@$0ODC@@server@@SAXPAH@Z 005a3820 f   server1.obj
 0001:001a2860       ?run@?$_icmds_@$0ODB@@server@@SAXPAH@Z 005a3860 f   server1.obj
 0001:001a28a0       ?run@?$_icmds_@$0ODA@@server@@SAXPAH@Z 005a38a0 f   server1.obj
 0001:001a28e0       ?run@?$_icmds_@$0OCP@@server@@SAXPAH@Z 005a38e0 f   server1.obj
 0001:001a2920       ?run@?$_icmds_@$0OCO@@server@@SAXPAH@Z 005a3920 f   server1.obj
 0001:001a2960       ?run@?$_icmds_@$0OCN@@server@@SAXPAH@Z 005a3960 f   server1.obj
 0001:001a29a0       ?run@?$_icmds_@$0OCM@@server@@SAXPAH@Z 005a39a0 f   server1.obj
 0001:001a29e0       ?run@?$_icmds_@$0OCL@@server@@SAXPAH@Z 005a39e0 f   server1.obj
 0001:001a2a20       ?run@?$_icmds_@$0OCK@@server@@SAXPAH@Z 005a3a20 f   server1.obj
 0001:001a2a70       ?run@?$_icmds_@$0OCJ@@server@@SAXPAH@Z 005a3a70 f   server1.obj
 0001:001a2ac0       ?run@?$_icmds_@$0OCI@@server@@SAXPAH@Z 005a3ac0 f   server1.obj
 0001:001a2b00       ?run@?$_icmds_@$0OCH@@server@@SAXPAH@Z 005a3b00 f   server1.obj
 0001:001a2b50       ?run@?$_icmds_@$0OCG@@server@@SAXPAH@Z 005a3b50 f   server1.obj
 0001:001a2b90       ?run@?$_icmds_@$0OCF@@server@@SAXPAH@Z 005a3b90 f   server1.obj
 0001:001a2bd0       ?run@?$_icmds_@$0OCE@@server@@SAXPAH@Z 005a3bd0 f   server1.obj
 0001:001a2c10       ?run@?$_icmds_@$0OCD@@server@@SAXPAH@Z 005a3c10 f   server1.obj
 0001:001a2c50       ?run@?$_icmds_@$0OCC@@server@@SAXPAH@Z 005a3c50 f   server1.obj
 0001:001a2c90       ?run@?$_icmds_@$0OCB@@server@@SAXPAH@Z 005a3c90 f   server1.obj
 0001:001a2cd0       ?run@?$_icmd_PRIV_OWNER@$0OCA@@server@@SAXXZ 005a3cd0 f   server1.obj
 0001:001a2cf0       ?run@?$_icmd_PRIV_ADMIN@$0OBP@@server@@SAXXZ 005a3cf0 f   server1.obj
 0001:001a2d10       ?run@?$_icmd_PRIV_AUTH@$0OBO@@server@@SAXXZ 005a3d10 f   server1.obj
 0001:001a2d30       ?run@?$_icmd_PRIV_MASTER@$0OBN@@server@@SAXXZ 005a3d30 f   server1.obj
 0001:001a2d50       ?run@?$_icmd_PRIV_NONE@$0OBM@@server@@SAXXZ 005a3d50 f   server1.obj
 0001:001a2d70       ?run@?$_icmd_strstr@$0OBL@@server@@SAXPAD0@Z 005a3d70 f   server1.obj
 0001:001a2db0       ?run@?$_icmd_givearmour@$0OBK@@server@@SAXPAH0@Z 005a3db0 f   server1.obj
 0001:001a2e80       ?run@?$_icmd_givehelmet@$0OAO@@server@@SAXPAH@Z 005a3e80 f   server1.obj
 0001:001a2fc0       ?run@?$_icmd_givekevlar@$0OAA@@server@@SAXPAH@Z 005a3fc0 f   server1.obj
 0001:001a3100       ?run@?$_icmd_clienthasscf@$0NPC@@server@@SAXPAH@Z 005a4100 f   server1.obj
 0001:001a3170       ?run@?$_icmd_givequadsecs@$0NOM@@server@@SAXPAH0@Z 005a4170 f   server1.obj
 0001:001a3210       ?run@?$_icmd_givehpboost@$0NOA@@server@@SAXPAH0@Z 005a4210 f   server1.obj
 0001:001a32a0       ?run@?$_icmd_givehp@$0NNE@@server@@SAXPAH0@Z 005a42a0 f   server1.obj
 0001:001a3330       ?run@?$_icmd_giveammo@$0NMI@@server@@SAXPAH00@Z 005a4330 f   server1.obj
 0001:001a33d0       ?run@?$_icmd_setmoney@$0NLM@@server@@SAXPAHPAM@Z 005a43d0 f   server1.obj
 0001:001a3480       ?run@?$_icmd_givemoney@$0NLB@@server@@SAXPAHPAM@Z 005a4480 f   server1.obj
 0001:001a3540       ?run@?$_icmd_getmoney@$0NKG@@server@@SAXPAH@Z 005a4540 f   server1.obj
 0001:001a35b0       ?run@?$_icmd_getauthdesc@$0NKA@@server@@SAXPAH@Z 005a45b0 f   server1.obj
 0001:001a3610       ?run@?$_icmd_getauthname@$0NJK@@server@@SAXPAH@Z 005a4610 f   server1.obj
 0001:001a3670       ?run@?$_icmd_setclientpriv@$0NJE@@server@@SAXPAH0@Z 005a4670 f   server1.obj
 0001:001a3890       ?run@?$_icmd_getclientpriv@$0NHL@@server@@SAXPAH@Z 005a4890 f   server1.obj
 0001:001a3910       ?run@?$_icmd_getownernum@$0NHC@@server@@SAXPAH@Z 005a4910 f   server1.obj
 0001:001a3990       ?run@?$_icmd_getclientteam@$0NGJ@@server@@SAXPAH@Z 005a4990 f   server1.obj
 0001:001a3a20       ?run@?$_icmd_getclientname@$0NGA@@server@@SAXPAH@Z 005a4a20 f   server1.obj
 0001:001a3ab0       ?run@?$_icmd_isbot@$0NFH@@server@@SAXPAH@Z 005a4ab0 f   server1.obj
 0001:001a3b40       ?run@?$_icmd_isvalidcn@$0NEN@@server@@SAXPAH@Z 005a4b40 f   server1.obj
 0001:001a3bc0       ?run@?$_icmd_clientmsg@$0NEE@@server@@SAXPAHPBD@Z 005a4bc0 f   server1.obj
 0001:001a3c30       ?run@?$_icmd_servmsg@$0NDP@@server@@SAXPBD@Z 005a4c30 f   server1.obj
 0001:001a3c50       ?parsecommand@server@@YAXPAUclientinfo@1@PAD@Z 005a4c50 f   server1.obj
 0001:001a3db0       ?runcommand@server@@YAXHPBDPAUservcmd@1@@Z 005a4db0 f   server1.obj
 0001:001a3df0       ?run@?$_icmd_addcommand@$0NBI@@server@@SAXPBD0PAH1@Z 005a4df0 f   server1.obj
 0001:001a3f60       ?sendclipboard@server@@YAXPAUclientinfo@1@@Z 005a4f60 f   server1.obj
 0001:001a4070       ?receivefile@server@@YAXHPAEH@Z 005a5070 f   server1.obj
 0001:001a4150       ?answerchallenge@server@@YA_NPAUclientinfo@1@IPADPBD@Z 005a5150 f   server1.obj
 0001:001a43e0       ?tryauth@server@@YA_NPAUclientinfo@1@PBD1@Z 005a53e0 f   server1.obj
 0001:001a46d0       ?authchallenged@server@@YAXIPBD0@Z 005a56d0 f   server1.obj
 0001:001a4730       ?authsucceeded@server@@YAXI@Z 005a5730 f   server1.obj
 0001:001a4830       ?authfailed@server@@YAXI@Z 005a5830 f   server1.obj
 0001:001a4870       ?authfailed@server@@YAXPAUclientinfo@1@@Z 005a5870 f   server1.obj
 0001:001a48e0       ?findauth@server@@YAPAUclientinfo@1@I@Z 005a58e0 f   server1.obj
 0001:001a4920       ?allowconnect@server@@YAHPAUclientinfo@1@PBD@Z 005a5920 f   server1.obj
 0001:001a4ab0       ?run@?$_icmd_disconnect@$0MDM@@server@@SAXPAH0@Z 005a5ab0 f   server1.obj
 0001:001a4ae0       ?run@?$_icmd_explode_count@$0LOI@@server@@SAXPAD0@Z 005a5ae0 f   server1.obj
 0001:001a4b20       ?run@?$_icmd_explode@$0LOC@@server@@SAXPAD0PAH1@Z 005a5b20 f   server1.obj
 0001:001a4b90       ?explodestr@server@@YAHPADQAPADDH@Z 005a5b90 f   server1.obj
 0001:001a4c20       ?addgban@server@@YAXPBD@Z  005a5c20 f   server1.obj
 0001:001a4d70       ?checkgban@server@@YA_NI@Z 005a5d70 f   server1.obj
 0001:001a4da0       ?cleargbans@server@@YAXXZ  005a5da0 f   server1.obj
 0001:001a4dc0       ?noclients@server@@YAXXZ   005a5dc0 f   server1.obj
 0001:001a4de0       ?sendservinfo@server@@YAXPAUclientinfo@1@@Z 005a5de0 f   server1.obj
 0001:001a4e20       ?unspectate@server@@YAXPAUclientinfo@1@@Z 005a5e20 f   server1.obj
 0001:001a4ee0       ?shouldspectate@server@@YA_NPAUclientinfo@1@@Z 005a5ee0 f   server1.obj
 0001:001a4f10       ?checkmaps@server@@YAXH@Z  005a5f10 f   server1.obj
 0001:001a5370       ?scfsendmap@server@@YAXPAUclientinfo@1@@Z 005a6370 f   server1.obj
 0001:001a53f0       ?forcespectator@server@@YAXPAUclientinfo@1@@Z 005a63f0 f   server1.obj
 0001:001a5490       ?cleartimedevents@server@@YAXPAUclientinfo@1@@Z 005a6490 f   server1.obj
 0001:001a5570       ?processevents@server@@YAXXZ 005a6570 f   server1.obj
 0001:001a5640       ?flushevents@server@@YAXPAUclientinfo@1@H@Z 005a6640 f   server1.obj
 0001:001a56c0       ?clearevent@server@@YAXPAUclientinfo@1@@Z 005a66c0 f   server1.obj
 0001:001a5710       ?flush@timedevent@server@@UAE_NPAUclientinfo@2@H@Z 005a6710 f   server1.obj
 0001:001a5740       ?flush@gameevent@server@@UAE_NPAUclientinfo@2@H@Z 005a6740 f   server1.obj
 0001:001a5750       ?process@pickupevent@server@@UAEXPAUclientinfo@2@@Z 005a6750 f   server1.obj
 0001:001a57b0       ?process@shotevent@server@@UAEXPAUclientinfo@2@@Z 005a67b0 f   server1.obj
 0001:001a5d20       ?process@explodeevent@server@@UAEXPAUclientinfo@2@@Z 005a6d20 f   server1.obj
 0001:001a5f50       ?process@suicideevent@server@@UAEXPAUclientinfo@2@@Z 005a6f50 f   server1.obj
 0001:001a5f60       ?suicide@server@@YAXPAUclientinfo@1@@Z 005a6f60 f   server1.obj
 0001:001a60c0       ?run@?$_icmd_scfent@$0JMP@@server@@SAXPAHPAM11000000@Z 005a70c0 f   server1.obj
 0001:001a6190       ?run@?$_icmd_dodamage@$0JMH@@server@@SAXPAH0@Z 005a7190 f   server1.obj
 0001:001a61f0       ?dodamage@server@@YAXPAUclientinfo@1@0HHABUvec@@@Z 005a71f0 f   server1.obj
 0001:001a66a0       ?run@?$_icmd_onfrag@$0JIM@@server@@SAXPBD@Z 005a76a0 f   server1.obj
 0001:001a6710       ?run@?$_icmd_flush_onfrag@$0JIG@@server@@SAXXZ 005a7710 f   server1.obj
 0001:001a6790       ?startintermission@server@@YAXXZ 005a7790 f   server1.obj
 0001:001a67b0       ?checkintermission@server@@YAXXZ 005a77b0 f   server1.obj
 0001:001a6870       ?run@?$_icmd_onintermission@$0JGO@@server@@SAXPBD@Z 005a7870 f   server1.obj
 0001:001a68e0       ?run@?$_icmd_flush_onintermission@$0JGI@@server@@SAXXZ 005a78e0 f   server1.obj
 0001:001a6960       ?vote@server@@YAXPBDHH@Z   005a7960 f   server1.obj
 0001:001a6bb0       ?checkvotes@server@@YAX_N@Z 005a7bb0 f   server1.obj
 0001:001a6f30       ?rotatemap@server@@YAX_N@Z 005a7f30 f   server1.obj
 0001:001a6fd0       ?changemap@server@@YAXPBDH@Z 005a7fd0 f   server1.obj
 0001:001a7440       ?run@?$_icmd_onchangemap@$0IKP@@server@@SAXPBD@Z 005a8440 f   server1.obj
 0001:001a74b0       ?run@?$_icmd_flush_onchangemap@$0IKJ@@server@@SAXXZ 005a84b0 f   server1.obj
 0001:001a7530       ?loaditems@server@@YAXXZ   005a8530 f   server1.obj
 0001:001a7700       ?sendinitclient@server@@YAXPAUclientinfo@1@@Z 005a8700 f   server1.obj
 0001:001a7800       ?sendresume@server@@YAXPAUclientinfo@1@@Z 005a8800 f   server1.obj
 0001:001a7860       ?restorescore@server@@YA_NPAUclientinfo@1@@Z 005a8860 f   server1.obj
 0001:001a7890       ?welcomepacket@server@@YAHAAUpacketbuf@@PAUclientinfo@1@@Z 005a8890 f   server1.obj
 0001:001a7e60       ?hasmap@server@@YA_NPAUclientinfo@1@@Z 005a8e60 f   server1.obj
 0001:001a7f40       ?welcomeinitclient@server@@YAXAAUpacketbuf@@H@Z 005a8f40 f   server1.obj
 0001:001a80c0       ?putinitclient@server@@YAXPAUclientinfo@1@AAUpacketbuf@@@Z 005a90c0 f   server1.obj
 0001:001a81f0       ?sendwelcome@server@@YAXPAUclientinfo@1@@Z 005a91f0 f   server1.obj
 0001:001a82f0       ?sendspawn@server@@YAXPAUclientinfo@1@@Z 005a92f0 f   server1.obj
 0001:001a8350       ?spawnstate@server@@YAXPAUclientinfo@1@@Z 005a9350 f   server1.obj
 0001:001a8370       ?buildworldstate@server@@YA_NXZ 005a9370 f   server1.obj
 0001:001a8970       ?flushclientposition@server@@YAXAAUclientinfo@1@@Z 005a9970 f   server1.obj
 0001:001a8aa0       ?cleanworldstate@server@@YAXPAU_ENetPacket@@@Z 005a9aa0 f   server1.obj
 0001:001a8b40       ?checktype@server@@YAHHPAUclientinfo@1@@Z 005a9b40 f   server1.obj
 0001:001a8c40       ?savescore@server@@YAXPAUclientinfo@1@@Z 005a9c40 f   server1.obj
 0001:001a8c60       ?findscore@server@@YAPAUsavedscore@1@PAUclientinfo@1@_N@Z 005a9c60 f   server1.obj
 0001:001a8e80       ?trykick@server@@YA_NPAUclientinfo@1@HPBD11H_N@Z 005a9e80 f   server1.obj
 0001:001a90e0       ?run@?$_icmd_onkick@$0GIM@@server@@SAXPBD@Z 005aa0e0 f   server1.obj
 0001:001a9150       ?run@?$_icmd_flush_onkick@$0GIG@@server@@SAXXZ 005aa150 f   server1.obj
 0001:001a91d0       ?setmaster@server@@YA_NPAUclientinfo@1@_NPBD22H11@Z 005aa1d0 f   server1.obj
 0001:001a9660       ?run@?$_icmd_onsetmaster@$0GCO@@server@@SAXPBD@Z 005aa660 f   server1.obj
 0001:001a96d0       ?run@?$_icmd_flush_onsetmaster@$0GCI@@server@@SAXXZ 005aa6d0 f   server1.obj
 0001:001a9750       ?revokemaster@server@@YAXPAUclientinfo@1@@Z 005aa750 f   server1.obj
 0001:001a9780       ?checkpassword@server@@YA_NPAUclientinfo@1@PBD1@Z 005aa780 f   server1.obj
 0001:001a97f0       ?clearusers@server@@YAXXZ  005aa7f0 f   server1.obj
 0001:001a9800       ?adduser@server@@YAXPAD000@Z 005aa800 f   server1.obj
 0001:001a9a90       ?changegamespeed@server@@YAXHPAUclientinfo@1@@Z 005aaa90 f   server1.obj
 0001:001a9ae0       ?checkpausegame@server@@YAXXZ 005aaae0 f   server1.obj
 0001:001a9b60       ?run@?$_icmd_pausegame@$0FLI@@server@@SAXPAH@Z 005aab60 f   server1.obj
 0001:001a9ba0       ?pausegame@server@@YAX_NPAUclientinfo@1@@Z 005aaba0 f   server1.obj
 0001:001a9be0       ?readdemo@server@@YAXXZ    005aabe0 f   server1.obj
 0001:001a9ce0       ?setupdemoplayback@server@@YAXXZ 005aace0 f   server1.obj
 0001:001a9fa0       ?enddemoplayback@server@@YAXXZ 005aafa0 f   server1.obj
 0001:001aa040       ?senddemo@server@@YAXPAUclientinfo@1@H@Z 005ab040 f   server1.obj
 0001:001aa120       ?cleardemos@server@@YAXH@Z 005ab120 f   server1.obj
 0001:001aa1f0       ?listdemos@server@@YAXH@Z  005ab1f0 f   server1.obj
 0001:001aa350       ?setupdemorecord@server@@YAXXZ 005ab350 f   server1.obj
 0001:001aa480       ?writedemo@server@@YAXHPAXH@Z 005ab480 f   server1.obj
 0001:001aa4f0       ?enddemorecord@server@@YAXXZ 005ab4f0 f   server1.obj
 0001:001aa550       ?adddemo@server@@YAXXZ     005ab550 f   server1.obj
 0001:001aa6f0       ?prunedemos@server@@YAXH@Z 005ab6f0 f   server1.obj
 0001:001aa750       ?chooseworstteam@server@@YAPBDPBDPAUclientinfo@1@@Z 005ab750 f   server1.obj
 0001:001aa900       ?autoteam@server@@YAXXZ    005ab900 f   server1.obj
 0001:001aac30       ?choosebestclient@server@@YAPAUclientinfo@1@AAM@Z 005abc30 f   server1.obj
 0001:001aacc0       ?addteaminfo@server@@YAPAUteaminfo@@PBD@Z 005abcc0 f   server1.obj
 0001:001aad50       ?pruneteaminfo@server@@YA_NXZ 005abd50 f   server1.obj
 0001:001aadd0       ?teamhasplayers@server@@YA_NPBD@Z 005abdd0 f   server1.obj
 0001:001aae40       ?clearteaminfo@server@@YAXXZ 005abe40 f   server1.obj
 0001:001aae50       ?pickup@server@@YA_NHH@Z   005abe50 f   server1.obj
 0001:001aaf30       ?spawntime@server@@YAHH@Z  005abf30 f   server1.obj
 0001:001ab030       ?canspawnitem@server@@YA_NH@Z 005ac030 f   server1.obj
 0001:001ab080       ?run@?$_icmd_onscoreflag@$0EBB@@server@@SAXPBD@Z 005ac080 f   server1.obj
 0001:001ab0f0       ?run@?$_icmd_flush_onscoreflag@$0EAL@@server@@SAXXZ 005ac0f0 f   server1.obj
 0001:001ab170       ?colorname@server@@YAPBDPAUclientinfo@1@PAD@Z 005ac170 f   server1.obj
 0001:001ab200       ?duplicatename@server@@YA_NPAUclientinfo@1@PAD@Z 005ac200 f   server1.obj
 0001:001ab270       ?numclients@server@@YAHH_N00@Z 005ac270 f   server1.obj
 0001:001ab2e0       ?run@?$_icmd_halt@$0DMG@@server@@SAXXZ 005ac2e0 f   server1.obj
 0001:001ab2f0       ?run@?$_icmd_onshutdown@$0DKL@@server@@SAXPBD@Z 005ac2f0 f   server1.obj
 0001:001ab360       ?run@?$_icmd_flush_onshutdown@$0DKF@@server@@SAXXZ 005ac360 f   server1.obj
 0001:001ab3e0       ?run@?$_icmd_savevar@$0DJL@@server@@SAXPAD0@Z 005ac3e0 f   server1.obj
 0001:001ab420       ?run@?$_icmd_clearvar@$0DJD@@server@@SAXPAD@Z 005ac420 f   server1.obj
 0001:001ab460       ?serveroption@server@@YA_NPBD@Z 005ac460 f   server1.obj
 0001:001ab500       ?resetitems@server@@YAXXZ  005ac500 f   server1.obj
 0001:001ab520       ?sendservmsgf@server@@YAXPBDZZ 005ac520 f   server1.obj
 0001:001ab570       ?privname@server@@YAPBDH@Z 005ac570 f   server1.obj
 0001:001ab5b0       ?getinfo@server@@YAPAUclientinfo@1@H@Z 005ac5b0 f   server1.obj
 0001:001ab600       ?checkteamkills@server@@YAXXZ 005ac600 f   server1.obj
 0001:001ab6e0       ?addteamkill@server@@YAXPAUclientinfo@1@0H@Z 005ac6e0 f   server1.obj
 0001:001ab770       ?addteamkillkick@server@@YAXPADPAH1@Z 005ac770 f   server1.obj
 0001:001ab880       ?teamkillkickreset@server@@YAXXZ 005ac880 f   server1.obj
 0001:001ab890       ?var_publicserver@server@@YAXXZ 005ac890 f   server1.obj
 0001:001ab8c0       ?addmaprotations@server@@YAXPAUtagval@@H@Z 005ac8c0 f   server1.obj
 0001:001abbf0       ?addmaprotation@server@@YA_NHPBD@Z 005acbf0 f   server1.obj
 0001:001abcc0       ?genmodemask@server@@YAHAAU?$vector@PAD@@@Z 005accc0 f   server1.obj
 0001:001abe20       ?searchmodename@server@@YA_NPBD0@Z 005ace20 f   server1.obj
 0001:001abea0       ?findmaprotation@server@@YAHHPBD@Z 005acea0 f   server1.obj
 0001:001ac0c0       ?nextmaprotation@server@@YAXXZ 005ad0c0 f   server1.obj
 0001:001ac110       ?maprotationreset@server@@YAXXZ 005ad110 f   server1.obj
 0001:001ac130       ?kickclients@server@@YAXIPAUclientinfo@1@H@Z 005ad130 f   server1.obj
 0001:001ac1d0       ?addban@server@@YAXIH@Z    005ad1d0 f   server1.obj
 0001:001ac280       ?sendNoKevlarHelmet@server@@YAXXZ 005ad280 f   server1.obj
 0001:001ac350       ?var_defaultgamemode@server@@YAXXZ 005ad350 f   server1.obj
 0001:001ac380       ?hashpassword@server@@YAXHHPBDPADH@Z 005ad380 f   server1.obj
 0001:001ac420       ?forcemap@server@@YAXPBDH@Z 005ad420 f   server1.obj
 0001:001ac500       ?forcepaused@server@@YAX_N@Z 005ad500 f   server1.obj
 0001:001ac530       ?msgsizelookup@server@@YAHH@Z 005ad530 f   server1.obj
 0001:001ac590       ?stopdemo@server@@YAXXZ    005ad590 f   server1.obj
 0001:001ac5c0       ?forcegamespeed@server@@YAXH@Z 005ad5c0 f   server1.obj
 0001:001ac600       ?modename@server@@YAPBDHPBD@Z 005ad600 f   server1.obj
 0001:001ac620       ?mastermodename@server@@YAPBDHPBD@Z 005ad620 f   server1.obj
 0001:001ac640       ?delayspawn@server@@YA_NH@Z 005ad640 f   server1.obj
 0001:001ac690       ?parseoptions@game@@YAXAAU?$vector@PBD@@@Z 005ad690 f   server1.obj
 0001:001ac760       ?servercompatible@server@@YA_NPAD00HABU?$vector@H@@H@Z 005ad760 f   server1.obj
 0001:001ac770       ?newclientinfo@server@@YAPAXXZ 005ad770 f   server1.obj
 0001:001ac7d0       ?deleteclientinfo@server@@YAXPAX@Z 005ad7d0 f   server1.obj
 0001:001ac7f0       ?recordpacket@server@@YAXHPAXH@Z 005ad7f0 f   server1.obj
 0001:001ac800       ?allowbroadcast@server@@YA_NH@Z 005ad800 f   server1.obj
 0001:001ac860       ?clientdisconnect@server@@YAXH@Z 005ad860 f   server1.obj
 0001:001acad0       ?sendservmsg@server@@YAXPBD@Z 005adad0 f   server1.obj
 0001:001acaf0       ?parsepacket@server@@YAXHHAAUpacketbuf@@@Z 005adaf0 f   server1.obj
 0001:001afb40       ?masterdisconnected@server@@YAXXZ 005b0b40 f   server1.obj
 0001:001afbd0       ?defaultmaster@server@@YAPBDXZ 005b0bd0 f   server1.obj
 0001:001afbe0       ?masterport@server@@YAHXZ  005b0be0 f   server1.obj
 0001:001afbf0       ?processmasterinput@server@@YAXPBDH0@Z 005b0bf0 f   server1.obj
 0001:001afd20       ?serverinforeply@server@@YAXAAU?$databuf@E@@0@Z 005b0d20 f   server1.obj
 0001:001aff10       ?masterconnected@server@@YAXXZ 005b0f10 f   server1.obj
 0001:001aff20       ?serverupdate@server@@YAXXZ 005b0f20 f   server1.obj
 0001:001b02a0       ?sendpackets@server@@YA_N_N@Z 005b12a0 f   server1.obj
 0001:001b0310       ?scaletime@server@@YAHH@Z  005b1310 f   server1.obj
 0001:001b0320       ?ispaused@server@@YA_NXZ   005b1320 f   server1.obj
 0001:001b0330       ?clientconnect@server@@YAHHI@Z 005b1330 f   server1.obj
 0001:001b0440       ?localdisconnect@server@@YAXH@Z 005b1440 f   server1.obj
 0001:001b0470       ?localconnect@server@@YAXH@Z 005b1470 f   server1.obj
 0001:001b0590       ?close@server@@YAXXZ       005b1590 f   server1.obj
 0001:001b0780       ?reserveclients@server@@YAHXZ 005b1780 f   server1.obj
 0001:001b0790       ?serverinfoport@server@@YAHH@Z 005b1790 f   server1.obj
 0001:001b07a0       ?laninfoport@server@@YAHXZ 005b17a0 f   server1.obj
 0001:001b07b0       ?serverinit@server@@YAXXZ  005b17b0 f   server1.obj
 0001:001b07e0       ?serverport@server@@YAHH@Z 005b17e0 f   server1.obj
 0001:001b07f0       ?numchannels@server@@YAHXZ 005b17f0 f   server1.obj
 0001:001b0800       ?gameident@game@@YAPBDXZ   005b1800 f   server1.obj
 0001:001b0810       _fmod                      005b1810 f   LIBCMT:87fmod.obj
 0001:001b081a       __CIfmod                   005b181a f   LIBCMT:87fmod.obj
 0001:001b0902       ?_CallCatchBlock2@@YAPAXPAUEHRegistrationNode@@PBU_s_FuncInfo@@PAXHK@Z 005b1902 f   LIBCMT:_trnsctrl_.obj
 0001:001b0962       ?_CallMemberFunction1@@YGXPAX00@Z 005b1962 f   LIBCMT:_trnsctrl_.obj
 0001:001b0962       ?_CallMemberFunction2@@YGXPAX00H@Z 005b1962 f   LIBCMT:_trnsctrl_.obj
 0001:001b0962       ?_CallMemberFunction0@@YGXPAX0@Z 005b1962 f   LIBCMT:_trnsctrl_.obj
 0001:001b0969       ?_CallSETranslator@@YAHPAUEHExceptionRecord@@PAUEHRegistrationNode@@PAX2PBU_s_FuncInfo@@H1@Z 005b1969 f   LIBCMT:_trnsctrl_.obj
 0001:001b0a40       ?_GetRangeOfTrysToCheck@@YAPBU_s_TryBlockMapEntry@@PBU_s_FuncInfo@@HHPAI1@Z 005b1a40 f   LIBCMT:_trnsctrl_.obj
 0001:001b0abe       ?_JumpToContinuation@@YGXPAXPAUEHRegistrationNode@@@Z 005b1abe f   LIBCMT:_trnsctrl_.obj
 0001:001b0af0       ?_UnwindNestedFrames@@YGXPAUEHRegistrationNode@@PAUEHExceptionRecord@@@Z 005b1af0 f   LIBCMT:_trnsctrl_.obj
 0001:001b0b45       __CreateFrameInfo          005b1b45 f   LIBCMT:_trnsctrl_.obj
 0001:001b0b6f       __FindAndUnlinkFrame       005b1b6f f   LIBCMT:_trnsctrl_.obj
 0001:001b0bbf       __IsExceptionObjectToBeDestroyed 005b1bbf f   LIBCMT:_trnsctrl_.obj
 0001:001b0be8       ___CxxFrameHandler3        005b1be8 f   LIBCMT:_trnsctrl_.obj
 0001:001b0c1e       ___libm_sse2_acosf         005b1c1e f   LIBCMT:acosf_sse2.obj
 0001:001b0ffb       ___libm_sse2_asinf         005b1ffb f   LIBCMT:asinf_sse2.obj
 0001:001b13b8       ___libm_sse2_atanf         005b23b8 f   LIBCMT:atanf_sse2.obj
 0001:001b1558       ___libm_sse2_cos           005b2558 f   LIBCMT:cos_sse2.obj
 0001:001b16f9       ___libm_sse2_cosf          005b26f9 f   LIBCMT:cosf_sse2.obj
 0001:001b1846       ___libm_sse2_expf          005b2846 f   LIBCMT:expf_sse2.obj
 0001:001b199d       ___libm_sse2_log10f        005b299d f   LIBCMT:log10f_sse2.obj
 0001:001b1b16       ___libm_sse2_logf          005b2b16 f   LIBCMT:logf_sse2.obj
 0001:001b1c8f       ___libm_sse2_powf          005b2c8f f   LIBCMT:powf_sse2.obj
 0001:001b2342       ___libm_sse2_sinf          005b3342 f   LIBCMT:sinf_sse2.obj
 0001:001b2487       ___libm_sse2_tanf          005b3487 f   LIBCMT:tanf_sse2.obj
 0001:001b2620       ___vdecl_expf4             005b3620 f   LIBCMT:svml_sexpf4_dispatch.obj
 0001:001b2640       __allshl                   005b3640 f   LIBCMT:llshl.obj
 0001:001b2660       __allshr                   005b3660 f   LIBCMT:llshr.obj
 0001:001b2698       __except_handler3          005b3698 f   LIBCMT:exsup3.obj
 0001:001b2796       __seh_longjmp_unwind@4     005b3796 f   LIBCMT:exsup3.obj
 0001:001b27c0       __ftol2_sse                005b37c0 f   LIBCMT:ftol2.obj
 0001:001b27c9       __ftol2_pentium4           005b37c9 f   LIBCMT:ftol2.obj
 0001:001b27dc       __ftol2_sse_excpt          005b37dc f   LIBCMT:ftol2.obj
 0001:001b27f6       __ftol2                    005b37f6 f   LIBCMT:ftol2.obj
 0001:001b2870       __ftoui3                   005b3870 f   LIBCMT:ftol3.obj
 0001:001b287f       __ftoul3                   005b387f f   LIBCMT:ftol3.obj
 0001:001b288e       __ftol3                    005b388e f   LIBCMT:ftol3.obj
 0001:001b289b       __ftol3_NaN                005b389b f   LIBCMT:ftol3.obj
 0001:001b28b3       __ftol3_work               005b38b3 f   LIBCMT:ftol3.obj
 0001:001b2939       __ftol3_common             005b3939 f   LIBCMT:ftol3.obj
 0001:001b29fb       __ftol3_arg_error          005b39fb f   LIBCMT:ftol3.obj
 0001:001b2a0d       __ftol3_except             005b3a0d f   LIBCMT:ftol3.obj
 0001:001b2a51       __dtoui3                   005b3a51 f   LIBCMT:ftol3.obj
 0001:001b2a60       __dtoul3                   005b3a60 f   LIBCMT:ftol3.obj
 0001:001b2a6f       __dtol3                    005b3a6f f   LIBCMT:ftol3.obj
 0001:001b2a7c       __dtol3_NaN                005b3a7c f   LIBCMT:ftol3.obj
 0001:001b2a99       __dtol3_work               005b3a99 f   LIBCMT:ftol3.obj
 0001:001b2b7e       __ultod3                   005b3b7e f   LIBCMT:ftol3.obj
 0001:001b2c0f       __ltod3                    005b3c0f f   LIBCMT:ftol3.obj
 0001:001b2c40       _ceil                      005b3c40 f   LIBCMT:ceil_pentium4.obj
 0001:001b2c80       __ceil_pentium4            005b3c80 f   LIBCMT:ceil_pentium4.obj
 0001:001b2d60       __cintrindisp2             005b3d60 f   LIBCMT:87cdisp.obj
 0001:001b2d9e       __cintrindisp1             005b3d9e f   LIBCMT:87cdisp.obj
 0001:001b2ddb       __ctrandisp2               005b3ddb f   LIBCMT:87cdisp.obj
 0001:001b2f6a       __ctrandisp1               005b3f6a f   LIBCMT:87cdisp.obj
 0001:001b2f9d       __fload                    005b3f9d f   LIBCMT:87cdisp.obj
 0001:001b2fe0       __trandisp1                005b3fe0 f   LIBCMT:87disp.obj
 0001:001b3047       __trandisp2                005b4047 f   LIBCMT:87disp.obj
 0001:001b30d3       __rttospopde               005b40d3     LIBCMT:87disp.obj
 0001:001b30d8       __rttospop                 005b40d8     LIBCMT:87disp.obj
 0001:001b30da       __rtnospop                 005b40da     LIBCMT:87disp.obj
 0001:001b30dc       __rttosnpop                005b40dc     LIBCMT:87disp.obj
 0001:001b30dd       __rtnospopde               005b40dd     LIBCMT:87disp.obj
 0001:001b30e4       __rtzeropop                005b40e4     LIBCMT:87disp.obj
 0001:001b30e6       __rtzeronpop               005b40e6     LIBCMT:87disp.obj
 0001:001b30eb       __rtonepop                 005b40eb     LIBCMT:87disp.obj
 0001:001b30ed       __rtonenpop                005b40ed     LIBCMT:87disp.obj
 0001:001b30f2       __tosnan1                  005b40f2     LIBCMT:87disp.obj
 0001:001b311d       __nosnan2                  005b411d     LIBCMT:87disp.obj
 0001:001b311f       __tosnan2                  005b411f     LIBCMT:87disp.obj
 0001:001b3147       __nan2                     005b4147     LIBCMT:87disp.obj
 0001:001b3186       __rtindfpop                005b4186     LIBCMT:87disp.obj
 0001:001b3188       __rtindfnpop               005b4188     LIBCMT:87disp.obj
 0001:001b3199       __rttosnpopde              005b4199     LIBCMT:87disp.obj
 0001:001b31a3       __rtchsifneg               005b41a3     LIBCMT:87disp.obj
 0001:001b31b0       __CallSettingFrame@12      005b41b0 f   LIBCMT:lowhelpr.obj
 0001:001b31d7       __NLG_Return               005b41d7     LIBCMT:lowhelpr.obj
 0001:001b31fc       ___DestructExceptionObject 005b41fc f   LIBCMT:frame.obj
 0001:001b3287       ??0bad_exception@std@@QAE@ABV01@@Z 005b4287 f i LIBCMT:frame.obj
 0001:001b32a2       ??1bad_exception@std@@UAE@XZ 005b42a2 f i LIBCMT:frame.obj
 0001:001b32ad       ??_Gbad_exception@std@@UAEPAXI@Z 005b42ad f i LIBCMT:frame.obj
 0001:001b32ad       ??_Ebad_exception@std@@UAEPAXI@Z 005b42ad f i LIBCMT:frame.obj
 0001:001b3ae1       ___AdjustPointer           005b4ae1 f   LIBCMT:frame.obj
 0001:001b3b06       ___BuildCatchObject        005b4b06 f   LIBCMT:frame.obj
 0001:001b3b94       ___BuildCatchObjectHelper  005b4b94 f   LIBCMT:frame.obj
 0001:001b3d56       ___FrameUnwindFilter       005b4d56 f   LIBCMT:frame.obj
 0001:001b3da4       ___FrameUnwindToState      005b4da4 f   LIBCMT:frame.obj
 0001:001b3e7d       ___InternalCxxFrameHandler 005b4e7d f   LIBCMT:frame.obj
 0001:001b3f5e       ___TypeMatch               005b4f5e f   LIBCMT:frame.obj
 0001:001b3fd0       _cos                       005b4fd0 f   LIBCMT:cos.obj
 0001:001b4010       __CIcos                    005b5010 f   LIBCMT:cos.obj
 0001:001b404b       __CIcos_default            005b504b f   LIBCMT:cos.obj
 0001:001b405f       __cos_default              005b505f     LIBCMT:cos.obj
 0001:001b4100       _sin                       005b5100 f   LIBCMT:sin.obj
 0001:001b4140       __CIsin                    005b5140 f   LIBCMT:sin.obj
 0001:001b417b       __CIsin_default            005b517b f   LIBCMT:sin.obj
 0001:001b418f       __sin_default              005b518f     LIBCMT:sin.obj
 0001:001b4230       _tan                       005b5230 f   LIBCMT:tan.obj
 0001:001b4270       __CItan                    005b5270 f   LIBCMT:tan.obj
 0001:001b42ab       __CItan_default            005b52ab f   LIBCMT:tan.obj
 0001:001b42bf       __tan_default              005b52bf     LIBCMT:tan.obj
 0001:001b4360       ___sse2_expf4              005b5360 f   LIBCMT:svml_sexpf4_sse2.obj
 0001:001b4580       ___sse4_expf4              005b5580 f   LIBCMT:svml_sexpf4_sse4.obj
 0001:001b4840       _CallDestructExceptionObject 005b5840 f   LIBCMT:calldtor.obj
 0001:001b4940       __ValidateEH3RN            005b5940 f   LIBCMT:eh3valid.obj
 0001:001b4ca2       __errcode                  005b5ca2 f   LIBCMT:fpexcept.obj
 0001:001b4cd4       __except1                  005b5cd4 f   LIBCMT:fpexcept.obj
 0001:001b4d9c       __handle_exc               005b5d9c f   LIBCMT:fpexcept.obj
 0001:001b4f7a       __handle_qnan1             005b5f7a f   LIBCMT:fpexcept.obj
 0001:001b4fca       __raise_exc                005b5fca f   LIBCMT:fpexcept.obj
 0001:001b4feb       __raise_exc_ex             005b5feb f   LIBCMT:fpexcept.obj
 0001:001b52d0       __set_errno_from_matherr   005b62d0 f   LIBCMT:fpexcept.obj
 0001:001b52fd       __umatherr                 005b62fd f   LIBCMT:fpexcept.obj
 0001:001b539d       ___libm_error_support      005b639d f   LIBCMT:libm_error.obj
 0001:001b5685       __sse2_mathfcns_init       005b6685 f   LIBCMT:mathfcns.obj
 0001:001b5694       __ceil_default             005b6694 f   LIBCMT:ceil.obj
 0001:001b576b       __87except                 005b676b f   LIBCMT:87except.obj
 0001:001b5874       ?_ValidateExecute@@YAHP6GHXZ@Z 005b6874 f   LIBCMT:validate.obj
 0001:001b5874       ?_ValidateRead@@YAHPBXI@Z  005b6874 f   LIBCMT:validate.obj
 0001:001b5874       ?_ValidateWrite@@YAHPAXI@Z 005b6874 f   LIBCMT:validate.obj
 0001:001b5883       ??0exception@std@@QAE@ABQBD@Z 005b6883 f   LIBCMT:stdexcpt.obj
 0001:001b58a8       ??0exception@std@@QAE@ABV01@@Z 005b68a8 f   LIBCMT:stdexcpt.obj
 0001:001b58cb       ??1exception@std@@UAE@XZ   005b68cb f   LIBCMT:stdexcpt.obj
 0001:001b58d6       ??4exception@std@@QAEAAV01@ABV01@@Z 005b68d6 f   LIBCMT:stdexcpt.obj
 0001:001b5909       ??_Eexception@std@@UAEPAXI@Z 005b6909 f i LIBCMT:stdexcpt.obj
 0001:001b5909       ??_Gexception@std@@UAEPAXI@Z 005b6909 f i LIBCMT:stdexcpt.obj
 0001:001b592e       ?_Copy_str@exception@std@@AAEXPBD@Z 005b692e f   LIBCMT:stdexcpt.obj
 0001:001b596c       ?_Tidy@exception@std@@AAEXXZ 005b696c f   LIBCMT:stdexcpt.obj
 0001:001b5988       ?what@exception@std@@UBEPBDXZ 005b6988 f   LIBCMT:stdexcpt.obj
 0001:001b5995       __CxxThrowException@8      005b6995 f   LIBCMT:throw.obj
 0001:001b59f8       __EH_prolog3_catch         005b69f8 f   LIBCMT:ehprolg3.obj
 0001:001b5a30       __CIcos_pentium4           005b6a30 f   LIBCMT:cos_pentium4.obj
 0001:001b5a48       __cos_pentium4             005b6a48     LIBCMT:cos_pentium4.obj
 0001:001b5be0       __twoToTOS                 005b6be0 f   LIBCMT:common.obj
 0001:001b5bf5       __load_CW                  005b6bf5 f   LIBCMT:common.obj
 0001:001b5c0c       __convertTOStoQNaN         005b6c0c f   LIBCMT:common.obj
 0001:001b5c25       __fload_withFB             005b6c25 f   LIBCMT:common.obj
 0001:001b5c68       __checkTOS_withFB          005b6c68 f   LIBCMT:common.obj
 0001:001b5c7e       __fast_exit                005b6c7e f   LIBCMT:common.obj
 0001:001b5c8b       __math_exit                005b6c8b f   LIBCMT:common.obj
 0001:001b5cb5       __check_overflow_exit      005b6cb5 f   LIBCMT:common.obj
 0001:001b5cc9       __check_range_exit         005b6cc9 f   LIBCMT:common.obj
 0001:001b5d70       __startTwoArgErrorHandling 005b6d70 f   LIBCMT:genexcep.obj
 0001:001b5d87       __startOneArgErrorHandling 005b6d87 f   LIBCMT:genexcep.obj
 0001:001b5dd0       __CIsin_pentium4           005b6dd0 f   LIBCMT:sin_pentium4.obj
 0001:001b5de8       __sin_pentium4             005b6de8     LIBCMT:sin_pentium4.obj
 0001:001b5fa0       __CItan_pentium4           005b6fa0 f   LIBCMT:tan_pentium4.obj
 0001:001b5fb8       __tan_pentium4             005b6fb8     LIBCMT:tan_pentium4.obj
 0001:001b6200       __decomp                   005b7200 f   LIBCMT:util.obj
 0001:001b62d2       __set_exp                  005b72d2 f   LIBCMT:util.obj
 0001:001b6301       __sptype                   005b7301 f   LIBCMT:util.obj
 0001:001b635c       __frnd                     005b735c f   LIBCMT:frnd.obj
 0001:001babe0       ??__Fmeshgroups@?1??sharemeshes@animmodel@@QAAPAUmeshgroup@1@PBDZZ@YAXXZ 005bbbe0 f i rendermodel.obj
 0001:001bac10       ??__Fskeletons@?4??shareskeleton@skelmeshgroup@skelmodel@@QAEXPAD@Z@YAXXZ 005bbc10 f i rendermodel.obj
 0001:001bbda0       ??__Ftargets@?O@??aidefend@captureclientmode@game@@UAE_NPAUfpsent@@AAUaistate@ai@@@Z@YAXXZ 005bcda0 f i client1.obj
 0001:001bbdc0       ??__Ftargets@?5??aifind@captureclientmode@game@@UAEXPAUfpsent@@AAUaistate@ai@@AAU?$vector@Uinterest@ai@@@@@Z@YAXXZ 005bcdc0 f i client1.obj
 0001:001bbde0       ??__Ftargets@?BA@??aidefend@ctfclientmode@game@@UAE_NPAUfpsent@@AAUaistate@ai@@@Z@YAXXZ 005bcde0 f i client1.obj
 0001:001bbe00       ??__Ftargets@?6??aifind@ctfclientmode@game@@UAEXPAUfpsent@@AAUaistate@ai@@AAU?$vector@Uinterest@ai@@@@@Z@YAXXZ 005bce00 f i client1.obj
 0001:001bbe20       ??__Ftakenflags@?1??aicheck@ctfclientmode@game@@UAE_NPAUfpsent@@AAUaistate@ai@@@Z@YAXXZ 005bce20 f i client1.obj
 0001:001bbe40       ??__Finterests@?4??aihomerun@ctfclientmode@game@@QAE_NPAUfpsent@@AAUaistate@ai@@@Z@YAXXZ 005bce40 f i client1.obj
 0002:00000000       __imp__RaiseException@16   005be000     kernel32:KERNEL32.dll
 0002:00000004       __imp__VirtualQuery@12     005be004     kernel32:KERNEL32.dll
 0002:00000008       __imp__SetEnvironmentVariableA@8 005be008     kernel32:KERNEL32.dll
 0002:0000000c       __imp__SetEndOfFile@4      005be00c     kernel32:KERNEL32.dll
 0002:00000010       __imp__CreateFileW@28      005be010     kernel32:KERNEL32.dll
 0002:00000014       __imp__OutputDebugStringW@4 005be014     kernel32:KERNEL32.dll
 0002:00000018       __imp__GetStringTypeW@16   005be018     kernel32:KERNEL32.dll
 0002:0000001c       __imp__WriteConsoleW@20    005be01c     kernel32:KERNEL32.dll
 0002:00000020       __imp__SetStdHandle@8      005be020     kernel32:KERNEL32.dll
 0002:00000024       __imp__LCMapStringW@24     005be024     kernel32:KERNEL32.dll
 0002:00000028       __imp__GetModuleFileNameA@12 005be028     kernel32:KERNEL32.dll
 0002:0000002c       __imp__GetProcessHeap@0    005be02c     kernel32:KERNEL32.dll
 0002:00000030       __imp__FlushFileBuffers@4  005be030     kernel32:KERNEL32.dll
 0002:00000034       __imp__ReadConsoleW@20     005be034     kernel32:KERNEL32.dll
 0002:00000038       __imp__SetFilePointerEx@20 005be038     kernel32:KERNEL32.dll
 0002:0000003c       __imp__GetFileType@4       005be03c     kernel32:KERNEL32.dll
 0002:00000040       __imp__GetTimeZoneInformation@4 005be040     kernel32:KERNEL32.dll
 0002:00000044       __imp__LoadLibraryExW@12   005be044     kernel32:KERNEL32.dll
 0002:00000048       __imp__GetModuleFileNameW@12 005be048     kernel32:KERNEL32.dll
 0002:0000004c       __imp__DeleteCriticalSection@4 005be04c     kernel32:KERNEL32.dll
 0002:00000050       __imp__GetCurrentThreadId@0 005be050     kernel32:KERNEL32.dll
 0002:00000054       __imp__GetCPInfo@8         005be054     kernel32:KERNEL32.dll
 0002:00000058       __imp__GetOEMCP@0          005be058     kernel32:KERNEL32.dll
 0002:0000005c       __imp__GetACP@0            005be05c     kernel32:KERNEL32.dll
 0002:00000060       __imp__IsValidCodePage@4   005be060     kernel32:KERNEL32.dll
 0002:00000064       __imp__GetConsoleMode@8    005be064     kernel32:KERNEL32.dll
 0002:00000068       __imp__GetConsoleCP@0      005be068     kernel32:KERNEL32.dll
 0002:0000006c       __imp__WriteFile@20        005be06c     kernel32:KERNEL32.dll
 0002:00000070       __imp__RtlUnwind@16        005be070     kernel32:KERNEL32.dll
 0002:00000074       __imp__GetModuleHandleW@4  005be074     kernel32:KERNEL32.dll
 0002:00000078       __imp__GetStartupInfoW@4   005be078     kernel32:KERNEL32.dll
 0002:0000007c       __imp__TlsFree@4           005be07c     kernel32:KERNEL32.dll
 0002:00000080       __imp__TlsSetValue@8       005be080     kernel32:KERNEL32.dll
 0002:00000084       __imp__TlsGetValue@4       005be084     kernel32:KERNEL32.dll
 0002:00000088       __imp__TlsAlloc@0          005be088     kernel32:KERNEL32.dll
 0002:0000008c       __imp__TerminateProcess@8  005be08c     kernel32:KERNEL32.dll
 0002:00000090       __imp__Sleep@4             005be090     kernel32:KERNEL32.dll
 0002:00000094       __imp__InitializeCriticalSectionAndSpinCount@8 005be094     kernel32:KERNEL32.dll
 0002:00000098       __imp__SetLastError@4      005be098     kernel32:KERNEL32.dll
 0002:0000009c       __imp__SetUnhandledExceptionFilter@4 005be09c     kernel32:KERNEL32.dll
 0002:000000a0       __imp__UnhandledExceptionFilter@4 005be0a0     kernel32:KERNEL32.dll
 0002:000000a4       __imp__MoveFileExW@12      005be0a4     kernel32:KERNEL32.dll
 0002:000000a8       __imp__DeleteFileW@4       005be0a8     kernel32:KERNEL32.dll
 0002:000000ac       __imp__LeaveCriticalSection@4 005be0ac     kernel32:KERNEL32.dll
 0002:000000b0       __imp__EnterCriticalSection@4 005be0b0     kernel32:KERNEL32.dll
 0002:000000b4       __imp__IsDebuggerPresent@0 005be0b4     kernel32:KERNEL32.dll
 0002:000000b8       __imp__HeapSize@12         005be0b8     kernel32:KERNEL32.dll
 0002:000000bc       __imp__HeapFree@12         005be0bc     kernel32:KERNEL32.dll
 0002:000000c0       __imp__IsProcessorFeaturePresent@4 005be0c0     kernel32:KERNEL32.dll
 0002:000000c4       __imp__HeapAlloc@12        005be0c4     kernel32:KERNEL32.dll
 0002:000000c8       __imp__ReadFile@20         005be0c8     kernel32:KERNEL32.dll
 0002:000000cc       __imp__GetSystemTimeAsFileTime@4 005be0cc     kernel32:KERNEL32.dll
 0002:000000d0       __imp__WideCharToMultiByte@32 005be0d0     kernel32:KERNEL32.dll
 0002:000000d4       __imp__GetProcAddress@8    005be0d4     kernel32:KERNEL32.dll
 0002:000000d8       __imp__GetModuleHandleExW@12 005be0d8     kernel32:KERNEL32.dll
 0002:000000dc       __imp__ExitProcess@4       005be0dc     kernel32:KERNEL32.dll
 0002:000000e0       __imp__MultiByteToWideChar@24 005be0e0     kernel32:KERNEL32.dll
 0002:000000e4       __imp__AreFileApisANSI@0   005be0e4     kernel32:KERNEL32.dll
 0002:000000e8       __imp__GetLastError@0      005be0e8     kernel32:KERNEL32.dll
 0002:000000ec       __imp__DecodePointer@4     005be0ec     kernel32:KERNEL32.dll
 0002:000000f0       __imp__EncodePointer@4     005be0f0     kernel32:KERNEL32.dll
 0002:000000f4       __imp__GetSystemInfo@4     005be0f4     kernel32:KERNEL32.dll
 0002:000000f8       __imp__FindClose@4         005be0f8     kernel32:KERNEL32.dll
 0002:000000fc       __imp__FindNextFileA@8     005be0fc     kernel32:KERNEL32.dll
 0002:00000100       __imp__FindFirstFileA@8    005be100     kernel32:KERNEL32.dll
 0002:00000104       __imp__CreateDirectoryA@8  005be104     kernel32:KERNEL32.dll
 0002:00000108       __imp__GetFileAttributesA@4 005be108     kernel32:KERNEL32.dll
 0002:0000010c       __imp__CloseHandle@4       005be10c     kernel32:KERNEL32.dll
 0002:00000110       __imp__UnmapViewOfFile@4   005be110     kernel32:KERNEL32.dll
 0002:00000114       __imp__MapViewOfFile@20    005be114     kernel32:KERNEL32.dll
 0002:00000118       __imp__OpenFileMappingA@12 005be118     kernel32:KERNEL32.dll
 0002:0000011c       __imp__GetCurrentThread@0  005be11c     kernel32:KERNEL32.dll
 0002:00000120       __imp__GlobalUnlock@4      005be120     kernel32:KERNEL32.dll
 0002:00000124       __imp__GlobalLock@4        005be124     kernel32:KERNEL32.dll
 0002:00000128       __imp__GlobalSize@4        005be128     kernel32:KERNEL32.dll
 0002:0000012c       __imp__GetCurrentProcess@0 005be12c     kernel32:KERNEL32.dll
 0002:00000130       __imp__SetPriorityClass@8  005be130     kernel32:KERNEL32.dll
 0002:00000134       __imp__GetCommandLineA@0   005be134     kernel32:KERNEL32.dll
 0002:00000138       __imp__SetConsoleOutputCP@4 005be138     kernel32:KERNEL32.dll
 0002:0000013c       __imp__SetConsoleCP@4      005be13c     kernel32:KERNEL32.dll
 0002:00000140       __imp__SetConsoleScreenBufferSize@8 005be140     kernel32:KERNEL32.dll
 0002:00000144       __imp__GetConsoleScreenBufferInfo@8 005be144     kernel32:KERNEL32.dll
 0002:00000148       __imp__GetStdHandle@4      005be148     kernel32:KERNEL32.dll
 0002:0000014c       __imp__SetConsoleTitleA@4  005be14c     kernel32:KERNEL32.dll
 0002:00000150       __imp__GetConsoleWindow@0  005be150     kernel32:KERNEL32.dll
 0002:00000154       __imp__SetConsoleCtrlHandler@8 005be154     kernel32:KERNEL32.dll
 0002:00000158       __imp__AllocConsole@0      005be158     kernel32:KERNEL32.dll
 0002:0000015c       __imp__WriteConsoleA@20    005be15c     kernel32:KERNEL32.dll
 0002:00000160       __imp__GetCurrentProcessId@0 005be160     kernel32:KERNEL32.dll
 0002:00000164       __imp__GetEnvironmentStringsW@0 005be164     kernel32:KERNEL32.dll
 0002:00000168       __imp__FreeEnvironmentStringsW@4 005be168     kernel32:KERNEL32.dll
 0002:0000016c       __imp__HeapReAlloc@16      005be16c     kernel32:KERNEL32.dll
 0002:00000170       __imp__GetDateFormatW@24   005be170     kernel32:KERNEL32.dll
 0002:00000174       __imp__GetTimeFormatW@24   005be174     kernel32:KERNEL32.dll
 0002:00000178       __imp__CompareStringW@24   005be178     kernel32:KERNEL32.dll
 0002:0000017c       __imp__QueryPerformanceCounter@4 005be17c     kernel32:KERNEL32.dll
 0002:00000180       \177KERNEL32_NULL_THUNK_DATA 005be180     kernel32:KERNEL32.dll
 0002:00000184       __imp__glReadPixels@28     005be184     opengl32:OPENGL32.dll
 0002:00000188       __imp__glLoadMatrixf@4     005be188     opengl32:OPENGL32.dll
 0002:0000018c       __imp__glFrustum@48        005be18c     opengl32:OPENGL32.dll
 0002:00000190       __imp__glMultMatrixf@4     005be190     opengl32:OPENGL32.dll
 0002:00000194       __imp__glPolygonOffset@8   005be194     opengl32:OPENGL32.dll
 0002:00000198       __imp__glIsEnabled@4       005be198     opengl32:OPENGL32.dll
 0002:0000019c       __imp__glFogf@8            005be19c     opengl32:OPENGL32.dll
 0002:000001a0       __imp__glClear@4           005be1a0     opengl32:OPENGL32.dll
 0002:000001a4       __imp__glColorMask@16      005be1a4     opengl32:OPENGL32.dll
 0002:000001a8       __imp__glCopyTexImage2D@32 005be1a8     opengl32:OPENGL32.dll
 0002:000001ac       __imp__glMaterialfv@12     005be1ac     opengl32:OPENGL32.dll
 0002:000001b0       __imp__glLightfv@12        005be1b0     opengl32:OPENGL32.dll
 0002:000001b4       __imp__glAlphaFunc@8       005be1b4     opengl32:OPENGL32.dll
 0002:000001b8       __imp__glTexGeni@12        005be1b8     opengl32:OPENGL32.dll
 0002:000001bc       __imp__glLightModelfv@8    005be1bc     opengl32:OPENGL32.dll
 0002:000001c0       __imp__glColor4ubv@4       005be1c0     opengl32:OPENGL32.dll
 0002:000001c4       __imp__glDepthRange@16     005be1c4     opengl32:OPENGL32.dll
 0002:000001c8       __imp__glTexGenfv@12       005be1c8     opengl32:OPENGL32.dll
 0002:000001cc       __imp__glColor4fv@4        005be1cc     opengl32:OPENGL32.dll
 0002:000001d0       __imp__glTexEnvi@12        005be1d0     opengl32:OPENGL32.dll
 0002:000001d4       __imp__glTexEnvfv@12       005be1d4     opengl32:OPENGL32.dll
 0002:000001d8       __imp__glTexCoord4f@16     005be1d8     opengl32:OPENGL32.dll
 0002:000001dc       __imp__glHint@8            005be1dc     opengl32:OPENGL32.dll
 0002:000001e0       __imp__glTexImage1D@32     005be1e0     opengl32:OPENGL32.dll
 0002:000001e4       __imp__glTexImage2D@36     005be1e4     opengl32:OPENGL32.dll
 0002:000001e8       __imp__glTexCoord3f@12     005be1e8     opengl32:OPENGL32.dll
 0002:000001ec       __imp__glGetTexLevelParameteriv@16 005be1ec     opengl32:OPENGL32.dll
 0002:000001f0       __imp__glCullFace@4        005be1f0     opengl32:OPENGL32.dll
 0002:000001f4       __imp__glFrontFace@4       005be1f4     opengl32:OPENGL32.dll
 0002:000001f8       __imp__glFogi@8            005be1f8     opengl32:OPENGL32.dll
 0002:000001fc       __imp__glShadeModel@4      005be1fc     opengl32:OPENGL32.dll
 0002:00000200       __imp__glClearDepth@8      005be200     opengl32:OPENGL32.dll
 0002:00000204       __imp__glClearColor@16     005be204     opengl32:OPENGL32.dll
 0002:00000208       __imp__glGetIntegerv@8     005be208     opengl32:OPENGL32.dll
 0002:0000020c       __imp__glGetString@4       005be20c     opengl32:OPENGL32.dll
 0002:00000210       __imp__glColor3ubv@4       005be210     opengl32:OPENGL32.dll
 0002:00000214       __imp__glPolygonMode@8     005be214     opengl32:OPENGL32.dll
 0002:00000218       __imp__glVertex3f@12       005be218     opengl32:OPENGL32.dll
 0002:0000021c       __imp__glVertex2i@8        005be21c     opengl32:OPENGL32.dll
 0002:00000220       __imp__glCopyTexSubImage2D@32 005be220     opengl32:OPENGL32.dll
 0002:00000224       __imp__glReadBuffer@4      005be224     opengl32:OPENGL32.dll
 0002:00000228       __imp__glDrawBuffer@4      005be228     opengl32:OPENGL32.dll
 0002:0000022c       __imp__glFlush@0           005be22c     opengl32:OPENGL32.dll
 0002:00000230       __imp__glDrawArrays@12     005be230     opengl32:OPENGL32.dll
 0002:00000234       __imp__glFogfv@8           005be234     opengl32:OPENGL32.dll
 0002:00000238       __imp__glGetFloatv@8       005be238     opengl32:OPENGL32.dll
 0002:0000023c       __imp__glDrawElements@16   005be23c     opengl32:OPENGL32.dll
 0002:00000240       __imp__glColorPointer@16   005be240     opengl32:OPENGL32.dll
 0002:00000244       __imp__glTexCoordPointer@16 005be244     opengl32:OPENGL32.dll
 0002:00000248       __imp__glDeleteTextures@8  005be248     opengl32:OPENGL32.dll
 0002:0000024c       __imp__glGenTextures@8     005be24c     opengl32:OPENGL32.dll
 0002:00000250       __imp__glTexParameteri@12  005be250     opengl32:OPENGL32.dll
 0002:00000254       __imp__glTexParameterfv@12 005be254     opengl32:OPENGL32.dll
 0002:00000258       __imp__glBindTexture@8     005be258     opengl32:OPENGL32.dll
 0002:0000025c       __imp__glPixelStorei@8     005be25c     opengl32:OPENGL32.dll
 0002:00000260       __imp__glTexSubImage2D@36  005be260     opengl32:OPENGL32.dll
 0002:00000264       __imp__glBegin@4           005be264     opengl32:OPENGL32.dll
 0002:00000268       __imp__glVertex3fv@4       005be268     opengl32:OPENGL32.dll
 0002:0000026c       __imp__glEnd@0             005be26c     opengl32:OPENGL32.dll
 0002:00000270       __imp__glEnable@4          005be270     opengl32:OPENGL32.dll
 0002:00000274       __imp__glBlendFunc@8       005be274     opengl32:OPENGL32.dll
 0002:00000278       __imp__glVertexPointer@16  005be278     opengl32:OPENGL32.dll
 0002:0000027c       __imp__glColor3ub@12       005be27c     opengl32:OPENGL32.dll
 0002:00000280       __imp__glDisable@4         005be280     opengl32:OPENGL32.dll
 0002:00000284       __imp__glPushMatrix@0      005be284     opengl32:OPENGL32.dll
 0002:00000288       __imp__glScalef@12         005be288     opengl32:OPENGL32.dll
 0002:0000028c       __imp__glColor4f@16        005be28c     opengl32:OPENGL32.dll
 0002:00000290       __imp__glTexCoord2fv@4     005be290     opengl32:OPENGL32.dll
 0002:00000294       __imp__glVertex2f@8        005be294     opengl32:OPENGL32.dll
 0002:00000298       __imp__glPopMatrix@0       005be298     opengl32:OPENGL32.dll
 0002:0000029c       __imp__glColor3f@12        005be29c     opengl32:OPENGL32.dll
 0002:000002a0       __imp__glLineWidth@4       005be2a0     opengl32:OPENGL32.dll
 0002:000002a4       __imp__glDepthFunc@4       005be2a4     opengl32:OPENGL32.dll
 0002:000002a8       __imp__glViewport@16       005be2a8     opengl32:OPENGL32.dll
 0002:000002ac       __imp__glScissor@16        005be2ac     opengl32:OPENGL32.dll
 0002:000002b0       __imp__glColor3fv@4        005be2b0     opengl32:OPENGL32.dll
 0002:000002b4       __imp__glColor4ub@16       005be2b4     opengl32:OPENGL32.dll
 0002:000002b8       __imp__glTexCoord2f@8      005be2b8     opengl32:OPENGL32.dll
 0002:000002bc       __imp__glTranslatef@12     005be2bc     opengl32:OPENGL32.dll
 0002:000002c0       __imp__glRotatef@16        005be2c0     opengl32:OPENGL32.dll
 0002:000002c4       __imp__glDepthMask@4       005be2c4     opengl32:OPENGL32.dll
 0002:000002c8       __imp__glMatrixMode@4      005be2c8     opengl32:OPENGL32.dll
 0002:000002cc       __imp__glLoadIdentity@0    005be2cc     opengl32:OPENGL32.dll
 0002:000002d0       __imp__glOrtho@48          005be2d0     opengl32:OPENGL32.dll
 0002:000002d4       __imp__glEnableClientState@4 005be2d4     opengl32:OPENGL32.dll
 0002:000002d8       __imp__glDisableClientState@4 005be2d8     opengl32:OPENGL32.dll
 0002:000002dc       __imp__glNormalPointer@12  005be2dc     opengl32:OPENGL32.dll
 0002:000002e0       \177OPENGL32_NULL_THUNK_DATA 005be2e0     opengl32:OPENGL32.dll
 0002:000002e4       __imp__SDL_AllocRW         005be2e4     SDL:SDL.dll
 0002:000002e8       __imp__SDL_RWFromFile      005be2e8     SDL:SDL.dll
 0002:000002ec       __imp__SDL_UnlockAudio     005be2ec     SDL:SDL.dll
 0002:000002f0       __imp__SDL_LockAudio       005be2f0     SDL:SDL.dll
 0002:000002f4       __imp__SDL_WM_SetCaption   005be2f4     SDL:SDL.dll
 0002:000002f8       __imp__SDL_GetVideoInfo    005be2f8     SDL:SDL.dll
 0002:000002fc       __imp__SDL_Linked_Version  005be2fc     SDL:SDL.dll
 0002:00000300       __imp__SDL_Init            005be300     SDL:SDL.dll
 0002:00000304       __imp__SDL_GL_SwapBuffers  005be304     SDL:SDL.dll
 0002:00000308       __imp__SDL_PeepEvents      005be308     SDL:SDL.dll
 0002:0000030c       __imp__SDL_PumpEvents      005be30c     SDL:SDL.dll
 0002:00000310       __imp__SDL_PollEvent       005be310     SDL:SDL.dll
 0002:00000314       __imp__SDL_SetVideoMode    005be314     SDL:SDL.dll
 0002:00000318       __imp__SDL_GL_SetAttribute 005be318     SDL:SDL.dll
 0002:0000031c       __imp__SDL_VideoModeOK     005be31c     SDL:SDL.dll
 0002:00000320       __imp__SDL_ListModes       005be320     SDL:SDL.dll
 0002:00000324       __imp__SDL_GetError        005be324     SDL:SDL.dll
 0002:00000328       __imp__SDL_SetGamma        005be328     SDL:SDL.dll
 0002:0000032c       __imp__SDL_EnableKeyRepeat 005be32c     SDL:SDL.dll
 0002:00000330       __imp__SDL_WasInit         005be330     SDL:SDL.dll
 0002:00000334       __imp__SDL_Quit            005be334     SDL:SDL.dll
 0002:00000338       __imp__SDL_mutexV          005be338     SDL:SDL.dll
 0002:0000033c       __imp__SDL_mutexP          005be33c     SDL:SDL.dll
 0002:00000340       __imp__SDL_GetTicks        005be340     SDL:SDL.dll
 0002:00000344       __imp__SDL_WM_GrabInput    005be344     SDL:SDL.dll
 0002:00000348       __imp__SDL_ShowCursor      005be348     SDL:SDL.dll
 0002:0000034c       __imp__SDL_CondWait        005be34c     SDL:SDL.dll
 0002:00000350       __imp__SDL_GetModState     005be350     SDL:SDL.dll
 0002:00000354       __imp__SDL_SaveBMP_RW      005be354     SDL:SDL.dll
 0002:00000358       __imp__SDL_FreeRW          005be358     SDL:SDL.dll
 0002:0000035c       __imp__SDL_SetAlpha        005be35c     SDL:SDL.dll
 0002:00000360       __imp__SDL_FreeSurface     005be360     SDL:SDL.dll
 0002:00000364       __imp__SDL_UpperBlit       005be364     SDL:SDL.dll
 0002:00000368       __imp__SDL_CreateRGBSurface 005be368     SDL:SDL.dll
 0002:0000036c       __imp__SDL_CreateRGBSurfaceFrom 005be36c     SDL:SDL.dll
 0002:00000370       __imp__SDL_GL_GetProcAddress 005be370     SDL:SDL.dll
 0002:00000374       __imp__SDL_EnableUNICODE   005be374     SDL:SDL.dll
 0002:00000378       __imp__SDL_KillThread      005be378     SDL:SDL.dll
 0002:0000037c       __imp__SDL_ThreadID        005be37c     SDL:SDL.dll
 0002:00000380       __imp__SDL_GetThreadID     005be380     SDL:SDL.dll
 0002:00000384       __imp__SDL_SetModuleHandle 005be384     SDL:SDL.dll
 0002:00000388       __imp__SDL_Delay           005be388     SDL:SDL.dll
 0002:0000038c       __imp__SDL_RemoveTimer     005be38c     SDL:SDL.dll
 0002:00000390       __imp__SDL_AddTimer        005be390     SDL:SDL.dll
 0002:00000394       __imp__SDL_WaitThread      005be394     SDL:SDL.dll
 0002:00000398       __imp__SDL_CreateMutex     005be398     SDL:SDL.dll
 0002:0000039c       __imp__SDL_DestroyMutex    005be39c     SDL:SDL.dll
 0002:000003a0       __imp__SDL_CreateThread    005be3a0     SDL:SDL.dll
 0002:000003a4       __imp__SDL_CreateCond      005be3a4     SDL:SDL.dll
 0002:000003a8       __imp__SDL_DestroyCond     005be3a8     SDL:SDL.dll
 0002:000003ac       __imp__SDL_CondWaitTimeout 005be3ac     SDL:SDL.dll
 0002:000003b0       __imp__SDL_CondBroadcast   005be3b0     SDL:SDL.dll
 0002:000003b4       __imp__SDL_CondSignal      005be3b4     SDL:SDL.dll
 0002:000003b8       \177SDL_NULL_THUNK_DATA    005be3b8     SDL:SDL.dll
 0002:000003bc       __imp__IMG_Load            005be3bc     SDL_image:SDL_image.dll
 0002:000003c0       __imp__IMG_LoadTyped_RW    005be3c0     SDL_image:SDL_image.dll
 0002:000003c4       \177SDL_image_NULL_THUNK_DATA 005be3c4     SDL_image:SDL_image.dll
 0002:000003c8       __imp__Mix_QuerySpec       005be3c8     SDL_mixer:SDL_mixer.dll
 0002:000003cc       __imp__Mix_SetPostMix      005be3cc     SDL_mixer:SDL_mixer.dll
 0002:000003d0       __imp__Mix_FreeChunk       005be3d0     SDL_mixer:SDL_mixer.dll
 0002:000003d4       __imp__Mix_FadingChannel   005be3d4     SDL_mixer:SDL_mixer.dll
 0002:000003d8       __imp__Mix_Volume          005be3d8     SDL_mixer:SDL_mixer.dll
 0002:000003dc       __imp__Mix_SetPanning      005be3dc     SDL_mixer:SDL_mixer.dll
 0002:000003e0       __imp__Mix_HaltChannel     005be3e0     SDL_mixer:SDL_mixer.dll
 0002:000003e4       __imp__Mix_VolumeMusic     005be3e4     SDL_mixer:SDL_mixer.dll
 0002:000003e8       __imp__Mix_HaltMusic       005be3e8     SDL_mixer:SDL_mixer.dll
 0002:000003ec       __imp__Mix_FreeMusic       005be3ec     SDL_mixer:SDL_mixer.dll
 0002:000003f0       __imp__Mix_OpenAudio       005be3f0     SDL_mixer:SDL_mixer.dll
 0002:000003f4       __imp__Mix_AllocateChannels 005be3f4     SDL_mixer:SDL_mixer.dll
 0002:000003f8       __imp__Mix_ChannelFinished 005be3f8     SDL_mixer:SDL_mixer.dll
 0002:000003fc       __imp__Mix_LoadMUS         005be3fc     SDL_mixer:SDL_mixer.dll
 0002:00000400       __imp__Mix_PlayMusic       005be400     SDL_mixer:SDL_mixer.dll
 0002:00000404       __imp__Mix_CloseAudio      005be404     SDL_mixer:SDL_mixer.dll
 0002:00000408       __imp__Mix_PlayingMusic    005be408     SDL_mixer:SDL_mixer.dll
 0002:0000040c       __imp__Mix_PausedMusic     005be40c     SDL_mixer:SDL_mixer.dll
 0002:00000410       __imp__Mix_ResumeMusic     005be410     SDL_mixer:SDL_mixer.dll
 0002:00000414       __imp__Mix_LoadWAV_RW      005be414     SDL_mixer:SDL_mixer.dll
 0002:00000418       __imp__Mix_FadeInChannelTimed 005be418     SDL_mixer:SDL_mixer.dll
 0002:0000041c       __imp__Mix_PlayChannelTimed 005be41c     SDL_mixer:SDL_mixer.dll
 0002:00000420       __imp__Mix_FadeOutChannel  005be420     SDL_mixer:SDL_mixer.dll
 0002:00000424       __imp__Mix_Linked_Version  005be424     SDL_mixer:SDL_mixer.dll
 0002:00000428       __imp__Mix_LoadMUS_RW      005be428     SDL_mixer:SDL_mixer.dll
 0002:0000042c       \177SDL_mixer_NULL_THUNK_DATA 005be42c     SDL_mixer:SDL_mixer.dll
 0002:00000430       __imp__SHGetFolderPathA@20 005be430     shell32:SHELL32.dll
 0002:00000434       __imp__Shell_NotifyIconA@8 005be434     shell32:SHELL32.dll
 0002:00000438       \177SHELL32_NULL_THUNK_DATA 005be438     shell32:SHELL32.dll
 0002:0000043c       __imp__MessageBoxA@16      005be43c     user32:USER32.dll
 0002:00000440       __imp__CloseClipboard@0    005be440     user32:USER32.dll
 0002:00000444       __imp__GetClipboardData@4  005be444     user32:USER32.dll
 0002:00000448       __imp__OpenClipboard@4     005be448     user32:USER32.dll
 0002:0000044c       __imp__IsClipboardFormatAvailable@4 005be44c     user32:USER32.dll
 0002:00000450       __imp__DispatchMessageA@4  005be450     user32:USER32.dll
 0002:00000454       __imp__TranslateMessage@4  005be454     user32:USER32.dll
 0002:00000458       __imp__PeekMessageA@20     005be458     user32:USER32.dll
 0002:0000045c       __imp__CreateWindowExA@48  005be45c     user32:USER32.dll
 0002:00000460       __imp__RegisterClassA@4    005be460     user32:USER32.dll
 0002:00000464       __imp__AppendMenuA@16      005be464     user32:USER32.dll
 0002:00000468       __imp__DestroyMenu@4       005be468     user32:USER32.dll
 0002:0000046c       __imp__UnregisterClassA@8  005be46c     user32:USER32.dll
 0002:00000470       __imp__LoadIconA@8         005be470     user32:USER32.dll
 0002:00000474       __imp__DefWindowProcA@16   005be474     user32:USER32.dll
 0002:00000478       __imp__PostQuitMessage@4   005be478     user32:USER32.dll
 0002:0000047c       __imp__ShowWindow@8        005be47c     user32:USER32.dll
 0002:00000480       __imp__ModifyMenuA@20      005be480     user32:USER32.dll
 0002:00000484       __imp__PostMessageA@16     005be484     user32:USER32.dll
 0002:00000488       __imp__TrackPopupMenu@28   005be488     user32:USER32.dll
 0002:0000048c       __imp__GetCursorPos@4      005be48c     user32:USER32.dll
 0002:00000490       __imp__SetForegroundWindow@4 005be490     user32:USER32.dll
 0002:00000494       __imp__SendMessageA@16     005be494     user32:USER32.dll
 0002:00000498       __imp__CreatePopupMenu@0   005be498     user32:USER32.dll
 0002:0000049c       \177USER32_NULL_THUNK_DATA 005be49c     user32:USER32.dll
 0002:000004a0       __imp__timeEndPeriod@4     005be4a0     winmm:WINMM.dll
 0002:000004a4       __imp__timeGetTime@0       005be4a4     winmm:WINMM.dll
 0002:000004a8       __imp__timeBeginPeriod@4   005be4a8     winmm:WINMM.dll
 0002:000004ac       \177WINMM_NULL_THUNK_DATA  005be4ac     winmm:WINMM.dll
 0002:000004b0       __imp__WSASendTo@36        005be4b0     ws2_32:WS2_32.dll
 0002:000004b4       __imp__closesocket@4       005be4b4     ws2_32:WS2_32.dll
 0002:000004b8       __imp__shutdown@8          005be4b8     ws2_32:WS2_32.dll
 0002:000004bc       __imp__accept@12           005be4bc     ws2_32:WS2_32.dll
 0002:000004c0       __imp__WSAGetLastError@0   005be4c0     ws2_32:WS2_32.dll
 0002:000004c4       __imp__connect@12          005be4c4     ws2_32:WS2_32.dll
 0002:000004c8       __imp__getsockopt@20       005be4c8     ws2_32:WS2_32.dll
 0002:000004cc       __imp__ioctlsocket@12      005be4cc     ws2_32:WS2_32.dll
 0002:000004d0       __imp__setsockopt@20       005be4d0     ws2_32:WS2_32.dll
 0002:000004d4       __imp__socket@12           005be4d4     ws2_32:WS2_32.dll
 0002:000004d8       __imp__listen@8            005be4d8     ws2_32:WS2_32.dll
 0002:000004dc       __imp__getsockname@12      005be4dc     ws2_32:WS2_32.dll
 0002:000004e0       __imp__bind@12             005be4e0     ws2_32:WS2_32.dll
 0002:000004e4       __imp__gethostbyaddr@12    005be4e4     ws2_32:WS2_32.dll
 0002:000004e8       __imp__inet_addr@4         005be4e8     ws2_32:WS2_32.dll
 0002:000004ec       __imp__gethostbyname@4     005be4ec     ws2_32:WS2_32.dll
 0002:000004f0       __imp__WSACleanup@0        005be4f0     ws2_32:WS2_32.dll
 0002:000004f4       __imp__WSAStartup@8        005be4f4     ws2_32:WS2_32.dll
 0002:000004f8       __imp__ntohs@4             005be4f8     ws2_32:WS2_32.dll
 0002:000004fc       __imp__ntohl@4             005be4fc     ws2_32:WS2_32.dll
 0002:00000500       __imp__htonl@4             005be500     ws2_32:WS2_32.dll
 0002:00000504       __imp__htons@4             005be504     ws2_32:WS2_32.dll
 0002:00000508       __imp____WSAFDIsSet@8      005be508     ws2_32:WS2_32.dll
 0002:0000050c       __imp__WSARecvFrom@36      005be50c     ws2_32:WS2_32.dll
 0002:00000510       __imp__select@20           005be510     ws2_32:WS2_32.dll
 0002:00000514       __imp__inet_ntoa@4         005be514     ws2_32:WS2_32.dll
 0002:00000518       \177WS2_32_NULL_THUNK_DATA 005be518     ws2_32:WS2_32.dll
 0002:0000051c       __imp__SymGetLineFromAddr@16 005be51c     dbghelp:dbghelp.dll
 0002:00000520       __imp__SymGetSymFromAddr@16 005be520     dbghelp:dbghelp.dll
 0002:00000524       __imp__SymFunctionTableAccess@8 005be524     dbghelp:dbghelp.dll
 0002:00000528       __imp__SymGetModuleBase@8  005be528     dbghelp:dbghelp.dll
 0002:0000052c       __imp__StackWalk@36        005be52c     dbghelp:dbghelp.dll
 0002:00000530       __imp__SymInitialize@12    005be530     dbghelp:dbghelp.dll
 0002:00000534       \177dbghelp_NULL_THUNK_DATA 005be534     dbghelp:dbghelp.dll
 0002:00000538       __imp__zError              005be538     zdll:zlib1.dll
 0002:0000053c       __imp__inflate             005be53c     zdll:zlib1.dll
 0002:00000540       __imp__inflateReset        005be540     zdll:zlib1.dll
 0002:00000544       __imp__inflateEnd          005be544     zdll:zlib1.dll
 0002:00000548       __imp__deflateInit2_       005be548     zdll:zlib1.dll
 0002:0000054c       __imp__inflateInit2_       005be54c     zdll:zlib1.dll
 0002:00000550       __imp__deflateEnd          005be550     zdll:zlib1.dll
 0002:00000554       __imp__deflate             005be554     zdll:zlib1.dll
 0002:00000558       __imp__deflateInit_        005be558     zdll:zlib1.dll
 0002:0000055c       __imp__crc32               005be55c     zdll:zlib1.dll
 0002:00000560       __imp__uncompress          005be560     zdll:zlib1.dll
 0002:00000564       __imp__compress2           005be564     zdll:zlib1.dll
 0002:00000568       __imp__compressBound       005be568     zdll:zlib1.dll
 0002:0000056c       \177zlib1_NULL_THUNK_DATA  005be56c     zdll:zlib1.dll
 0002:00000570       ___xc_a                    005be570     LIBCMT:crt0init.obj
 0002:00001d04       ___xc_z                    005bfd04     LIBCMT:crt0init.obj
 0002:00001d08       ___xi_a                    005bfd08     LIBCMT:crt0init.obj
 0002:00001d24       ___xi_z                    005bfd24     LIBCMT:crt0init.obj
 0002:00001d28       ___xp_a                    005bfd28     LIBCMT:crt0init.obj
 0002:00001d38       ___xp_z                    005bfd38     LIBCMT:crt0init.obj
 0002:00001d3c       ___xt_a                    005bfd3c     LIBCMT:crt0init.obj
 0002:00001d40       ___xt_z                    005bfd40     LIBCMT:crt0init.obj
 0002:00001e64       ??_7type_info@@6B@         005bfe64     LIBCMT:typinfo.obj
 0002:00001e68       ??_C@_1BI@BGOHAHKC@?$AAm?$AAs?$AAc?$AAo?$AAr?$AAe?$AAe?$AA?4?$AAd?$AAl?$AAl?$AA?$AA@ 005bfe68     LIBCMT:crt0dat.obj
 0002:00001e80       ??_C@_0P@MIGLKIOC@CorExitProcess?$AA@ 005bfe80     LIBCMT:crt0dat.obj
 0002:00001e90       ??_C@_06OJHGLDPL@?$CInull?$CJ?$AA@ 005bfe90     LIBCMT:output.obj
 0002:00001e98       ??_C@_1O@CEDCILHN@?$AA?$CI?$AAn?$AAu?$AAl?$AAl?$AA?$CJ?$AA?$AA@ 005bfe98     LIBCMT:output.obj
 0002:00001ea8       ___lookuptable             005bfea8     LIBCMT:output.obj
 0002:00001f04       ??_C@_1BK@MGMFAEKH@?$AAk?$AAe?$AAr?$AAn?$AAe?$AAl?$AA3?$AA2?$AA?4?$AAd?$AAl?$AAl?$AA?$AA@ 005bff04     LIBCMT:winapisupp.obj
 0002:00001f20       ??_C@_08KNHFBNJ@FlsAlloc?$AA@ 005bff20     LIBCMT:winapisupp.obj
 0002:00001f2c       ??_C@_07PEJMOBNF@FlsFree?$AA@ 005bff2c     LIBCMT:winapisupp.obj
 0002:00001f34       ??_C@_0M@GDNOONDI@FlsGetValue?$AA@ 005bff34     LIBCMT:winapisupp.obj
 0002:00001f40       ??_C@_0M@JCPCPOEF@FlsSetValue?$AA@ 005bff40     LIBCMT:winapisupp.obj
 0002:00001f4c       ??_C@_0BM@HCFOFFN@InitializeCriticalSectionEx?$AA@ 005bff4c     LIBCMT:winapisupp.obj
 0002:00001f68       ??_C@_0P@DLHPPCNH@CreateEventExW?$AA@ 005bff68     LIBCMT:winapisupp.obj
 0002:00001f78       ??_C@_0BD@KIEEOEEH@CreateSemaphoreExW?$AA@ 005bff78     LIBCMT:winapisupp.obj
 0002:00001f8c       ??_C@_0BI@BKLFFAPO@SetThreadStackGuarantee?$AA@ 005bff8c     LIBCMT:winapisupp.obj
 0002:00001fa4       ??_C@_0BG@OGFAJCKC@CreateThreadpoolTimer?$AA@ 005bffa4     LIBCMT:winapisupp.obj
 0002:00001fbc       ??_C@_0BD@LPLEMMDI@SetThreadpoolTimer?$AA@ 005bffbc     LIBCMT:winapisupp.obj
 0002:00001fd0       ??_C@_0CA@FMNJENH@WaitForThreadpoolTimerCallbacks?$AA@ 005bffd0     LIBCMT:winapisupp.obj
 0002:00001ff0       ??_C@_0BF@DCFCCNOC@CloseThreadpoolTimer?$AA@ 005bfff0     LIBCMT:winapisupp.obj
 0002:00002008       ??_C@_0BF@FLABGKKM@CreateThreadpoolWait?$AA@ 005c0008     LIBCMT:winapisupp.obj
 0002:00002020       ??_C@_0BC@MGCOHNA@SetThreadpoolWait?$AA@ 005c0020     LIBCMT:winapisupp.obj
 0002:00002034       ??_C@_0BE@OCIOMIMP@CloseThreadpoolWait?$AA@ 005c0034     LIBCMT:winapisupp.obj
 0002:00002048       ??_C@_0BJ@LKGHFHBO@FlushProcessWriteBuffers?$AA@ 005c0048     LIBCMT:winapisupp.obj
 0002:00002064       ??_C@_0BP@KALKKPMO@FreeLibraryWhenCallbackReturns?$AA@ 005c0064     LIBCMT:winapisupp.obj
 0002:00002084       ??_C@_0BK@DFNBACLA@GetCurrentProcessorNumber?$AA@ 005c0084     LIBCMT:winapisupp.obj
 0002:000020a0       ??_C@_0BP@KHGALBC@GetLogicalProcessorInformation?$AA@ 005c00a0     LIBCMT:winapisupp.obj
 0002:000020c0       ??_C@_0BE@FKKLLFLM@CreateSymbolicLinkW?$AA@ 005c00c0     LIBCMT:winapisupp.obj
 0002:000020d4       ??_C@_0BJ@OHNKDLIJ@SetDefaultDllDirectories?$AA@ 005c00d4     LIBCMT:winapisupp.obj
 0002:000020f0       ??_C@_0BE@LJANKFHF@EnumSystemLocalesEx?$AA@ 005c00f0     LIBCMT:winapisupp.obj
 0002:00002104       ??_C@_0BA@IHGNDAEB@CompareStringEx?$AA@ 005c0104     LIBCMT:winapisupp.obj
 0002:00002114       ??_C@_0BA@EPCJIIPD@GetDateFormatEx?$AA@ 005c0114     LIBCMT:winapisupp.obj
 0002:00002124       ??_C@_0BA@ONOKGCMP@GetLocaleInfoEx?$AA@ 005c0124     LIBCMT:winapisupp.obj
 0002:00002134       ??_C@_0BA@CIJJKCJJ@GetTimeFormatEx?$AA@ 005c0134     LIBCMT:winapisupp.obj
 0002:00002144       ??_C@_0BJ@PBCCBIPI@GetUserDefaultLocaleName?$AA@ 005c0144     LIBCMT:winapisupp.obj
 0002:00002160       ??_C@_0BC@CELBKLLA@IsValidLocaleName?$AA@ 005c0160     LIBCMT:winapisupp.obj
 0002:00002174       ??_C@_0O@KKBNKAPF@LCMapStringEx?$AA@ 005c0174     LIBCMT:winapisupp.obj
 0002:00002184       ??_C@_0BE@JOGNEJCI@GetCurrentPackageId?$AA@ 005c0184     LIBCMT:winapisupp.obj
 0002:00002198       ??_C@_0P@CDHHOHKP@GetTickCount64?$AA@ 005c0198     LIBCMT:winapisupp.obj
 0002:000021a8       ??_C@_0BO@KPCLFDJJ@GetFileInformationByHandleExW?$AA@ 005c01a8     LIBCMT:winapisupp.obj
 0002:000021c8       ??_C@_0BM@MHIDLABK@SetFileInformationByHandleW?$AA@ 005c01c8     LIBCMT:winapisupp.obj
 0002:00002214       ??_C@_1M@HPNHIDJI@?$AAj?$AAa?$AA?9?$AAJ?$AAP?$AA?$AA@ 005c0214     LIBCMT:mbctype.obj
 0002:00002220       ??_C@_1M@BIBDDEMK@?$AAz?$AAh?$AA?9?$AAC?$AAN?$AA?$AA@ 005c0220     LIBCMT:mbctype.obj
 0002:0000222c       ??_C@_1M@JLOOOEGK@?$AAk?$AAo?$AA?9?$AAK?$AAR?$AA?$AA@ 005c022c     LIBCMT:mbctype.obj
 0002:00002238       ??_C@_1M@CLNBBOPM@?$AAz?$AAh?$AA?9?$AAT?$AAW?$AA?$AA@ 005c0238     LIBCMT:mbctype.obj
 0002:00002244       ??_C@_03KOEHGMDN@Sun?$AA@  005c0244     LIBCMT:nlsdata.obj
 0002:00002248       ??_C@_03PDAGKDH@Mon?$AA@   005c0248     LIBCMT:nlsdata.obj
 0002:0000224c       ??_C@_03NAGEINEP@Tue?$AA@  005c024c     LIBCMT:nlsdata.obj
 0002:00002250       ??_C@_03MHOMLAJA@Wed?$AA@  005c0250     LIBCMT:nlsdata.obj
 0002:00002254       ??_C@_03IOFIKPDN@Thu?$AA@  005c0254     LIBCMT:nlsdata.obj
 0002:00002258       ??_C@_03IDIOELNC@Fri?$AA@  005c0258     LIBCMT:nlsdata.obj
 0002:0000225c       ??_C@_03FEFJNEK@Sat?$AA@   005c025c     LIBCMT:nlsdata.obj
 0002:00002260       ??_C@_06OOPIFAJ@Sunday?$AA@ 005c0260     LIBCMT:nlsdata.obj
 0002:00002268       ??_C@_06JLEDEDGH@Monday?$AA@ 005c0268     LIBCMT:nlsdata.obj
 0002:00002270       ??_C@_07BAAGCFCM@Tuesday?$AA@ 005c0270     LIBCMT:nlsdata.obj
 0002:00002278       ??_C@_09DLIGFAKA@Wednesday?$AA@ 005c0278     LIBCMT:nlsdata.obj
 0002:00002284       ??_C@_08HACCIKIA@Thursday?$AA@ 005c0284     LIBCMT:nlsdata.obj
 0002:00002290       ??_C@_06JECMNKMI@Friday?$AA@ 005c0290     LIBCMT:nlsdata.obj
 0002:00002298       ??_C@_08INBOOONO@Saturday?$AA@ 005c0298     LIBCMT:nlsdata.obj
 0002:000022a4       ??_C@_03JIHJHPIE@Jan?$AA@  005c02a4     LIBCMT:nlsdata.obj
 0002:000022a8       ??_C@_03HJBDCHOM@Feb?$AA@  005c02a8     LIBCMT:nlsdata.obj
 0002:000022ac       ??_C@_03ODNJBKGA@Mar?$AA@  005c02ac     LIBCMT:nlsdata.obj
 0002:000022b0       ??_C@_03LEOLGMJP@Apr?$AA@  005c02b0     LIBCMT:nlsdata.obj
 0002:000022b4       ??_C@_03CNMDKL@May?$AA@    005c02b4     LIBCMT:nlsdata.obj
 0002:000022b8       ??_C@_03IDFGHECI@Jun?$AA@  005c02b8     LIBCMT:nlsdata.obj
 0002:000022bc       ??_C@_03LBGABGKK@Jul?$AA@  005c02bc     LIBCMT:nlsdata.obj
 0002:000022c0       ??_C@_03IFJFEIGA@Aug?$AA@  005c02c0     LIBCMT:nlsdata.obj
 0002:000022c4       ??_C@_03GGCAPAJC@Sep?$AA@  005c02c4     LIBCMT:nlsdata.obj
 0002:000022c8       ??_C@_03BMAOKBAD@Oct?$AA@  005c02c8     LIBCMT:nlsdata.obj
 0002:000022cc       ??_C@_03JPJOFNIA@Nov?$AA@  005c02cc     LIBCMT:nlsdata.obj
 0002:000022d0       ??_C@_03MKABNOCG@Dec?$AA@  005c02d0     LIBCMT:nlsdata.obj
 0002:000022d4       ??_C@_07CGJPFGJA@January?$AA@ 005c02d4     LIBCMT:nlsdata.obj
 0002:000022dc       ??_C@_08GNJGEPFN@February?$AA@ 005c02dc     LIBCMT:nlsdata.obj
 0002:000022e8       ??_C@_05HPCKOFNC@March?$AA@ 005c02e8     LIBCMT:nlsdata.obj
 0002:000022f0       ??_C@_05DMJDNLEJ@April?$AA@ 005c02f0     LIBCMT:nlsdata.obj
 0002:000022f8       ??_C@_04CNLMGBGM@June?$AA@ 005c02f8     LIBCMT:nlsdata.obj
 0002:00002300       ??_C@_04MIEPOIFP@July?$AA@ 005c0300     LIBCMT:nlsdata.obj
 0002:00002308       ??_C@_06LBBHFDDG@August?$AA@ 005c0308     LIBCMT:nlsdata.obj
 0002:00002310       ??_C@_09BHHEALKD@September?$AA@ 005c0310     LIBCMT:nlsdata.obj
 0002:0000231c       ??_C@_07JJNFCEND@October?$AA@ 005c031c     LIBCMT:nlsdata.obj
 0002:00002324       ??_C@_08HCHEGEOA@November?$AA@ 005c0324     LIBCMT:nlsdata.obj
 0002:00002330       ??_C@_08EDHMEBNP@December?$AA@ 005c0330     LIBCMT:nlsdata.obj
 0002:0000233c       ??_C@_02DEDBPAFC@AM?$AA@   005c033c     LIBCMT:nlsdata.obj
 0002:00002340       ??_C@_02CJNFDJBF@PM?$AA@   005c0340     LIBCMT:nlsdata.obj
 0002:00002344       ??_C@_08BPBNCDIB@MM?1dd?1yy?$AA@ 005c0344     LIBCMT:nlsdata.obj
 0002:00002350       ??_C@_0BE@CKGJFCPC@dddd?0?5MMMM?5dd?0?5yyyy?$AA@ 005c0350     LIBCMT:nlsdata.obj
 0002:00002364       ??_C@_08JCCMCCIL@HH?3mm?3ss?$AA@ 005c0364     LIBCMT:nlsdata.obj
 0002:00002370       ??_C@_17MBGCMIPB@?$AAS?$AAu?$AAn?$AA?$AA@ 005c0370     LIBCMT:nlsdata.obj
 0002:00002378       ??_C@_17KBOMKBF@?$AAM?$AAo?$AAn?$AA?$AA@ 005c0378     LIBCMT:nlsdata.obj
 0002:00002380       ??_C@_17BMKGEGOJ@?$AAT?$AAu?$AAe?$AA?$AA@ 005c0380     LIBCMT:nlsdata.obj
 0002:00002388       ??_C@_17CJEDCEPE@?$AAW?$AAe?$AAd?$AA?$AA@ 005c0388     LIBCMT:nlsdata.obj
 0002:00002390       ??_C@_17PDPHAADD@?$AAT?$AAh?$AAu?$AA?$AA@ 005c0390     LIBCMT:nlsdata.obj
 0002:00002398       ??_C@_17HFOLPPLP@?$AAF?$AAr?$AAi?$AA?$AA@ 005c0398     LIBCMT:nlsdata.obj
 0002:000023a0       ??_C@_17GGIBDPIH@?$AAS?$AAa?$AAt?$AA?$AA@ 005c03a0     LIBCMT:nlsdata.obj
 0002:000023a8       ??_C@_1O@IHNHDHPB@?$AAS?$AAu?$AAn?$AAd?$AAa?$AAy?$AA?$AA@ 005c03a8     LIBCMT:nlsdata.obj
 0002:000023b8       ??_C@_1O@MMNBFLIA@?$AAM?$AAo?$AAn?$AAd?$AAa?$AAy?$AA?$AA@ 005c03b8     LIBCMT:nlsdata.obj
 0002:000023c8       ??_C@_1BA@ENFBFFEK@?$AAT?$AAu?$AAe?$AAs?$AAd?$AAa?$AAy?$AA?$AA@ 005c03c8     LIBCMT:nlsdata.obj
 0002:000023d8       ??_C@_1BE@EBOGMDOH@?$AAW?$AAe?$AAd?$AAn?$AAe?$AAs?$AAd?$AAa?$AAy?$AA?$AA@ 005c03d8     LIBCMT:nlsdata.obj
 0002:000023ec       ??_C@_1BC@HHMNLIHE@?$AAT?$AAh?$AAu?$AAr?$AAs?$AAd?$AAa?$AAy?$AA?$AA@ 005c03ec     LIBCMT:nlsdata.obj
 0002:00002400       ??_C@_1O@PDICJHAG@?$AAF?$AAr?$AAi?$AAd?$AAa?$AAy?$AA?$AA@ 005c0400     LIBCMT:nlsdata.obj
 0002:00002410       ??_C@_1BC@ENMNNPAJ@?$AAS?$AAa?$AAt?$AAu?$AAr?$AAd?$AAa?$AAy?$AA?$AA@ 005c0410     LIBCMT:nlsdata.obj
 0002:00002424       ??_C@_17DKNBKCHM@?$AAJ?$AAa?$AAn?$AA?$AA@ 005c0424     LIBCMT:nlsdata.obj
 0002:0000242c       ??_C@_17LMDJEKJN@?$AAF?$AAe?$AAb?$AA?$AA@ 005c042c     LIBCMT:nlsdata.obj
 0002:00002434       ??_C@_17CKNLEDEC@?$AAM?$AAa?$AAr?$AA?$AA@ 005c0434     LIBCMT:nlsdata.obj
 0002:0000243c       ??_C@_17LFPOIHDD@?$AAA?$AAp?$AAr?$AA?$AA@ 005c043c     LIBCMT:nlsdata.obj
 0002:00002444       ??_C@_17PNNKMEED@?$AAM?$AAa?$AAy?$AA?$AA@ 005c0444     LIBCMT:nlsdata.obj
 0002:0000244c       ??_C@_17KCJGOCPB@?$AAJ?$AAu?$AAn?$AA?$AA@ 005c044c     LIBCMT:nlsdata.obj
 0002:00002454       ??_C@_17IJPCKHK@?$AAJ?$AAu?$AAl?$AA?$AA@ 005c0454     LIBCMT:nlsdata.obj
 0002:0000245c       ??_C@_17ICPELBCN@?$AAA?$AAu?$AAg?$AA?$AA@ 005c045c     LIBCMT:nlsdata.obj
 0002:00002464       ??_C@_17HCHCOKMG@?$AAS?$AAe?$AAp?$AA?$AA@ 005c0464     LIBCMT:nlsdata.obj
 0002:0000246c       ??_C@_17FNLKOI@?$AAO?$AAc?$AAt?$AA?$AA@ 005c046c     LIBCMT:nlsdata.obj
 0002:00002474       ??_C@_17BBDMLCIG@?$AAN?$AAo?$AAv?$AA?$AA@ 005c0474     LIBCMT:nlsdata.obj
 0002:0000247c       ??_C@_17EGKACKIF@?$AAD?$AAe?$AAc?$AA?$AA@ 005c047c     LIBCMT:nlsdata.obj
 0002:00002484       ??_C@_1BA@EFMEIEBA@?$AAJ?$AAa?$AAn?$AAu?$AAa?$AAr?$AAy?$AA?$AA@ 005c0484     LIBCMT:nlsdata.obj
 0002:00002494       ??_C@_1BC@JGDDFFAM@?$AAF?$AAe?$AAb?$AAr?$AAu?$AAa?$AAr?$AAy?$AA?$AA@ 005c0494     LIBCMT:nlsdata.obj
 0002:000024a8       ??_C@_1M@IKEENEDF@?$AAM?$AAa?$AAr?$AAc?$AAh?$AA?$AA@ 005c04a8     LIBCMT:nlsdata.obj
 0002:000024b4       ??_C@_1M@GJNLMHFD@?$AAA?$AAp?$AAr?$AAi?$AAl?$AA?$AA@ 005c04b4     LIBCMT:nlsdata.obj
 0002:000024c0       ??_C@_19EPFLPGAP@?$AAJ?$AAu?$AAn?$AAe?$AA?$AA@ 005c04c0     LIBCMT:nlsdata.obj
 0002:000024cc       ??_C@_19BIFMLPCD@?$AAJ?$AAu?$AAl?$AAy?$AA?$AA@ 005c04cc     LIBCMT:nlsdata.obj
 0002:000024d8       ??_C@_1O@PAHLKOAC@?$AAA?$AAu?$AAg?$AAu?$AAs?$AAt?$AA?$AA@ 005c04d8     LIBCMT:nlsdata.obj
 0002:000024e8       ??_C@_1BE@DKAAMBJL@?$AAS?$AAe?$AAp?$AAt?$AAe?$AAm?$AAb?$AAe?$AAr?$AA?$AA@ 005c04e8     LIBCMT:nlsdata.obj
 0002:000024fc       ??_C@_1BA@EPANDLNG@?$AAO?$AAc?$AAt?$AAo?$AAb?$AAe?$AAr?$AA?$AA@ 005c04fc     LIBCMT:nlsdata.obj
 0002:0000250c       ??_C@_1BC@BGLIFPF@?$AAN?$AAo?$AAv?$AAe?$AAm?$AAb?$AAe?$AAr?$AA?$AA@ 005c050c     LIBCMT:nlsdata.obj
 0002:00002520       ??_C@_1BC@FEMKIFH@?$AAD?$AAe?$AAc?$AAe?$AAm?$AAb?$AAe?$AAr?$AA?$AA@ 005c0520     LIBCMT:nlsdata.obj
 0002:00002534       ??_C@_15ODEHAHHF@?$AAA?$AAM?$AA?$AA@ 005c0534     LIBCMT:nlsdata.obj
 0002:0000253c       ??_C@_15CLMNNGEL@?$AAP?$AAM?$AA?$AA@ 005c053c     LIBCMT:nlsdata.obj
 0002:00002544       ??_C@_1BC@IEBCMHCM@?$AAM?$AAM?$AA?1?$AAd?$AAd?$AA?1?$AAy?$AAy?$AA?$AA@ 005c0544     LIBCMT:nlsdata.obj
 0002:00002558       ??_C@_1CI@KNAKOEBC@?$AAd?$AAd?$AAd?$AAd?$AA?0?$AA?5?$AAM?$AAM?$AAM?$AAM?$AA?5?$AAd?$AAd?$AA?0?$AA?5?$AAy?$AAy?$AAy?$AAy?$AA?$AA@ 005c0558     LIBCMT:nlsdata.obj
 0002:00002580       ??_C@_1BC@GDGBMEMK@?$AAH?$AAH?$AA?3?$AAm?$AAm?$AA?3?$AAs?$AAs?$AA?$AA@ 005c0580     LIBCMT:nlsdata.obj
 0002:00002594       ??_C@_1M@BMHNFIME@?$AAe?$AAn?$AA?9?$AAU?$AAS?$AA?$AA@ 005c0594     LIBCMT:nlsdata.obj
 0002:000026d8       ??_C@_1FK@PGACCAFB@?$AAR?$AA6?$AA0?$AA0?$AA2?$AA?$AN?$AA?6?$AA?9?$AA?5?$AAf?$AAl?$AAo?$AAa?$AAt?$AAi?$AAn?$AAg?$AA?5?$AAp?$AAo?$AAi?$AAn?$AAt?$AA?5?$AAs?$AAu?$AAp?$AAp?$AAo?$AAr?$AAt?$AA?5@ 005c06d8     LIBCMT:crt0msg.obj
 0002:00002738       ??_C@_1FE@LLNEDJMD@?$AAR?$AA6?$AA0?$AA0?$AA8?$AA?$AN?$AA?6?$AA?9?$AA?5?$AAn?$AAo?$AAt?$AA?5?$AAe?$AAn?$AAo?$AAu?$AAg?$AAh?$AA?5?$AAs?$AAp?$AAa?$AAc?$AAe?$AA?5?$AAf?$AAo?$AAr?$AA?5?$AAa?$AAr@ 005c0738     LIBCMT:crt0msg.obj
 0002:00002790       ??_C@_1FI@HONFMGBI@?$AAR?$AA6?$AA0?$AA0?$AA9?$AA?$AN?$AA?6?$AA?9?$AA?5?$AAn?$AAo?$AAt?$AA?5?$AAe?$AAn?$AAo?$AAu?$AAg?$AAh?$AA?5?$AAs?$AAp?$AAa?$AAc?$AAe?$AA?5?$AAf?$AAo?$AAr?$AA?5?$AAe?$AAn@ 005c0790     LIBCMT:crt0msg.obj
 0002:000027e8       ??_C@_1EG@BEHAGFJD@?$AAR?$AA6?$AA0?$AA1?$AA0?$AA?$AN?$AA?6?$AA?9?$AA?5?$AAa?$AAb?$AAo?$AAr?$AAt?$AA?$CI?$AA?$CJ?$AA?5?$AAh?$AAa?$AAs?$AA?5?$AAb?$AAe?$AAe?$AAn?$AA?5?$AAc?$AAa?$AAl?$AAl?$AAe?$AAd@ 005c07e8     LIBCMT:crt0msg.obj
 0002:00002830       ??_C@_1FI@LOGNIKDM@?$AAR?$AA6?$AA0?$AA1?$AA6?$AA?$AN?$AA?6?$AA?9?$AA?5?$AAn?$AAo?$AAt?$AA?5?$AAe?$AAn?$AAo?$AAu?$AAg?$AAh?$AA?5?$AAs?$AAp?$AAa?$AAc?$AAe?$AA?5?$AAf?$AAo?$AAr?$AA?5?$AAt?$AAh@ 005c0830     LIBCMT:crt0msg.obj
 0002:00002888       ??_C@_1FK@BEOGODMC@?$AAR?$AA6?$AA0?$AA1?$AA7?$AA?$AN?$AA?6?$AA?9?$AA?5?$AAu?$AAn?$AAe?$AAx?$AAp?$AAe?$AAc?$AAt?$AAe?$AAd?$AA?5?$AAm?$AAu?$AAl?$AAt?$AAi?$AAt?$AAh?$AAr?$AAe?$AAa?$AAd?$AA?5@ 005c0888     LIBCMT:crt0msg.obj
 0002:000028e8       ??_C@_1EC@JIBHAOPH@?$AAR?$AA6?$AA0?$AA1?$AA8?$AA?$AN?$AA?6?$AA?9?$AA?5?$AAu?$AAn?$AAe?$AAx?$AAp?$AAe?$AAc?$AAt?$AAe?$AAd?$AA?5?$AAh?$AAe?$AAa?$AAp?$AA?5?$AAe?$AAr?$AAr?$AAo?$AAr?$AA?$AN?$AA?6@ 005c08e8     LIBCMT:crt0msg.obj
 0002:00002930       ??_C@_1FC@ECHBIFBC@?$AAR?$AA6?$AA0?$AA1?$AA9?$AA?$AN?$AA?6?$AA?9?$AA?5?$AAu?$AAn?$AAa?$AAb?$AAl?$AAe?$AA?5?$AAt?$AAo?$AA?5?$AAo?$AAp?$AAe?$AAn?$AA?5?$AAc?$AAo?$AAn?$AAs?$AAo?$AAl?$AAe?$AA?5@ 005c0930     LIBCMT:crt0msg.obj
 0002:00002988       ??_C@_1GK@FHCKBEFA@?$AAR?$AA6?$AA0?$AA2?$AA4?$AA?$AN?$AA?6?$AA?9?$AA?5?$AAn?$AAo?$AAt?$AA?5?$AAe?$AAn?$AAo?$AAu?$AAg?$AAh?$AA?5?$AAs?$AAp?$AAa?$AAc?$AAe?$AA?5?$AAf?$AAo?$AAr?$AA?5?$AA_?$AAo@ 005c0988     LIBCMT:crt0msg.obj
 0002:000029f8       ??_C@_1EM@MAADIHMB@?$AAR?$AA6?$AA0?$AA2?$AA5?$AA?$AN?$AA?6?$AA?9?$AA?5?$AAp?$AAu?$AAr?$AAe?$AA?5?$AAv?$AAi?$AAr?$AAt?$AAu?$AAa?$AAl?$AA?5?$AAf?$AAu?$AAn?$AAc?$AAt?$AAi?$AAo?$AAn?$AA?5?$AAc@ 005c09f8     LIBCMT:crt0msg.obj
 0002:00002a48       ??_C@_1GK@MCAAGJMO@?$AAR?$AA6?$AA0?$AA2?$AA6?$AA?$AN?$AA?6?$AA?9?$AA?5?$AAn?$AAo?$AAt?$AA?5?$AAe?$AAn?$AAo?$AAu?$AAg?$AAh?$AA?5?$AAs?$AAp?$AAa?$AAc?$AAe?$AA?5?$AAf?$AAo?$AAr?$AA?5?$AAs?$AAt@ 005c0a48     LIBCMT:crt0msg.obj
 0002:00002ab8       ??_C@_1GK@MFGOKLAG@?$AAR?$AA6?$AA0?$AA2?$AA7?$AA?$AN?$AA?6?$AA?9?$AA?5?$AAn?$AAo?$AAt?$AA?5?$AAe?$AAn?$AAo?$AAu?$AAg?$AAh?$AA?5?$AAs?$AAp?$AAa?$AAc?$AAe?$AA?5?$AAf?$AAo?$AAr?$AA?5?$AAl?$AAo@ 005c0ab8     LIBCMT:crt0msg.obj
 0002:00002b28       ??_C@_1EK@HHFLMAOL@?$AAR?$AA6?$AA0?$AA2?$AA8?$AA?$AN?$AA?6?$AA?9?$AA?5?$AAu?$AAn?$AAa?$AAb?$AAl?$AAe?$AA?5?$AAt?$AAo?$AA?5?$AAi?$AAn?$AAi?$AAt?$AAi?$AAa?$AAl?$AAi?$AAz?$AAe?$AA?5?$AAh?$AAe@ 005c0b28     LIBCMT:crt0msg.obj
 0002:00002b74       ??_C@_1DO@BMFCDCD@?$AAR?$AA6?$AA0?$AA3?$AA0?$AA?$AN?$AA?6?$AA?9?$AA?5?$AAC?$AAR?$AAT?$AA?5?$AAn?$AAo?$AAt?$AA?5?$AAi?$AAn?$AAi?$AAt?$AAi?$AAa?$AAl?$AAi?$AAz?$AAe?$AAd?$AA?$AN?$AA?6?$AA?$AA@ 005c0b74     LIBCMT:crt0msg.obj
 0002:00002bb8       ??_C@_1MG@ENCOOIDF@?$AAR?$AA6?$AA0?$AA3?$AA1?$AA?$AN?$AA?6?$AA?9?$AA?5?$AAA?$AAt?$AAt?$AAe?$AAm?$AAp?$AAt?$AA?5?$AAt?$AAo?$AA?5?$AAi?$AAn?$AAi?$AAt?$AAi?$AAa?$AAl?$AAi?$AAz?$AAe?$AA?5?$AAt@ 005c0bb8     LIBCMT:crt0msg.obj
 0002:00002c80       ??_C@_1GG@GOPILAJP@?$AAR?$AA6?$AA0?$AA3?$AA2?$AA?$AN?$AA?6?$AA?9?$AA?5?$AAn?$AAo?$AAt?$AA?5?$AAe?$AAn?$AAo?$AAu?$AAg?$AAh?$AA?5?$AAs?$AAp?$AAa?$AAc?$AAe?$AA?5?$AAf?$AAo?$AAr?$AA?5?$AAl?$AAo@ 005c0c80     LIBCMT:crt0msg.obj
 0002:00002ce8       ??_C@_1BOO@KGEDBGAJ@?$AAR?$AA6?$AA0?$AA3?$AA3?$AA?$AN?$AA?6?$AA?9?$AA?5?$AAA?$AAt?$AAt?$AAe?$AAm?$AAp?$AAt?$AA?5?$AAt?$AAo?$AA?5?$AAu?$AAs?$AAe?$AA?5?$AAM?$AAS?$AAI?$AAL?$AA?5?$AAc?$AAo?$AAd@ 005c0ce8     LIBCMT:crt0msg.obj
 0002:00002ed8       ??_C@_1GG@MKFPEKFO@?$AAR?$AA6?$AA0?$AA3?$AA4?$AA?$AN?$AA?6?$AA?9?$AA?5?$AAi?$AAn?$AAc?$AAo?$AAn?$AAs?$AAi?$AAs?$AAt?$AAe?$AAn?$AAt?$AA?5?$AAo?$AAn?$AAe?$AAx?$AAi?$AAt?$AA?5?$AAb?$AAe?$AAg@ 005c0ed8     LIBCMT:crt0msg.obj
 0002:00002f40       ??_C@_1BO@BFCDCGC@?$AAD?$AAO?$AAM?$AAA?$AAI?$AAN?$AA?5?$AAe?$AAr?$AAr?$AAo?$AAr?$AA?$AN?$AA?6?$AA?$AA@ 005c0f40     LIBCMT:crt0msg.obj
 0002:00002f60       ??_C@_1BK@KMOMNAAI@?$AAS?$AAI?$AAN?$AAG?$AA?5?$AAe?$AAr?$AAr?$AAo?$AAr?$AA?$AN?$AA?6?$AA?$AA@ 005c0f60     LIBCMT:crt0msg.obj
 0002:00002f7c       ??_C@_1BM@JBBEPPHI@?$AAT?$AAL?$AAO?$AAS?$AAS?$AA?5?$AAe?$AAr?$AAr?$AAo?$AAr?$AA?$AN?$AA?6?$AA?$AA@ 005c0f7c     LIBCMT:crt0msg.obj
 0002:00002f98       ??_C@_15JNBOKNOG@?$AA?$AN?$AA?6?$AA?$AA@ 005c0f98     LIBCMT:crt0msg.obj
 0002:00002fa0       ??_C@_1BO@BKOMIGKJ@?$AAr?$AAu?$AAn?$AAt?$AAi?$AAm?$AAe?$AA?5?$AAe?$AAr?$AAr?$AAo?$AAr?$AA?5?$AA?$AA@ 005c0fa0     LIBCMT:crt0msg.obj
 0002:00002fc0       ??_C@_1DE@JNGNBFGO@?$AAR?$AAu?$AAn?$AAt?$AAi?$AAm?$AAe?$AA?5?$AAE?$AAr?$AAr?$AAo?$AAr?$AA?$CB?$AA?6?$AA?6?$AAP?$AAr?$AAo?$AAg?$AAr?$AAa?$AAm?$AA?3?$AA?5?$AA?$AA@ 005c0fc0     LIBCMT:crt0msg.obj
 0002:00002ff4       ??_C@_1CO@EAEJAADC@?$AA?$DM?$AAp?$AAr?$AAo?$AAg?$AAr?$AAa?$AAm?$AA?5?$AAn?$AAa?$AAm?$AAe?$AA?5?$AAu?$AAn?$AAk?$AAn?$AAo?$AAw?$AAn?$AA?$DO?$AA?$AA@ 005c0ff4     LIBCMT:crt0msg.obj
 0002:00003024       ??_C@_17LGKOMLJ@?$AA?4?$AA?4?$AA?4?$AA?$AA@ 005c1024     LIBCMT:crt0msg.obj
 0002:0000302c       ??_C@_15IABLJNFO@?$AA?6?$AA?6?$AA?$AA@ 005c102c     LIBCMT:crt0msg.obj
 0002:00003038       ??_C@_1EK@MBDPDCGA@?$AAM?$AAi?$AAc?$AAr?$AAo?$AAs?$AAo?$AAf?$AAt?$AA?5?$AAV?$AAi?$AAs?$AAu?$AAa?$AAl?$AA?5?$AAC?$AA?$CL?$AA?$CL?$AA?5?$AAR?$AAu?$AAn?$AAt?$AAi?$AAm?$AAe?$AA?5?$AAL?$AAi?$AAb@ 005c1038     LIBCMT:crt0msg.obj
 0002:00003084       ___dnames                  005c1084     LIBCMT:timeset.obj
 0002:0000309c       ___mnames                  005c109c     LIBCMT:timeset.obj
 0002:000030c4       ??_C@_02CLFPBFFP@TZ?$AA@   005c10c4     LIBCMT:tzset.obj
 0002:000030c8       ??_C@_1M@PBPMMENC@?$AAa?$AAm?$AA?1?$AAp?$AAm?$AA?$AA@ 005c10c8     LIBCMT:wcsftime.obj
 0002:000030d4       ??_C@_17BLFJJHMM@?$AAa?$AA?1?$AAp?$AA?$AA@ 005c10d4     LIBCMT:wcsftime.obj
 0002:000030dc       __FPinit                   005c10dc     LIBCMT:fpinit.obj
 0002:000030e0       ___lookuptable_s           005c10e0     LIBCMT:outputs.obj
 0002:00003140       __XcptActTab               005c1140     LIBCMT:winxfltr.obj
 0002:000031d0       __XcptActTabCount          005c11d0     LIBCMT:winxfltr.obj
 0002:000031d4       __XcptActTabSize           005c11d4     LIBCMT:winxfltr.obj
 0002:000031d8       __First_FPE_Indx           005c11d8     LIBCMT:winxfltr.obj
 0002:000031dc       __Num_FPE                  005c11dc     LIBCMT:winxfltr.obj
 0002:000031e0       _LcidToLocaleNameTable     005c11e0     LIBCMT:winapinls.obj
 0002:00003900       _LocaleNameToIndexTable    005c1900     LIBCMT:winapinls.obj
 0002:00004020       ??_C@_15EMKDOKLE@?$AAa?$AAr?$AA?$AA@ 005c2020     LIBCMT:winapinls.obj
 0002:00004028       ??_C@_15KNPADPLH@?$AAb?$AAg?$AA?$AA@ 005c2028     LIBCMT:winapinls.obj
 0002:00004030       ??_C@_15EDMHLDMO@?$AAc?$AAa?$AA?$AA@ 005c2030     LIBCMT:winapinls.obj
 0002:00004038       ??_C@_1O@BPEAJADD@?$AAz?$AAh?$AA?9?$AAC?$AAH?$AAS?$AA?$AA@ 005c2038     LIBCMT:winapinls.obj
 0002:00004048       ??_C@_15LJNHCMNK@?$AAc?$AAs?$AA?$AA@ 005c2048     LIBCMT:winapinls.obj
 0002:00004050       ??_C@_15FOMCIDHG@?$AAd?$AAa?$AA?$AA@ 005c2050     LIBCMT:winapinls.obj
 0002:00004058       ??_C@_15NBKABECB@?$AAd?$AAe?$AA?$AA@ 005c2058     LIBCMT:winapinls.obj
 0002:00004060       ??_C@_15GHPEIIAO@?$AAe?$AAl?$AA?$AA@ 005c2060     LIBCMT:winapinls.obj
 0002:00004068       ??_C@_15MNPNEAIF@?$AAe?$AAn?$AA?$AA@ 005c2068     LIBCMT:winapinls.obj
 0002:00004070       ??_C@_15GPIOMPMH@?$AAe?$AAs?$AA?$AA@ 005c2070     LIBCMT:winapinls.obj
 0002:00004078       ??_C@_15NGLOAKJC@?$AAf?$AAi?$AA?$AA@ 005c2078     LIBCMT:winapinls.obj
 0002:00004080       ??_C@_15FBKGNKAM@?$AAf?$AAr?$AA?$AA@ 005c2080     LIBCMT:winapinls.obj
 0002:00004088       ??_C@_15KGGCNEFK@?$AAh?$AAe?$AA?$AA@ 005c2088     LIBCMT:winapinls.obj
 0002:00004090       ??_C@_15PGHLIDMF@?$AAh?$AAu?$AA?$AA@ 005c2090     LIBCMT:winapinls.obj
 0002:00004098       ??_C@_15BIEMAPLM@?$AAi?$AAs?$AA?$AA@ 005c2098     LIBCMT:winapinls.obj
 0002:000040a0       ??_C@_15IFJLDHAF@?$AAi?$AAt?$AA?$AA@ 005c20a0     LIBCMT:winapinls.obj
 0002:000040a8       ??_C@_15GEMIOCAG@?$AAj?$AAa?$AA?$AA@ 005c20a8     LIBCMT:winapinls.obj
 0002:000040b0       ??_C@_15EPELEGJA@?$AAk?$AAo?$AA?$AA@ 005c20b0     LIBCMT:winapinls.obj
 0002:000040b8       ??_C@_15NDDHIMN@?$AAn?$AAl?$AA?$AA@ 005c20b8     LIBCMT:winapinls.obj
 0002:000040c0       ??_C@_15BPIGNHCD@?$AAn?$AAo?$AA?$AA@ 005c20c0     LIBCMT:winapinls.obj
