 sauerbraten

 Timestamp is 54241f03 (Thu Sep 25 15:56:19 2014)

 Preferred load address is 0000000140000000

 Start         Length     Name                   Class
 0001:00000000 00006910H .text                   CODE
 0001:00006910 0001b750H .text$di                CODE
 0001:00022060 001ceea6H .text$mn                CODE
 0001:001f0f10 00005aedH .text$x                 CODE
 0001:001f6a00 000023a4H .text$yd                CODE
 0002:00000000 00000af8H .idata$5                DATA
 0002:00000af8 00000008H .CRT$XCA                DATA
 0002:00000b00 00002e50H .CRT$XCU                DATA
 0002:00003950 00000008H .CRT$XCZ                DATA
 0002:00003958 00000008H .CRT$XIA                DATA
 0002:00003960 00000028H .CRT$XIC                DATA
 0002:00003988 00000008H .CRT$XIY                DATA
 0002:00003990 00000008H .CRT$XIZ                DATA
 0002:00003998 00000008H .CRT$XPA                DATA
 0002:000039a0 00000010H .CRT$XPX                DATA
 0002:000039b0 00000008H .CRT$XPXA               DATA
 0002:000039b8 00000008H .CRT$XPZ                DATA
 0002:000039c0 00000008H .CRT$XTA                DATA
 0002:000039c8 00000008H .CRT$XTZ                DATA
 0002:000039e0 00026980H .rdata                  DATA
 0002:0002a360 00000060H .rdata$debug            DATA
 0002:0002a3c0 000029a4H .rdata$r                DATA
 0002:0002cd70 000000e0H .rdata$zzz              DATA
 0002:0002ce50 00000008H .rtc$IAA                DATA
 0002:0002ce58 00000008H .rtc$IZZ                DATA
 0002:0002ce60 00000008H .rtc$TAA                DATA
 0002:0002ce68 00000008H .rtc$TZZ                DATA
 0002:0002ce70 00028464H .xdata                  DATA
 0002:000552d8 00000084H .xdata$x                DATA
 0002:0005535c 00000000H .edata                  DATA
 0002:0005535c 000000dcH .idata$2                DATA
 0002:00055438 00000014H .idata$3                DATA
 0002:00055450 00000af8H .idata$4                DATA
 0002:00055f48 000015c4H .idata$6                DATA
 0003:00000000 00007020H .data                   DATA
 0003:00007020 00000d1cH .data$r                 DATA
 0003:00007d40 000dd448H .bss                    DATA
 0004:00000000 0001b138H .pdata                  DATA
 0005:00000000 000007b0H _RDATA                  DATA
 0006:00000000 000000e8H .rsrc$01                DATA
 0006:000000f0 00002868H .rsrc$02                DATA

  Address         Publics by Value              Rva+Base               Lib:Object

 0000:00000000       __guard_flags              0000000000000000     <absolute>
 0000:00000000       __guard_fids_table         0000000000000000     <absolute>
 0000:00000000       __guard_fids_count         0000000000000000     <absolute>
 0000:00000000       __ImageBase                0000000140000000     <linker-defined>
 0001:00000000       enet_host_create           0000000140001000 f   enet:host.o
 0001:000003c0       enet_host_destroy          00000001400013c0 f   enet:host.o
 0001:00000460       enet_host_connect          0000000140001460 f   enet:host.o
 0001:000006a0       enet_host_broadcast        00000001400016a0 f   enet:host.o
 0001:00000730       enet_host_compress         0000000140001730 f   enet:host.o
 0001:000007b0       enet_host_channel_limit    00000001400017b0 f   enet:host.o
 0001:000007d0       enet_host_bandwidth_limit  00000001400017d0 f   enet:host.o
 0001:000007e0       enet_host_bandwidth_throttle 00000001400017e0 f   enet:host.o
 0001:00000b80       enet_peer_throttle_configure 0000000140001b80 f   enet:peer.o
 0001:00000d70       enet_peer_throttle         0000000140001d70 f   enet:peer.o
 0001:00000e00       enet_peer_receive          0000000140001e00 f   enet:peer.o
 0001:00000e80       enet_peer_reset_queues     0000000140001e80 f   enet:peer.o
 0001:00001210       enet_peer_on_connect       0000000140002210 f   enet:peer.o
 0001:00001240       enet_peer_on_disconnect    0000000140002240 f   enet:peer.o
 0001:00001270       enet_peer_reset            0000000140002270 f   enet:peer.o
 0001:000014f0       enet_peer_ping_interval    00000001400024f0 f   enet:peer.o
 0001:00001510       enet_peer_timeout          0000000140002510 f   enet:peer.o
 0001:00001550       enet_peer_queue_acknowledgement 0000000140002550 f   enet:peer.o
 0001:00001620       enet_peer_setup_outgoing_command 0000000140002620 f   enet:peer.o
 0001:00001790       enet_peer_ping             0000000140002790 f   enet:peer.o
 0001:000017e0       enet_peer_disconnect       00000001400027e0 f   enet:peer.o
 0001:000018c0       enet_peer_disconnect_later 00000001400028c0 f   enet:peer.o
 0001:00001a00       enet_peer_disconnect_now   0000000140002a00 f   enet:peer.o
 0001:00001d10       enet_peer_queue_outgoing_command 0000000140002d10 f   enet:peer.o
 0001:00001f10       enet_peer_send             0000000140002f10 f   enet:peer.o
 0001:000021e0       enet_peer_dispatch_incoming_unreliable_commands 00000001400031e0 f   enet:peer.o
 0001:00002420       enet_peer_dispatch_incoming_reliable_commands 0000000140003420 f   enet:peer.o
 0001:00002510       enet_peer_queue_incoming_command 0000000140003510 f   enet:peer.o
 0001:000029c0       enet_initialize            00000001400039c0 f   enet:win32.o
 0001:00002a30       enet_deinitialize          0000000140003a30 f   enet:win32.o
 0001:00002a50       enet_host_random_seed      0000000140003a50 f   enet:win32.o
 0001:00002a60       enet_time_get              0000000140003a60 f   enet:win32.o
 0001:00002a80       enet_time_set              0000000140003a80 f   enet:win32.o
 0001:00002aa0       enet_address_set_host      0000000140003aa0 f   enet:win32.o
 0001:00002af0       enet_address_get_host_ip   0000000140003af0 f   enet:win32.o
 0001:00002b50       enet_address_get_host      0000000140003b50 f   enet:win32.o
 0001:00002bd0       enet_socket_bind           0000000140003bd0 f   enet:win32.o
 0001:00002c40       enet_socket_get_address    0000000140003c40 f   enet:win32.o
 0001:00002c90       enet_socket_listen         0000000140003c90 f   enet:win32.o
 0001:00002cc0       enet_socket_create         0000000140003cc0 f   enet:win32.o
 0001:00002ce0       enet_socket_set_option     0000000140003ce0 f   enet:win32.o
 0001:00002e40       enet_socket_get_option     0000000140003e40 f   enet:win32.o
 0001:00002e90       enet_socket_connect        0000000140003e90 f   enet:win32.o
 0001:00002f20       enet_socket_accept         0000000140003f20 f   enet:win32.o
 0001:00002fa0       enet_socket_shutdown       0000000140003fa0 f   enet:win32.o
 0001:00002fc0       enet_socket_destroy        0000000140003fc0 f   enet:win32.o
 0001:00002fe0       enet_socket_send           0000000140003fe0 f   enet:win32.o
 0001:000030c0       enet_socket_receive        00000001400040c0 f   enet:win32.o
 0001:000031a0       enet_socketset_select      00000001400041a0 f   enet:win32.o
 0001:000031f0       enet_socket_wait           00000001400041f0 f   enet:win32.o
 0001:000043a0       enet_protocol_command_size 00000001400053a0 f   enet:protocol.o
 0001:000043b0       enet_host_flush            00000001400053b0 f   enet:protocol.o
 0001:00004850       enet_host_check_events     0000000140005850 f   enet:protocol.o
 0001:000049b0       enet_host_service          00000001400059b0 f   enet:protocol.o
 0001:00006430       enet_packet_create         0000000140007430 f   enet:packet.o
 0001:000064e0       enet_packet_destroy        00000001400074e0 f   enet:packet.o
 0001:00006530       enet_packet_resize         0000000140007530 f   enet:packet.o
 0001:000065a0       enet_crc32                 00000001400075a0 f   enet:packet.o
 0001:000067d0       enet_initialize_with_callbacks 00000001400077d0 f   enet:callbacks.o
 0001:00006820       enet_linked_version        0000000140007820 f   enet:callbacks.o
 0001:00006830       enet_malloc                0000000140007830 f   enet:callbacks.o
 0001:00006860       enet_free                  0000000140007860 f   enet:callbacks.o
 0001:00006870       enet_list_clear            0000000140007870 f   enet:list.o
 0001:00006880       enet_list_insert           0000000140007880 f   enet:list.o
 0001:000068a0       enet_list_remove           00000001400078a0 f   enet:list.o
 0001:000068c0       enet_list_move             00000001400078c0 f   enet:list.o
 0001:000068f0       enet_list_size             00000001400078f0 f   enet:list.o
 0001:00022060       ?shrink@BlendMapRoot@@QEAAXH@Z 0000000140023060 f i blend.obj
 0001:00022140       ?gentex@BlendBrush@@QEAAXXZ 0000000140023140 f i blend.obj
 0001:000223d0       ?reorient@BlendBrush@@QEAAX_N00@Z 00000001400233d0 f i blend.obj
 0001:000224f0       ?growbuf@?$vector@PEAUBlendBrush@@@@QEAAXH@Z 00000001400234f0 f i blend.obj
 0001:00022590       ??1ImageData@@QEAA@XZ      0000000140023590 f i blend.obj
 0001:00022590       ?cleanup@ImageData@@QEAAXXZ 0000000140023590 f i blend.obj
 0001:000225e0       ??0ImageData@@QEAA@XZ      00000001400235e0 f i blend.obj
 0001:00022600       ?newstring@@YAPEADPEBD@Z   0000000140023600 f i blend.obj
 0001:00022670       ?create_ent@cubeloader@@QEAAXAEAUc_persistent_entity@1@@Z 0000000140023670 f i cubeloader.obj
 0001:00022930       ?preprocess_cubes@cubeloader@@QEAAXXZ 0000000140023930 f i cubeloader.obj
 0001:00022a50       ?getfloorceil@cubeloader@@QEAAHAEAUc_sqr@1@AEAH1@Z 0000000140023a50 f i cubeloader.obj
 0001:00022bb0       ?boundingbox@cubeloader@@QEAAXXZ 0000000140023bb0 f i cubeloader.obj
 0001:00022d80       ?create_cubes@cubeloader@@QEAAXXZ 0000000140023d80 f i cubeloader.obj
 0001:000233c0       ?load_cube_world@cubeloader@@QEAAXPEAD@Z 00000001400243c0 f i cubeloader.obj
 0001:00023af0       ?growbuf@?$vector@PEAUphysent@@@@QEAAXH@Z 0000000140024af0 f i physics.obj
 0001:00023af0       ?growbuf@?$vector@PEAUextentity@@@@QEAAXH@Z 0000000140024af0 f i cubeloader.obj
 0001:00023af0       ?growbuf@?$vector@PEAUmaterialsurface@@@@QEAAXH@Z 0000000140024af0 f i pvs.obj
 0001:00023af0       ?growbuf@?$vector@Utcvert@vertmodel@@@@QEAAXH@Z 0000000140024af0 f i rendermodel.obj
 0001:00023af0       ?growbuf@?$vector@PEAUfpsent@@@@QEAAXH@Z 0000000140024af0 f i ai.obj
 0001:00023af0       ?growbuf@?$vector@PEAUoctaentities@@@@QEAAXH@Z 0000000140024af0 f i octarender.obj
 0001:00023af0       ?growbuf@?$vector@Uufval@unionfind@@@@QEAAXH@Z 0000000140024af0 f i material.obj
 0001:00023af0       ?growbuf@?$vector@PEBUextentity@@@@QEAAXH@Z 0000000140024af0 f i lightmap.obj
 0001:00023af0       ?growbuf@?$vector@PEAD@@QEAAXH@Z 0000000140024af0 f i server.obj
 0001:00023af0       ?growbuf@?$vector@PEBD@@QEAAXH@Z 0000000140024af0 f i serverbrowser.obj
 0001:00023af0       ?growbuf@?$vector@PEAUShader@@@@QEAAXH@Z 0000000140024af0 f i shader.obj
 0001:00023af0       ?growbuf@?$vector@PEAUTexture@@@@QEAAXH@Z 0000000140024af0 f i rendertext.obj
 0001:00023af0       ?growbuf@?$vector@PEAUpart@animmodel@@@@QEAAXH@Z 0000000140024af0 f i rendermodel.obj
 0001:00023af0       ?growbuf@?$vector@PEAUgameevent@server@@@@QEAAXH@Z 0000000140024af0 f i server1.obj
 0001:00023af0       ?growbuf@?$vector@Uantipode@skelmodel@@@@QEAAXH@Z 0000000140024af0 f i rendermodel.obj
 0001:00023af0       ?growbuf@?$vector@Ufacebounds@@@@QEAAXH@Z 0000000140024af0 f i octarender.obj
 0001:00023af0       ?growbuf@?$vector@PEAUskelmeshgroup@skelmodel@@@@QEAAXH@Z 0000000140024af0 f i rendermodel.obj
 0001:00023af0       ?growbuf@?$vector@PEAUmesh@animmodel@@@@QEAAXH@Z 0000000140024af0 f i rendermodel.obj
 0001:00023af0       ?growbuf@?$vector@PEAUclientinfo@server@@@@QEAAXH@Z 0000000140024af0 f i server1.obj
 0001:00023af0       ?growbuf@?$vector@PEAUvtxarray@@@@QEAAXH@Z 0000000140024af0 f i octarender.obj
 0001:00023b90       ??Rstringformatter@@QEAAXPEBDZZ 0000000140024b90 f i cubeloader.obj
 0001:00023bd0       ??0<unnamed-type-waterplanes>@@QEAA@XZ 0000000140024bd0 f i pvs.obj
 0001:00023bd0       ??0lightcacheentry@@QEAA@XZ 0000000140024bd0 f i lightmap.obj
 0001:00023c00       ??1<unnamed-type-waterplanes>@@QEAA@XZ 0000000140024c00 f i pvs.obj
 0001:00023c00       ??1lightcacheentry@@QEAA@XZ 0000000140024c00 f i lightmap.obj
 0001:00023c30       ?add@?$vector@H@@QEAAAEAHAEBH@Z 0000000140024c30 f i lightmap.obj
 0001:00023c80       ?add@?$vector@ULightMap@@@@QEAAAEAULightMap@@XZ 0000000140024c80 f i lightmap.obj
 0001:00023d40       ?shrink@?$vector@ULightMap@@@@QEAAXH@Z 0000000140024d40 f i lightmap.obj
 0001:00023db0       ?add@?$vector@ULightMapTexture@@@@QEAAAEAULightMapTexture@@XZ 0000000140024db0 f i lightmap.obj
 0001:00023e40       ??1?$vector@PEAUmesh@animmodel@@@@QEAA@XZ 0000000140024e40 f i rendermodel.obj
 0001:00023e40       ??1?$vector@H@@QEAA@XZ     0000000140024e40 f i lightmap.obj
 0001:00023e40       ??1?$vector@D@@QEAA@XZ     0000000140024e40 f i worldio.obj
 0001:00023e40       ??1?$vector@PEAUphysent@@@@QEAA@XZ 0000000140024e40 f i physics.obj
 0001:00023e40       ??1?$vector@I@@QEAA@XZ     0000000140024e40 f i command.obj
 0001:00023e40       ??1?$vector@PEAUclientinfo@server@@@@QEAA@XZ 0000000140024e40 f i server1.obj
 0001:00023e40       ??1?$vector@PEAUplink@@@@QEAA@XZ 0000000140024e40 f i octa.obj
 0001:00023e40       ??1?$vector@PEAUfpsent@@@@QEAA@XZ 0000000140024e40 f i ai.obj
 0001:00023e40       ??1?$vector@PEAUmaterialsurface@@@@QEAA@XZ 0000000140024e40 f i pvs.obj
 0001:00023e40       ??1?$vector@PEAUShader@@@@QEAA@XZ 0000000140024e40 f i shader.obj
 0001:00023e40       ??1?$vector@PEAUident@@@@QEAA@XZ 0000000140024e40 f i command.obj
 0001:00023e40       ??1?$vector@PEAD@@QEAA@XZ  0000000140024e40 f i server.obj
 0001:00023e40       ??1?$vector@PEAUextentity@@@@QEAA@XZ 0000000140024e40 f i entities.obj
 0001:00023e40       ??1?$vector@G@@QEAA@XZ     0000000140024e40 f i octaedit.obj
 0001:00023e40       ??1?$vector@E@@QEAA@XZ     0000000140024e40 f i octaedit.obj
 0001:00023e40       ??1?$vector@PEAUTexture@@@@QEAA@XZ 0000000140024e40 f i rendertext.obj
 0001:00023e40       ??1?$vector@PEAUoctaentities@@@@QEAA@XZ 0000000140024e40 f i octarender.obj
 0001:00023e40       ??1?$vector@PEAUpart@animmodel@@@@QEAA@XZ 0000000140024e40 f i rendermodel.obj
 0001:00023e40       ??1?$vector@PEAUkeym@@@@QEAA@XZ 0000000140024e40 f i console.obj
 0001:00023e40       ??1?$vector@PEBUextentity@@@@QEAA@XZ 0000000140024e40 f i lightmap.obj
 0001:00023e40       ??1?$vector@PEAUgameevent@server@@@@QEAA@XZ 0000000140024e40 f i server1.obj
 0001:00023e40       ??1?$vector@PEAUvtxarray@@@@QEAA@XZ 0000000140024e40 f i octarender.obj
 0001:00023e40       ??1?$vector@PEAUskelmeshgroup@skelmodel@@@@QEAA@XZ 0000000140024e40 f i rendermodel.obj
 0001:00023e60       ??0?$vector@D@@QEAA@XZ     0000000140024e60 f i worldio.obj
 0001:00023e60       ??0?$vector@PEAUclientinfo@server@@@@QEAA@XZ 0000000140024e60 f i server1.obj
 0001:00023e60       ??0?$vector@Uvec@@@@QEAA@XZ 0000000140024e60 f i worldio.obj
 0001:00023e60       ??0?$vector@PEAUShader@@@@QEAA@XZ 0000000140024e60 f i shader.obj
 0001:00023e60       ??0?$vector@Ufacebounds@@@@QEAA@XZ 0000000140024e60 f i octarender.obj
 0001:00023e60       ??0?$vector@Uanimspec@animmodel@@@@QEAA@XZ 0000000140024e60 f i rendermodel.obj
 0001:00023e60       ??0?$vector@Ulightmaptask@@@@QEAA@XZ 0000000140024e60 f i lightmap.obj
 0001:00023e60       ??0?$vector@E@@QEAA@XZ     0000000140024e60 f i octaedit.obj
 0001:00023e60       ??0?$vector@G@@QEAA@XZ     0000000140024e60 f i octaedit.obj
 0001:00023e60       ??0?$vector@Umergedface@@@@QEAA@XZ 0000000140024e60 f i octarender.obj
 0001:00023e60       ??0?$vector@PEAUvtxarray@@@@QEAA@XZ 0000000140024e60 f i octarender.obj
 0001:00023e60       ??0?$vector@Utri@BIH@@@@QEAA@XZ 0000000140024e60 f i rendermodel.obj
 0001:00023e70       ??1?$vector@Uflag@ctfclientmode@game@@@@QEAA@XZ 0000000140024e70 f i client1.obj
 0001:00023e70       ??1?$vector@Urotlimit@ragdollskel@@@@QEAA@XZ 0000000140024e70 f i rendermodel.obj
 0001:00023e70       ??1?$vector@Uvvertw@skelmodel@@@@QEAA@XZ 0000000140024e70 f i rendermodel.obj
 0001:00023e70       ??1?$vector@Uteamscore@@@@QEAA@XZ 0000000140024e70 f i scoreboard.obj
 0001:00023e70       ??1?$vector@Urotfriction@ragdollskel@@@@QEAA@XZ 0000000140024e70 f i rendermodel.obj
 0001:00023e70       ??1?$vector@Uvert@vertmodel@@@@QEAA@XZ 0000000140024e70 f i rendermodel.obj
 0001:00023e70       ??1?$vector@Utcvert@vertmodel@@@@QEAA@XZ 0000000140024e70 f i rendermodel.obj
 0001:00023e70       ??1?$vector@Upitchcorrect@skelmodel@@@@QEAA@XZ 0000000140024e70 f i rendermodel.obj
 0001:00023e70       ??1?$vector@ULocalShaderParamState@@@@QEAA@XZ 0000000140024e70 f i shader.obj
 0001:00023e70       ??1?$vector@Uholdspawn@ctfclientmode@game@@@@QEAA@XZ 0000000140024e70 f i client1.obj
 0001:00023e70       ??1?$vector@UShaderParam@@@@QEAA@XZ 0000000140024e70 f i octaedit.obj
 0001:00023e70       ??1?$vector@Uvvert@vertmodel@@@@QEAA@XZ 0000000140024e70 f i rendermodel.obj
 0001:00023e70       ??1?$vector@Uskin@animmodel@@@@QEAA@XZ 0000000140024e70 f i rendermodel.obj
 0001:00023e70       ??1?$vector@Ucrcinfo@server@@@@QEAA@XZ 0000000140024e70 f i server1.obj
 0001:00023e70       ??1?$vector@Uvvertff@vertmodel@@@@QEAA@XZ 0000000140024e70 f i rendermodel.obj
 0001:00023e70       ??1?$vector@Uhitinfo@server@@@@QEAA@XZ 0000000140024e70 f i server1.obj
 0001:00023e70       ??1?$vector@Uaviindexentry@@@@QEAA@XZ 0000000140024e70 f i movie.obj
 0001:00023e70       ??1?$vector@Upitchdep@skelmodel@@@@QEAA@XZ 0000000140024e70 f i rendermodel.obj
 0001:00023e70       ??1?$vector@Ugrasstri@@@@QEAA@XZ 0000000140024e70 f i octarender.obj
 0001:00023e70       ??1?$vector@Uvvertn@skelmodel@@@@QEAA@XZ 0000000140024e70 f i rendermodel.obj
 0001:00023e70       ??1?$vector@Uaistate@ai@@@@QEAA@XZ 0000000140024e70 f i ai.obj
 0001:00023e70       ??1?$vector@Uscore@captureclientmode@game@@@@QEAA@XZ 0000000140024e70 f i client1.obj
 0001:00023e70       ??1?$vector@Umaterialsurface@@@@QEAA@XZ 0000000140024e70 f i octarender.obj
 0001:00023e70       ??1?$vector@Utoken@collectservmode@server@@@@QEAA@XZ 0000000140024e70 f i server1.obj
 0001:00023e70       ??1?$vector@Uwaterinfo@@@@QEAA@XZ 0000000140024e70 f i material.obj
 0001:00023e70       ??1?$vector@Udualquat@@@@QEAA@XZ 0000000140024e70 f i rendermodel.obj
 0001:00023e70       ??1?$vector@Ubase@collectclientmode@game@@@@QEAA@XZ 0000000140024e70 f i client1.obj
 0001:00023e70       ??1?$vector@Ubatchedmodel@@@@QEAA@XZ 0000000140024e70 f i rendermodel.obj
 0001:00023e70       ??1?$vector@Upoly@@@@QEAA@XZ 0000000140024e70 f i octa.obj
 0001:00023e70       ??1?$vector@Umd5joint@@@@QEAA@XZ 0000000140024e70 f i rendermodel.obj
 0001:00023e70       ??1?$vector@Uvvertbumpw@skelmodel@@@@QEAA@XZ 0000000140024e70 f i rendermodel.obj
 0001:00023e70       ??1?$vector@Uflag@ctfservmode@server@@@@QEAA@XZ 0000000140024e70 f i server1.obj
 0001:00023e70       ??1?$vector@Ulinkedpart@animmodel@@@@QEAA@XZ 0000000140024e70 f i rendermodel.obj
 0001:00023e70       ??1?$vector@Uvvertbump@skelmodel@@@@QEAA@XZ 0000000140024e70 f i rendermodel.obj
 0001:00023e70       ??1?$vector@Uvert@ragdollskel@@@@QEAA@XZ 0000000140024e70 f i rendermodel.obj
 0001:00023e70       ??1?$vector@Uvert@skelmodel@@@@QEAA@XZ 0000000140024e70 f i rendermodel.obj
 0001:00023e70       ??1?$vector@UUniformLoc@@@@QEAA@XZ 0000000140024e70 f i shader.obj
 0001:00023e70       ??1?$vector@Utri@vertmodel@@@@QEAA@XZ 0000000140024e70 f i rendermodel.obj
 0001:00023e70       ??1?$vector@Ublendcombo@skelmodel@@@@QEAA@XZ 0000000140024e70 f i rendermodel.obj
 0001:00023e70       ??1?$vector@Ubase@collectservmode@server@@@@QEAA@XZ 0000000140024e70 f i server1.obj
 0001:00023e70       ??1?$vector@Uvvert@skelmodel@@@@QEAA@XZ 0000000140024e70 f i rendermodel.obj
 0001:00023e70       ??1?$vector@Uantipode@skelmodel@@@@QEAA@XZ 0000000140024e70 f i rendermodel.obj
 0001:00023e70       ??1?$vector@Uivec@@@@QEAA@XZ 0000000140024e70 f i worldio.obj
 0001:00023e70       ??1?$vector@UBIHNode@@@@QEAA@XZ 0000000140024e70 f i bih.obj
 0001:00023e70       ??1?$vector@Utransparentmodel@@@@QEAA@XZ 0000000140024e70 f i rendermodel.obj
 0001:00023e70       ??1?$vector@Utri@BIH@@@@QEAA@XZ 0000000140024e70 f i rendermodel.obj
 0001:00023e70       ??1?$vector@Uvvertbump@vertmodel@@@@QEAA@XZ 0000000140024e70 f i rendermodel.obj
 0001:00023e70       ??1?$vector@Usortitem@@@@QEAA@XZ 0000000140024e70 f i command.obj
 0001:00023e70       ??1?$vector@Uvotecount@server@@@@QEAA@XZ 0000000140024e70 f i server1.obj
 0001:00023e70       ??1?$vector@Ureljoint@ragdollskel@@@@QEAA@XZ 0000000140024e70 f i rendermodel.obj
 0001:00023e70       ??1?$vector@Uobstacle@avoidset@ai@@@@QEAA@XZ 0000000140024e70 f i ai.obj
 0001:00023e70       ??1?$vector@Uanimspec@animmodel@@@@QEAA@XZ 0000000140024e70 f i rendermodel.obj
 0001:00023e70       ??1?$vector@Uvertex@@@@QEAA@XZ 0000000140024e70 f i octarender.obj
 0001:00023e70       ??1?$vector@Usmdbone@@@@QEAA@XZ 0000000140024e70 f i rendermodel.obj
 0001:00023e70       ??1?$vector@Ufacebounds@@@@QEAA@XZ 0000000140024e70 f i octarender.obj
 0001:00023e70       ??1?$vector@Ubaseinfo@captureclientmode@game@@@@QEAA@XZ 0000000140024e70 f i client1.obj
 0001:00023e70       ??1?$vector@Utri@skelmodel@@@@QEAA@XZ 0000000140024e70 f i rendermodel.obj
 0001:00023e70       ??1?$vector@Uvec@@@@QEAA@XZ 0000000140024e70 f i worldio.obj
 0001:00023e70       ??1?$vector@Uskelcacheentry@skelmodel@@@@QEAA@XZ 0000000140024e70 f i rendermodel.obj
 0001:00023e70       ??1?$vector@UAttribLoc@@@@QEAA@XZ 0000000140024e70 f i shader.obj
 0001:00023e70       ??1?$vector@Umergedface@@@@QEAA@XZ 0000000140024e70 f i octarender.obj
 0001:00023e70       ??1?$vector@Uvec2@@@@QEAA@XZ 0000000140024e70 f i worldio.obj
 0001:00023e70       ??1?$vector@Usortkey@@@@QEAA@XZ 0000000140024e70 f i octarender.obj
 0001:00023e70       ??1?$vector@Uavisegmentinfo@@@@QEAA@XZ 0000000140024e70 f i movie.obj
 0001:00023e70       ??1?$vector@Udistlimit@ragdollskel@@@@QEAA@XZ 0000000140024e70 f i rendermodel.obj
 0001:00023e70       ??1?$vector@Ulightmaptask@@@@QEAA@XZ 0000000140024e70 f i lightmap.obj
 0001:00023e70       ??1?$vector@Utoken@collectclientmode@game@@@@QEAA@XZ 0000000140024e70 f i client1.obj
 0001:00023e70       ??1?$vector@Upitchtarget@skelmodel@@@@QEAA@XZ 0000000140024e70 f i rendermodel.obj
 0001:00023e70       ??1?$vector@Uscore@captureservmode@server@@@@QEAA@XZ 0000000140024e70 f i server1.obj
 0001:00023e70       ??1?$vector@Uholdspawn@ctfservmode@server@@@@QEAA@XZ 0000000140024e70 f i server1.obj
 0001:00023e70       ??1?$vector@Ujoint@ragdollskel@@@@QEAA@XZ 0000000140024e70 f i rendermodel.obj
 0001:00023e70       ??1?$vector@Ueditline@@@@QEAA@XZ 0000000140024e70 f i 3dgui.obj
 0001:00023e70       ??1?$vector@UTex@Slot@@@@QEAA@XZ 0000000140024e70 f i texture.obj
 0001:00023e70       ??1?$vector@Ucharinfo@font@@@@QEAA@XZ 0000000140024e70 f i rendertext.obj
 0001:00023e70       ??1?$vector@Uufval@unionfind@@@@QEAA@XZ 0000000140024e70 f i material.obj
 0001:00023e70       ??1?$vector@Umd5hierarchy@@@@QEAA@XZ 0000000140024e70 f i rendermodel.obj
 0001:00023e70       ??1?$vector@Utri@ragdollskel@@@@QEAA@XZ 0000000140024e70 f i rendermodel.obj
 0001:00023e70       ??1?$vector@Ubaseinfo@captureservmode@server@@@@QEAA@XZ 0000000140024e70 f i server1.obj
 0001:00023e70       ??1?$vector@Unode@wpcache@ai@@@@QEAA@XZ 0000000140024e70 f i waypoint.obj
 0001:00023e70       ??1?$vector@Uneedfile@server@@@@QEAA@XZ 0000000140024e70 f i server1.obj
 0001:00023e90       ?move@?$vector@Ulightmaptask@@@@QEAAXAEAU1@@Z 0000000140024e90 f i lightmap.obj
 0001:00023f30       ??0?$hashset@Ulayoutinfo@@@@QEAA@H@Z 0000000140024f30 f i lightmap.obj
 0001:00023fb0       ?clear@?$hashset@Ulayoutinfo@@@@QEAAXXZ 0000000140024fb0 f i lightmap.obj
 0001:00024040       ?growbuf@?$vector@H@@QEAAXH@Z 0000000140025040 f i lightmap.obj
 0001:00024040       ?growbuf@?$vector@I@@QEAAXH@Z 0000000140025040 f i command.obj
 0001:000240e0       ?growbuf@?$vector@ULightMap@@@@QEAAXH@Z 00000001400250e0 f i lightmap.obj
 0001:00024180       ?growbuf@?$vector@ULightMapTexture@@@@QEAAXH@Z 0000000140025180 f i lightmap.obj
 0001:00024220       ?growbuf@?$vector@PEAUlightmapworker@@@@QEAAXH@Z 0000000140025220 f i lightmap.obj
 0001:000242c0       ?growbuf@?$vector@Uvvertbumpw@skelmodel@@@@QEAAXH@Z 00000001400252c0 f i rendermodel.obj
 0001:000242c0       ?growbuf@?$vector@Ulightmaptask@@@@QEAAXH@Z 00000001400252c0 f i lightmap.obj
 0001:00024350       ?growbuf@?$vector@Ulightmapext@@@@QEAAXH@Z 0000000140025350 f i lightmap.obj
 0001:000243f0       ??$access@Ulightmapinfo@@@?$hashset@Ulayoutinfo@@@@QEAAPEAUlayoutinfo@@AEBUlightmapinfo@@@Z 00000001400253f0 f i lightmap.obj
 0001:000244a0       ??$?AUlightmapinfo@@@?$hashset@Ulayoutinfo@@@@QEAAAEAUlayoutinfo@@AEBUlightmapinfo@@@Z 00000001400254a0 f i lightmap.obj
 0001:00024570       ?insert@?$hashset@Ulayoutinfo@@@@QEAAPEAUchain@1@I@Z 0000000140025570 f i lightmap.obj
 0001:000246f0       ?leavegame@servmode@server@@UEAAXPEAUclientinfo@2@_N@Z 00000001400256f0 f i server1.obj
 0001:000246f0       ?respawned@clientmode@game@@UEAAXPEAUfpsent@@@Z 00000001400256f0 f i client1.obj
 0001:000246f0       ?intermission@servmode@server@@UEAAXXZ 00000001400256f0 f i server1.obj
 0001:000246f0       ?moved@servmode@server@@UEAAXPEAUclientinfo@2@AEBUvec@@_N12@Z 00000001400256f0 f i server1.obj
 0001:000246f0       ?respawned@captureclientmode@game@@UEAAXPEAUfpsent@@@Z 00000001400256f0 f i client1.obj
 0001:000246f0       ?removeplayer@clientmode@game@@UEAAXPEAUfpsent@@@Z 00000001400256f0 f i client1.obj
 0001:000246f0       ?preload@meshgroup@animmodel@@UEAAXPEAUpart@2@@Z 00000001400256f0 f i rendermodel.obj
 0001:000246f0       ?update@partrenderer@@UEAAXXZ 00000001400256f0 f i renderparticles.obj
 0001:000246f0       ?checkitems@clientmode@game@@UEAAXPEAUfpsent@@@Z 00000001400256f0 f i client1.obj
 0001:000246f0       ?endrender@model@@UEAAXXZ  00000001400256f0 f i rendermodel.obj
 0001:000246f0       ??3@YAXPEAX0@Z             00000001400256f0 f i lightmap.obj
 0001:000246f0       ?preload@clientmode@game@@UEAAXXZ 00000001400256f0 f i client1.obj
 0001:000246f0       ?cleanup@partrenderer@@UEAAXXZ 00000001400256f0 f i renderparticles.obj
 0001:000246f0       ?drawhud@clientmode@game@@UEAAXPEAUfpsent@@HH@Z 00000001400256f0 f i client1.obj
 0001:000246f0       ?setspec@model@@UEAAXM@Z   00000001400256f0 f i rendermodel.obj
 0001:000246f0       ?update@servmode@server@@UEAAXXZ 00000001400256f0 f i server1.obj
 0001:000246f0       ?cleanup@model@@UEAAXXZ    00000001400256f0 f i rendermodel.obj
 0001:000246f0       ?setglow@model@@UEAAXMMM@Z 00000001400256f0 f i rendermodel.obj
 0001:000246f0       ?seedemitter@partrenderer@@UEAAXAEAUparticleemitter@@AEBUvec@@1HMH@Z 00000001400256f0 f i renderparticles.obj
 0001:000246f0       ?gentris@mesh@animmodel@@UEAAXPEAUTexture@@PEAU?$vector@Utri@BIH@@@@AEBUmatrix3x4@@@Z 00000001400256f0 f i rendermodel.obj
 0001:000246f0       ?killpart@listrenderer@@UEAAXPEAUlistparticle@@@Z 00000001400256f0 f i renderparticles.obj
 0001:000246f0       ?setup@clientmode@game@@UEAAXXZ 00000001400256f0 f i client1.obj
 0001:000246f0       ?died@servmode@server@@UEAAXPEAUclientinfo@2@0@Z 00000001400256f0 f i server1.obj
 0001:000246f0       ?spawned@servmode@server@@UEAAXPEAUclientinfo@2@@Z 00000001400256f0 f i server1.obj
 0001:000246f0       ?concattagtransform@meshgroup@animmodel@@UEAAXPEAUpart@2@HAEBUmatrix3x4@@AEAU4@@Z 00000001400256f0 f i rendermodel.obj
 0001:000246f0       ?setenvmap@model@@UEAAXMMPEAUTexture@@@Z 00000001400256f0 f i rendermodel.obj
 0001:000246f0       ?changeteam@collectservmode@server@@UEAAXPEAUclientinfo@2@PEBD1@Z 00000001400256f0 f i server1.obj
 0001:000246f0       ?process@gameevent@server@@UEAAXPEAUclientinfo@2@@Z 00000001400256f0 f i server1.obj
 0001:000246f0       ?dodebug@rendertarget@@UEAAXHH@Z 00000001400256f0 f i glare.obj
 0001:000246f0       ?resettracked@partrenderer@@UEAAXPEAUphysent@@@Z 00000001400256f0 f i renderparticles.obj
 0001:000246f0       ?calcbb@mesh@animmodel@@UEAAXAEAUvec@@0AEBUmatrix3x4@@@Z 00000001400256f0 f i rendermodel.obj
 0001:000246f0       ?render@meshgroup@animmodel@@UEAAXPEBUanimstate@2@MAEBUvec@@1PEAUdynent@@PEAUpart@2@@Z 00000001400256f0 f i rendermodel.obj
 0001:000246f0       ?setglare@model@@UEAAXMM@Z 00000001400256f0 f i rendermodel.obj
 0001:000246f0       ?rendergame@clientmode@game@@UEAAXXZ 00000001400256f0 f i client1.obj
 0001:000246f0       ?aifind@clientmode@game@@UEAAXPEAUfpsent@@AEAUaistate@ai@@AEAU?$vector@Uinterest@ai@@@@@Z 00000001400256f0 f i client1.obj
 0001:000246f0       ?entergame@servmode@server@@UEAAXPEAUclientinfo@2@@Z 00000001400256f0 f i server1.obj
 0001:000246f0       ?init@partrenderer@@UEAAXH@Z 00000001400256f0 f i renderparticles.obj
 0001:000246f0       ?setfullbright@model@@UEAAXM@Z 00000001400256f0 f i rendermodel.obj
 0001:000246f0       ?cleanup@servmode@server@@UEAAXXZ 00000001400256f0 f i server1.obj
 0001:000246f0       ?getteamscores@servmode@server@@UEAAXAEAU?$vector@Uteamscore@@@@@Z 00000001400256f0 f i server1.obj
 0001:000246f0       ?setcullface@model@@UEAAX_N@Z 00000001400256f0 f i rendermodel.obj
 0001:000246f0       ?startrender@textrenderer@@UEAAXXZ 00000001400256f0 f i renderparticles.obj
 0001:000246f0       ?getteamscores@clientmode@game@@UEAAXAEAU?$vector@Uteamscore@@@@@Z 00000001400256f0 f i client1.obj
 0001:000246f0       ?preloadmeshes@model@@UEAAXXZ 00000001400256f0 f i rendermodel.obj
 0001:000246f0       ?changeteam@servmode@server@@UEAAXPEAUclientinfo@2@PEBD1@Z 00000001400256f0 f i server1.obj
 0001:000246f0       ?pushlist@g3d_gui@@UEAAXXZ 00000001400256f0 f i 3dgui.obj
 0001:000246f0       ?preloadshaders@model@@UEAAXXZ 00000001400256f0 f i rendermodel.obj
 0001:000246f0       ?poplist@g3d_gui@@UEAAXXZ  00000001400256f0 f i 3dgui.obj
 0001:000246f0       ?senditems@clientmode@game@@UEAAXAEAUpacketbuf@@@Z 00000001400256f0 f i client1.obj
 0001:000246f0       ?gameover@clientmode@game@@UEAAXXZ 00000001400256f0 f i client1.obj
 0001:000246f0       ?setshader@model@@UEAAXPEAUShader@@@Z 00000001400256f0 f i rendermodel.obj
 0001:000246f0       ?initclient@servmode@server@@UEAAXPEAUclientinfo@2@AEAUpacketbuf@@_N@Z 00000001400256f0 f i server1.obj
 0001:000246f0       ?setalphatest@model@@UEAAXM@Z 00000001400256f0 f i rendermodel.obj
 0001:000246f0       ?startrender@model@@UEAAXXZ 00000001400256f0 f i rendermodel.obj
 0001:000246f0       ?newmap@servmode@server@@UEAAXXZ 00000001400256f0 f i server1.obj
 0001:000246f0       ?setalphablend@model@@UEAAX_N@Z 00000001400256f0 f i rendermodel.obj
 0001:000246f0       ?doclear@rendertarget@@UEAAXXZ 00000001400256f0 f i glare.obj
 0001:000246f0       ?setambient@model@@UEAAXM@Z 00000001400256f0 f i rendermodel.obj
 0001:000246f0       ?setup@servmode@server@@UEAAXXZ 00000001400256f0 f i server1.obj
 0001:000246f0       ?cleanup@meshgroup@animmodel@@UEAAXXZ 00000001400256f0 f i rendermodel.obj
 0001:000246f0       ?endrender@textrenderer@@UEAAXXZ 00000001400256f0 f i renderparticles.obj
 0001:00024700       ?calcsize@ImageData@@QEBAHXZ 0000000140025700 f i lightmap.obj
 0001:000247b0       ?boundbox@model@@QEAAXAEAUvec@@0@Z 00000001400257b0 f i lightmap.obj
 0001:00024850       ?above@model@@QEAAMXZ      0000000140025850 f i lightmap.obj
 0001:000248e0       ?toplane@plane@@QEAA_NAEBUvec@@00@Z 00000001400258e0 f i lightmap.obj
 0001:00024a50       ?animkey@meshgroup@animmodel@@UEAAPEAXXZ 0000000140025a50 f i rendermodel.obj
 0001:00024a50       ??0plane@@QEAA@XZ          0000000140025a50 f i lightmap.obj
 0001:00024a50       ??0clipplanes@@QEAA@XZ     0000000140025a50 f i octa.obj
 0001:00024a60       ?orthonormalize@vec@@QEBAXAEAU1@0@Z 0000000140025a60 f i lightmap.obj
 0001:00024bf0       ?iszero@vec@@QEBA_NXZ      0000000140025bf0 f i lightmap.obj
 0001:00024c10       ??1PackNode@@QEAA@XZ       0000000140025c10 f i lightmap.obj
 0001:00024c20       ?clear@PackNode@@QEAAXXZ   0000000140025c20 f i lightmap.obj
 0001:00024c80       ??0?$hashset@Unormalgroup@@@@QEAA@H@Z 0000000140025c80 f i normal.obj
 0001:00024d00       ?clear@?$hashset@Unormalgroup@@@@QEAAXXZ 0000000140025d00 f i normal.obj
 0001:00024d90       ?growbuf@?$vector@Unormal@@@@QEAAXH@Z 0000000140025d90 f i normal.obj
 0001:00024e30       ?growbuf@?$vector@Utnormal@@@@QEAAXH@Z 0000000140025e30 f i normal.obj
 0001:00024ed0       ??$access@Uvec@@U1@@?$hashset@Unormalgroup@@@@QEAAAEAUnormalgroup@@AEBUvec@@0@Z 0000000140025ed0 f i normal.obj
 0001:00024f80       ??$access@Uvec@@@?$hashset@Unormalgroup@@@@QEAAPEAUnormalgroup@@AEBUvec@@@Z 0000000140025f80 f i normal.obj
 0001:00024ff0       ?insert@?$hashset@Unormalgroup@@@@QEAAPEAUchain@1@I@Z 0000000140025ff0 f i normal.obj
 0001:000251b0       ?cross@vec@@QEAAAEAU1@AEBU1@00@Z 00000001400261b0 f i normal.obj
 0001:00025270       ??1?$hashset@U?$hashtableentry@Uvec2@@H@@@@QEAA@XZ 0000000140026270 f i worldio.obj
 0001:00025270       ??1?$hashset@Uplink@@@@QEAA@XZ 0000000140026270 f i octa.obj
 0001:00025270       ??1?$hashset@U?$hashtableentry@Uvec@@H@@@@QEAA@XZ 0000000140026270 f i worldio.obj
 0001:00025270       ??1?$hashset@U?$hashtableentry@Uivec@@H@@@@QEAA@XZ 0000000140026270 f i rendermodel.obj
 0001:000252d0       ??1?$hashset@U?$hashtableentry@Ucfkey@@Ucfpolys@@@@@@QEAA@XZ 00000001400262d0 f i octa.obj
 0001:00025300       ?growbuf@?$vector@Upoly@@@@QEAAXH@Z 0000000140026300 f i octa.obj
 0001:000253a0       ??0?$hashset@U?$hashtableentry@Ucfkey@@Ucfpolys@@@@@@QEAA@H@Z 00000001400263a0 f i octa.obj
 0001:00025420       ?deletechunks@?$hashset@U?$hashtableentry@Ucfkey@@Ucfpolys@@@@@@QEAAXXZ 0000000140026420 f i octa.obj
 0001:000254b0       ??1chain@?$hashset@U?$hashtableentry@Ucfkey@@Ucfpolys@@@@@@QEAA@XZ 00000001400264b0 f i octa.obj
 0001:00025500       ??1?$hashtableentry@Ucfkey@@Ucfpolys@@@@QEAA@XZ 0000000140026500 f i octa.obj
 0001:00025550       ??1cfpolys@@QEAA@XZ        0000000140026550 f i octa.obj
 0001:00025550       ??1unionfind@@QEAA@XZ      0000000140026550 f i material.obj
 0001:00025550       ??1wpcache@ai@@QEAA@XZ     0000000140026550 f i waypoint.obj
 0001:00025590       ?insert@?$hashset@U?$hashtableentry@Ucfkey@@Ucfpolys@@@@@@QEAAPEAUchain@1@I@Z 0000000140026590 f i octa.obj
 0001:00025690       ??0chain@?$hashset@U?$hashtableentry@Ucfkey@@Ucfpolys@@@@@@QEAA@XZ 0000000140026690 f i octa.obj
 0001:000256c0       ?insert@?$hashset@Uplink@@@@QEAAPEAUchain@1@I@Z 00000001400266c0 f i octa.obj
 0001:000257a0       ??1prefab@@QEAA@XZ         00000001400267a0 f i octaedit.obj
 0001:000257e0       ?gui@texturegui@@UEAAXAEAUg3d_gui@@_N@Z 00000001400267e0 f i octaedit.obj
 0001:00025a80       ?showtextures@texturegui@@QEAAX_N@Z 0000000140026a80 f i octaedit.obj
 0001:00025be0       ?show@texturegui@@QEAAXXZ  0000000140026be0 f i octaedit.obj
 0001:00025cb0       ??_Gtexturegui@@UEAAPEAXI@Z 0000000140026cb0 f i octaedit.obj
 0001:00025cb0       ??_Gmenu@@UEAAPEAXI@Z      0000000140026cb0 f i menus.obj
 0001:00025cb0       ??_Gscoreboardgui@game@@UEAAPEAXI@Z 0000000140026cb0 f i scoreboard.obj
 0001:00025cb0       ??_Etexturegui@@UEAAPEAXI@Z 0000000140026cb0 f i * CIL library *:* CIL module *
 0001:00025cb0       ??_Escoreboardgui@game@@UEAAPEAXI@Z 0000000140026cb0 f i * CIL library *:* CIL module *
 0001:00025cb0       ??_Emenu@@UEAAPEAXI@Z      0000000140026cb0 f i * CIL library *:* CIL module *
 0001:00025cf0       ?removeobj@?$vector@PEAUeditinfo@@@@QEAAXAEBQEAUeditinfo@@@Z 0000000140026cf0 f i octaedit.obj
 0001:00025d90       ??0?$hashset@Uprefab@@@@QEAA@H@Z 0000000140026d90 f i octaedit.obj
 0001:00025e10       ??1?$hashset@Uprefab@@@@QEAA@XZ 0000000140026e10 f i octaedit.obj
 0001:00025ea0       ?growbuf@?$vector@Uvvertw@skelmodel@@@@QEAAXH@Z 0000000140026ea0 f i rendermodel.obj
 0001:00025ea0       ?growbuf@?$vector@Uholdspawn@ctfclientmode@game@@@@QEAAXH@Z 0000000140026ea0 f i client1.obj
 0001:00025ea0       ?growbuf@?$vector@UShaderParam@@@@QEAAXH@Z 0000000140026ea0 f i octaedit.obj
 0001:00025ea0       ?growbuf@?$vector@Upitchdep@skelmodel@@@@QEAAXH@Z 0000000140026ea0 f i rendermodel.obj
 0001:00025ea0       ?growbuf@?$vector@Uvert@skelmodel@@@@QEAAXH@Z 0000000140026ea0 f i rendermodel.obj
 0001:00025f40       ?growbuf@?$vector@G@@QEAAXH@Z 0000000140026f40 f i octaedit.obj
 0001:00025fe0       ?growbuf@?$vector@PEAUeditinfo@@@@QEAAXH@Z 0000000140026fe0 f i octaedit.obj
 0001:00026080       ?growbuf@?$vector@Uvslotmap@@@@QEAAXH@Z 0000000140027080 f i octaedit.obj
 0001:00026120       ??1chain@?$hashset@Uprefab@@@@QEAA@XZ 0000000140027120 f i octaedit.obj
 0001:00026170       ??$remove@PEAD@?$hashset@Uprefab@@@@QEAA_NAEBQEAD@Z 0000000140027170 f i octaedit.obj
 0001:00026280       ??$access@PEAD@?$hashset@Uprefab@@@@QEAAPEAUprefab@@AEBQEAD@Z 0000000140027280 f i octaedit.obj
 0001:00026310       ??$?APEAD@?$hashset@Uprefab@@@@QEAAAEAUprefab@@AEBQEAD@Z 0000000140027310 f i octaedit.obj
 0001:000263a0       ?get@?$databuf@E@@QEAAHPEAEH@Z 00000001400273a0 f i octaedit.obj
 0001:000263f0       ?insert@?$hashset@Uprefab@@@@QEAAPEAUchain@1@I@Z 00000001400273f0 f i octaedit.obj
 0001:000264f0       ??0chain@?$hashset@Uprefab@@@@QEAA@XZ 00000001400274f0 f i octaedit.obj
 0001:00026520       ?growbuf@?$vector@D@@QEAAXH@Z 0000000140027520 f i worldio.obj
 0001:00026520       ?growbuf@?$vector@E@@QEAAXH@Z 0000000140027520 f i octaedit.obj
 0001:000265b0       ?add@?$vector@E@@QEAAAEAEAEBE@Z 00000001400275b0 f i octaedit.obj
 0001:00026600       ??_Gg3d_callback@@UEAAPEAXI@Z 0000000140027600 f i octaedit.obj
 0001:00026600       ??_Eg3d_callback@@UEAAPEAXI@Z 0000000140027600 f i * CIL library *:* CIL module *
 0001:00026630       ??1g3d_callback@@UEAA@XZ   0000000140027630 f i octaedit.obj
 0001:00026640       ??1VSlot@@QEAA@XZ          0000000140027640 f i octaedit.obj
 0001:00026680       ?reset@VSlot@@QEAAXXZ      0000000140027680 f i octaedit.obj
 0001:00026730       ??0VSlot@@QEAA@PEAUSlot@@H@Z 0000000140027730 f i octaedit.obj
 0001:000267b0       ?set@Shader@@QEAAXXZ       00000001400277b0 f i octaedit.obj
 0001:000267f0       ??1?$hashtable@IUvboinfo@@@@QEAA@XZ 00000001400277f0 f i octarender.obj
 0001:00026870       ?addvert@verthash@@QEAAHAEBUvertex@@@Z 0000000140027870 f i octarender.obj
 0001:000269f0       ?remapunlit@vacollect@@QEAAXAEAU?$vector@Usortkey@@@@@Z 00000001400279f0 f i octarender.obj
 0001:000272a0       ?optimize@vacollect@@QEAAXXZ 00000001400282a0 f i octarender.obj
 0001:000276e0       ?texsort@vacollect@@SA_NAEBUsortkey@@0@Z 00000001400286e0 f i octarender.obj
 0001:00027820       ?genverts@vacollect@@QEAAXPEAX@Z 0000000140028820 f i octarender.obj
 0001:00027920       ?setupdata@vacollect@@QEAAXPEAUvtxarray@@@Z 0000000140028920 f i octarender.obj
 0001:00028180       ??0vacollect@@QEAA@XZ      0000000140029180 f i octarender.obj
 0001:00028280       ??1vacollect@@QEAA@XZ      0000000140029280 f i octarender.obj
 0001:000283b0       ??1verthash@@QEAA@XZ       00000001400293b0 f i octarender.obj
 0001:00028420       ??1?$hashtable@Usortkey@@Usortval@@@@QEAA@XZ 0000000140029420 f i octarender.obj
 0001:00028460       ??1?$hashtable@Uedgegroup@@H@@QEAA@XZ 0000000140029460 f i octarender.obj
 0001:000284e0       ??1vtxarray@@QEAA@XZ       00000001400294e0 f i octarender.obj
 0001:00028560       ?removeobj@?$vector@PEAUmesh@animmodel@@@@QEAAXAEBQEAUmesh@animmodel@@@Z 0000000140029560 f i rendermodel.obj
 0001:00028560       ?removeobj@?$vector@PEAUclientinfo@server@@@@QEAAXAEBQEAUclientinfo@server@@@Z 0000000140029560 f i server1.obj
 0001:00028560       ?removeobj@?$vector@PEAUvtxarray@@@@QEAAXAEBQEAUvtxarray@@@Z 0000000140029560 f i octarender.obj
 0001:000285f0       ??1?$hashset@U?$hashtableentry@IUvboinfo@@@@@@QEAA@XZ 00000001400295f0 f i octarender.obj
 0001:00028650       ??A?$hashtable@Usortkey@@Usortval@@@@QEAAAEAUsortval@@AEBUsortkey@@@Z 0000000140029650 f i octarender.obj
 0001:000286f0       ??1?$hashset@U?$hashtableentry@Usortkey@@Usortval@@@@@@QEAA@XZ 00000001400296f0 f i octarender.obj
 0001:00028720       ?clear@?$hashset@U?$hashtableentry@Usortkey@@Usortval@@@@@@QEAAXXZ 0000000140029720 f i octarender.obj
 0001:000287c0       ?removeobj@?$vector@Usortkey@@@@QEAAXAEBUsortkey@@@Z 00000001400297c0 f i octarender.obj
 0001:000288d0       ??1?$hashset@U?$hashtableentry@Uedgegroup@@H@@@@QEAA@XZ 00000001400298d0 f i octarender.obj
 0001:00028930       ?move@?$vector@Umergedface@@@@QEAAXAEAU1@@Z 0000000140029930 f i octarender.obj
 0001:000289c0       ?growbuf@?$vector@Ugrasstri@@@@QEAAXH@Z 00000001400299c0 f i octarender.obj
 0001:00028a60       ?growbuf@?$vector@Utjoint@@@@QEAAXH@Z 0000000140029a60 f i octarender.obj
 0001:00028b00       ??0?$hashset@U?$hashtableentry@IUvboinfo@@@@@@QEAA@H@Z 0000000140029b00 f i octarender.obj
 0001:00028b80       ?growbuf@?$vector@Utoken@collectservmode@server@@@@QEAAXH@Z 0000000140029b80 f i server1.obj
 0001:00028b80       ?growbuf@?$vector@Umaterialsurface@@@@QEAAXH@Z 0000000140029b80 f i material.obj
 0001:00028b80       ?growbuf@?$vector@Uvertex@@@@QEAAXH@Z 0000000140029b80 f i octarender.obj
 0001:00028b80       ?growbuf@?$vector@Ublendcombo@skelmodel@@@@QEAAXH@Z 0000000140029b80 f i rendermodel.obj
 0001:00028b80       ?growbuf@?$vector@Udualquat@@@@QEAAXH@Z 0000000140029b80 f i rendermodel.obj
 0001:00028b80       ?growbuf@?$vector@Upitchcorrect@skelmodel@@@@QEAAXH@Z 0000000140029b80 f i rendermodel.obj
 0001:00028b80       ?growbuf@?$vector@Umergedface@@@@QEAAXH@Z 0000000140029b80 f i octarender.obj
 0001:00028c20       ??0?$hashset@U?$hashtableentry@Usortkey@@Usortval@@@@@@QEAA@H@Z 0000000140029c20 f i octarender.obj
 0001:00028cb0       ?deletechunks@?$hashset@U?$hashtableentry@Usortkey@@Usortval@@@@@@QEAAXXZ 0000000140029cb0 f i octarender.obj
 0001:00028d30       ?growbuf@?$vector@Usortkey@@@@QEAAXH@Z 0000000140029d30 f i octarender.obj
 0001:00028dd0       ?growbuf@?$vector@Ucubeedge@@@@QEAAXH@Z 0000000140029dd0 f i octarender.obj
 0001:00028e70       ??0?$hashset@U?$hashtableentry@Uedgegroup@@H@@@@QEAA@H@Z 0000000140029e70 f i octarender.obj
 0001:00028ef0       ??1chain@?$hashset@U?$hashtableentry@Usortkey@@Usortval@@@@@@QEAA@XZ 0000000140029ef0 f i octarender.obj
 0001:00028f30       ??1?$hashtableentry@Usortkey@@Usortval@@@@QEAA@XZ 0000000140029f30 f i octarender.obj
 0001:00028f70       ??1sortval@@QEAA@XZ        0000000140029f70 f i octarender.obj
 0001:00028fa0       ?insert@?$hashset@U?$hashtableentry@IUvboinfo@@@@@@QEAAPEAUchain@1@I@Z 0000000140029fa0 f i octarender.obj
 0001:00029130       ?insert@?$hashset@U?$hashtableentry@Usortkey@@Usortval@@@@@@QEAAPEAUchain@1@I@Z 000000014002a130 f i octarender.obj
 0001:000292e0       ?insert@?$hashset@U?$hashtableentry@Uedgegroup@@H@@@@QEAAPEAUchain@1@I@Z 000000014002a2e0 f i octarender.obj
 0001:000293b0       ??0chain@?$hashset@U?$hashtableentry@Usortkey@@Usortval@@@@@@QEAA@XZ 000000014002a3b0 f i octarender.obj
 0001:00029410       ?supportpoint@CubePlanes@mpr@@QEBA?AUvec@@AEBU3@@Z 000000014002a410 f i physics.obj
 0001:000295c0       ?contactface@EntOBB@mpr@@QEBA?AUvec@@AEBU3@0@Z 000000014002a5c0 f i physics.obj
 0001:00029860       ?supportpoint@EntOBB@mpr@@QEBA?AUvec@@AEBU3@@Z 000000014002a860 f i physics.obj
 0001:000299b0       ?right@EntOBB@mpr@@QEBAMXZ 000000014002a9b0 f i physics.obj
 0001:00029a30       ?front@EntOBB@mpr@@QEBAMXZ 000000014002aa30 f i physics.obj
 0001:00029ab0       ?supportpoint@EntCapsule@mpr@@QEBA?AUvec@@AEBU3@@Z 000000014002aab0 f i physics.obj
 0001:00029b90       ??0Model@mpr@@QEAA@AEBUvec@@00H@Z 000000014002ab90 f i physics.obj
 0001:00029cf0       ?contactface@ModelOBB@mpr@@QEBA?AUvec@@AEBU3@0@Z 000000014002acf0 f i physics.obj
 0001:00029f80       ?supportpoint@ModelOBB@mpr@@QEBA?AUvec@@AEBU3@@Z 000000014002af80 f i physics.obj
 0001:0002a0c0       ?contactface@ModelEllipse@mpr@@QEBA?AUvec@@AEBU3@0@Z 000000014002b0c0 f i physics.obj
 0001:0002a340       ?supportpoint@ModelEllipse@mpr@@QEBA?AUvec@@AEBU3@@Z 000000014002b340 f i physics.obj
 0001:0002a4c0       ??0dynentcacheentry@@QEAA@XZ 000000014002b4c0 f i physics.obj
 0001:0002a4f0       ??1dynentcacheentry@@QEAA@XZ 000000014002b4f0 f i physics.obj
 0001:0002a520       ?growbuf@?$vector@Uplatforment@@@@QEAAXH@Z 000000014002b520 f i physics.obj
 0001:0002a5c0       ?growbuf@?$vector@Uplatformcollision@@@@QEAAXH@Z 000000014002b5c0 f i physics.obj
 0001:0002a660       ??$collide@UEntOBB@mpr@@U12@@mpr@@YA_NAEBUEntOBB@0@0PEAUvec@@11@Z 000000014002b660 f i physics.obj
 0001:0002b680       ??$collide@UEntOBB@mpr@@UEntCylinder@2@@mpr@@YA_NAEBUEntOBB@0@AEBUEntCylinder@0@PEAUvec@@22@Z 000000014002c680 f i physics.obj
 0001:0002c8f0       ??$collide@UEntOBB@mpr@@UModelEllipse@2@@mpr@@YA_NAEBUEntOBB@0@AEBUModelEllipse@0@PEAUvec@@22@Z 000000014002d8f0 f i physics.obj
 0001:0002d8f0       ??$collide@UEntOBB@mpr@@UModelOBB@2@@mpr@@YA_NAEBUEntOBB@0@AEBUModelOBB@0@PEAUvec@@22@Z 000000014002e8f0 f i physics.obj
 0001:0002e8f0       ??$collide@USolidCube@mpr@@UEntOBB@2@@mpr@@YA_NAEBUSolidCube@0@AEBUEntOBB@0@@Z 000000014002f8f0 f i physics.obj
 0001:0002f630       ??$collide@UCubePlanes@mpr@@UEntOBB@2@@mpr@@YA_NAEBUCubePlanes@0@AEBUEntOBB@0@@Z 0000000140030630 f i physics.obj
 0001:00030240       ??$collide@USolidCube@mpr@@UEntCapsule@2@@mpr@@YA_NAEBUSolidCube@0@AEBUEntCapsule@0@@Z 0000000140031240 f i physics.obj
 0001:00031040       ??$collide@UCubePlanes@mpr@@UEntCapsule@2@@mpr@@YA_NAEBUCubePlanes@0@AEBUEntCapsule@0@@Z 0000000140032040 f i physics.obj
 0001:00031d10       ??0physent@@QEAA@XZ        0000000140032d10 f i physics.obj
 0001:00031dc0       ?rescale@vec@@QEAAAEAU1@M@Z 0000000140032dc0 f i physics.obj
 0001:00031e30       ?collisionbox@model@@QEAAMAEAUvec@@0@Z 0000000140032e30 f i physics.obj
 0001:00031f20       ?calcshaft@shaft@@QEAAXAEBUshaftbb@@0@Z 0000000140032f20 f i pvs.obj
 0001:000321c0       ?inside@shaft@@QEBA_NAEBUshaftbb@@@Z 00000001400331c0 f i pvs.obj
 0001:00032280       ??1?$hashtable@Upvsdata@@H@@QEAA@XZ 0000000140033280 f i pvs.obj
 0001:00032300       ??0pvsworker@@QEAA@XZ      0000000140033300 f i pvs.obj
 0001:00032380       ??1pvsworker@@QEAA@XZ      0000000140033380 f i pvs.obj
 0001:000323d0       ?hasvoxel@pvsworker@@QEAAHAEBUivec@@HHHHPEAH@Z 00000001400333d0 f i pvs.obj
 0001:00032700       ?hidepvs@pvsworker@@QEAAXAEAUpvsnode@@@Z 0000000140033700 f i pvs.obj
 0001:00032780       ?shaftcullpvs@pvsworker@@QEAAXAEAUshaft@@AEAUpvsnode@@AEBUivec@@H@Z 0000000140033780 f i pvs.obj
 0001:00032b00       ?cullpvs@pvsworker@@QEAAXAEAUpvsnode@@AEBUivec@@H@Z 0000000140033b00 f i pvs.obj
 0001:00033ea0       ?compresspvs@pvsworker@@QEAA_NAEAUpvsnode@@HH@Z 0000000140034ea0 f i pvs.obj
 0001:00034020       ?serializepvs@pvsworker@@QEAA_NAEAUpvsnode@@H@Z 0000000140035020 f i pvs.obj
 0001:000342a0       ?materialoccluded@pvsworker@@QEAA_NAEAUpvsnode@@AEBUivec@@H11@Z 00000001400352a0 f i pvs.obj
 0001:000343c0       ?materialoccluded@pvsworker@@QEAA_NAEAU?$vector@PEAUmaterialsurface@@@@@Z 00000001400353c0 f i pvs.obj
 0001:00034600       ?calcpvs@pvsworker@@QEAAXAEBUivec@@H@Z 0000000140035600 f i pvs.obj
 0001:000347c0       ?genviewcell@pvsworker@@QEAAHAEBUivec@@H@Z 00000001400357c0 f i pvs.obj
 0001:00034af0       ?run@pvsworker@@SAHPEAX@Z  0000000140035af0 f i pvs.obj
 0001:00034bb0       ??_Gviewcellnode@@QEAAPEAXI@Z 0000000140035bb0 f i pvs.obj
 0001:00034c20       ?add@?$vector@Upvsnode@@@@QEAAAEAUpvsnode@@XZ 0000000140035c20 f i pvs.obj
 0001:00034c90       ??A?$hashtable@Upvsdata@@H@@QEAAAEAHAEBUpvsdata@@@Z 0000000140035c90 f i pvs.obj
 0001:00034d60       ??1?$hashset@U?$hashtableentry@Upvsdata@@H@@@@QEAA@XZ 0000000140035d60 f i pvs.obj
 0001:00034dc0       ?add@?$vector@Uviewcellrequest@@@@QEAAAEAUviewcellrequest@@XZ 0000000140035dc0 f i pvs.obj
 0001:00034e40       ?deletecontents@?$vector@PEAUpvsworker@@@@QEAAXXZ 0000000140035e40 f i pvs.obj
 0001:00034ed0       ?growbuf@?$vector@Upvsnode@@@@QEAAXH@Z 0000000140035ed0 f i pvs.obj
 0001:00034f70       ??0?$hashset@U?$hashtableentry@Upvsdata@@H@@@@QEAA@H@Z 0000000140035f70 f i pvs.obj
 0001:00034ff0       ?growbuf@?$vector@Upvsdata@@@@QEAAXH@Z 0000000140035ff0 f i pvs.obj
 0001:00035090       ?growbuf@?$vector@Uviewcellrequest@@@@QEAAXH@Z 0000000140036090 f i pvs.obj
 0001:00035130       ?growbuf@?$vector@PEAUpvsworker@@@@QEAAXH@Z 0000000140036130 f i pvs.obj
 0001:000351d0       ?insert@?$hashset@U?$hashtableentry@Upvsdata@@H@@@@QEAAPEAUchain@1@I@Z 00000001400361d0 f i pvs.obj
 0001:000352a0       ??$getlil@H@stream@@QEAAHXZ 00000001400362a0 f i pvs.obj
 0001:000352d0       ??$getlil@G@stream@@QEAAGXZ 00000001400362d0 f i pvs.obj
 0001:00035300       ?removeobj@?$vector@H@@QEAAXAEBH@Z 0000000140036300 f i world.obj
 0001:00035390       ?add@?$vector@Uentity@@@@QEAAAEAUentity@@AEBU2@@Z 0000000140036390 f i world.obj
 0001:00035410       ?growbuf@?$vector@Uzipfile@@@@QEAAXH@Z 0000000140036410 f i zip.obj
 0001:00035410       ?growbuf@?$vector@Ubase@collectservmode@server@@@@QEAAXH@Z 0000000140036410 f i server1.obj
 0001:00035410       ?growbuf@?$vector@Uentity@@@@QEAAXH@Z 0000000140036410 f i world.obj
 0001:00035410       ?growbuf@?$vector@Uskeladjustment@@@@QEAAXH@Z 0000000140036410 f i rendermodel.obj
 0001:00035410       ?growbuf@?$vector@Uaistate@ai@@@@QEAAXH@Z 0000000140036410 f i ai.obj
 0001:000354b0       ?rotate@vec@@QEAAAEAU1@MMAEBU1@@Z 00000001400364b0 f i world.obj
 0001:00035660       ?concatstring@@YAPEADPEADPEBD_K@Z 0000000140036660 f i world.obj
 0001:000356c0       ??1?$hashtable@Uvec2@@H@@QEAA@XZ 00000001400366c0 f i worldio.obj
 0001:000356c0       ??1?$hashtable@Uivec@@H@@QEAA@XZ 00000001400366c0 f i rendermodel.obj
 0001:000356c0       ??1?$hashtable@Uvec@@H@@QEAA@XZ 00000001400366c0 f i worldio.obj
 0001:00035730       ??1?$hashtable@HU?$vector@Uivec@@@@@@QEAA@XZ 0000000140036730 f i worldio.obj
 0001:00035770       ?add@?$vector@Uentity@@@@QEAAAEAUentity@@XZ 0000000140036770 f i worldio.obj
 0001:000357f0       ??1?$hashset@U?$hashtableentry@HU?$vector@Uivec@@@@@@@@QEAA@XZ 00000001400367f0 f i worldio.obj
 0001:00035820       ?growbuf@?$vector@PEAUVSlot@@@@QEAAXH@Z 0000000140036820 f i worldio.obj
 0001:000358c0       ?growbuf@?$vector@Usoundconfig@@@@QEAAXH@Z 00000001400368c0 f i sound.obj
 0001:000358c0       ?growbuf@?$vector@Uvec@@@@QEAAXH@Z 00000001400368c0 f i worldio.obj
 0001:000358c0       ?growbuf@?$vector@Uivec@@@@QEAAXH@Z 00000001400368c0 f i worldio.obj
 0001:000358c0       ?growbuf@?$vector@Uholdspawn@ctfservmode@server@@@@QEAAXH@Z 00000001400368c0 f i server1.obj
 0001:000358c0       ?growbuf@?$vector@Utri@ragdollskel@@@@QEAAXH@Z 00000001400368c0 f i rendermodel.obj
 0001:00035960       ?deletechunks@?$hashset@U?$hashtableentry@HU?$vector@Uivec@@@@@@@@QEAAXXZ 0000000140036960 f i worldio.obj
 0001:000359f0       ??1chain@?$hashset@U?$hashtableentry@HU?$vector@Uivec@@@@@@@@QEAA@XZ 00000001400369f0 f i worldio.obj
 0001:00035a30       ??1?$hashtableentry@HU?$vector@Uivec@@@@@@QEAA@XZ 0000000140036a30 f i worldio.obj
 0001:00035a70       ?insert@?$hashset@U?$hashtableentry@HU?$vector@Uivec@@@@@@@@QEAAPEAUchain@1@I@Z 0000000140036a70 f i worldio.obj
 0001:00035c20       ??0chain@?$hashset@U?$hashtableentry@HU?$vector@Uivec@@@@@@@@QEAA@XZ 0000000140036c20 f i worldio.obj
 0001:00035c50       ??$getlil@M@stream@@QEAAMXZ 0000000140036c50 f i worldio.obj
 0001:00035c80       ??1packetbuf@@QEAA@XZ      0000000140036c80 f i client.obj
 0001:00035cc0       ?put@?$vector@D@@QEAAXPEBDH@Z 0000000140036cc0 f i server.obj
 0001:00035d10       ?growbuf@?$vector@PEAUclient@@@@QEAAXH@Z 0000000140036d10 f i server.obj
 0001:00035db0       ?subbuf@packetbuf@@QEAA?AU?$databuf@E@@H@Z 0000000140036db0 f i server.obj
 0001:00035e50       ?put@packetbuf@@QEAAXPEBEH@Z 0000000140036e50 f i server.obj
 0001:00035f00       ?checkdecay@serverinfo@@QEAAXH@Z 0000000140036f00 f i serverbrowser.obj
 0001:00035f80       ?addping@serverinfo@@QEAAXHH@Z 0000000140036f80 f i serverbrowser.obj
 0001:00036030       ?compare@serverinfo@@SA_NPEAU1@0@Z 0000000140037030 f i serverbrowser.obj
 0001:00036100       ??_Gserverinfo@@QEAAPEAXI@Z 0000000140037100 f i serverbrowser.obj
 0001:00036160       ?deletecontents@?$vector@PEAUserverinfo@@@@QEAAXXZ 0000000140037160 f i serverbrowser.obj
 0001:000361f0       ?growbuf@?$vector@Uresolverthread@@@@QEAAXH@Z 00000001400371f0 f i serverbrowser.obj
 0001:00036290       ?growbuf@?$vector@Uresolverresult@@@@QEAAXH@Z 0000000140037290 f i serverbrowser.obj
 0001:00036330       ?growbuf@?$vector@PEAUserverinfo@@@@QEAAXH@Z 0000000140037330 f i serverbrowser.obj
 0001:000363d0       ?grow@editline@@QEAA_NHPEBDZZ 00000001400373d0 f i 3dgui.obj
 0001:00036480       ?set@editline@@QEAAXPEBDH@Z 0000000140037480 f i 3dgui.obj
 0001:00036520       ?prepend@editline@@QEAAXPEBD@Z 0000000140037520 f i 3dgui.obj
 0001:000365c0       ?append@editline@@QEAAXPEBD@Z 00000001400375c0 f i 3dgui.obj
 0001:00036640       ?read@editline@@QEAA_NPEAUstream@@H@Z 0000000140037640 f i 3dgui.obj
 0001:000367c0       ?del@editline@@QEAAXHH@Z   00000001400377c0 f i 3dgui.obj
 0001:00036830       ?insert@editline@@QEAAXPEADHH@Z 0000000140037830 f i 3dgui.obj
 0001:00036900       ?combinelines@editline@@QEAAXAEAU?$vector@Ueditline@@@@@Z 0000000140037900 f i 3dgui.obj
 0001:00036a20       ??0editor@@QEAA@PEBDH0@Z   0000000140037a20 f i 3dgui.obj
 0001:00036b30       ??1editor@@QEAA@XZ         0000000140037b30 f i 3dgui.obj
 0001:00036c10       ?clear@editor@@QEAAXPEBD@Z 0000000140037c10 f i 3dgui.obj
 0001:00036d30       ?setfile@editor@@QEAAXPEBD@Z 0000000140037d30 f i 3dgui.obj
 0001:00036d80       ?load@editor@@QEAAXXZ      0000000140037d80 f i 3dgui.obj
 0001:00036f10       ?save@editor@@QEAAXXZ      0000000140037f10 f i 3dgui.obj
 0001:00036f90       ?region@editor@@QEAA_NXZ   0000000140037f90 f i 3dgui.obj
 0001:00037080       ?currentline@editor@@QEAAAEAUeditline@@XZ 0000000140038080 f i 3dgui.obj
 0001:000370d0       ?copyselectionto@editor@@QEAAXPEAU1@@Z 00000001400380d0 f i 3dgui.obj
 0001:000373d0       ?tostring@editor@@QEAAPEADXZ 00000001400383d0 f i 3dgui.obj
 0001:000374a0       ?selectiontostring@editor@@QEAAPEADXZ 00000001400384a0 f i 3dgui.obj
 0001:000378c0       ?removelines@editor@@QEAAXHH@Z 00000001400388c0 f i 3dgui.obj
 0001:00037990       ?del@editor@@QEAA_NXZ      0000000140038990 f i 3dgui.obj
 0001:00037c40       ?insert@editor@@QEAAXD@Z   0000000140038c40 f i 3dgui.obj
 0001:00037e30       ?insert@editor@@QEAAXPEBD@Z 0000000140038e30 f i 3dgui.obj
 0001:000380d0       ?insertallfrom@editor@@QEAAXPEAU1@@Z 00000001400390d0 f i 3dgui.obj
 0001:000382f0       ?key@editor@@QEAAXHH@Z     00000001400392f0 f i 3dgui.obj
 0001:00038720       ?hit@editor@@QEAAXHH_N@Z   0000000140039720 f i 3dgui.obj
 0001:00038850       ?limitscrolly@editor@@QEAAHXZ 0000000140039850 f i 3dgui.obj
 0001:00038930       ?draw@editor@@QEAAXHHH_N@Z 0000000140039930 f i 3dgui.obj
 0001:000391f0       ?allowautotab@gui@@UEAA_N_N@Z 000000014003a1f0 f i 3dgui.obj
 0001:00039200       ?autotab@gui@@QEAAXXZ      000000014003a200 f i 3dgui.obj
 0001:00039280       ?shouldtab@gui@@UEAA_NXZ   000000014003a280 f i 3dgui.obj
 0001:00039340       ?tab@gui@@UEAAXPEBDH@Z     000000014003a340 f i 3dgui.obj
 0001:00039610       ?pushlist@gui@@UEAAXXZ     000000014003a610 f i 3dgui.obj
 0001:000397b0       ?poplist@gui@@UEAAXXZ      000000014003a7b0 f i 3dgui.obj
 0001:000398e0       ?text@gui@@UEAAHPEBDH0@Z   000000014003a8e0 f i 3dgui.obj
 0001:00039940       ?button@gui@@UEAAHPEBDH0@Z 000000014003a940 f i 3dgui.obj
 0001:000399a0       ?title@gui@@UEAAHPEBDH0@Z  000000014003a9a0 f i 3dgui.obj
 0001:00039a00       ?separator@gui@@UEAAXXZ    000000014003aa00 f i 3dgui.obj
 0001:00039a40       ?progress@gui@@UEAAXM@Z    000000014003aa40 f i 3dgui.obj
 0001:00039a90       ?strut@gui@@UEAAXM@Z       000000014003aa90 f i 3dgui.obj
 0001:00039ae0       ?space@gui@@UEAAXM@Z       000000014003aae0 f i 3dgui.obj
 0001:00039b30       ?spring@gui@@UEAAXH@Z      000000014003ab30 f i 3dgui.obj
 0001:00039c10       ?column@gui@@UEAAXH@Z      000000014003ac10 f i 3dgui.obj
 0001:00039c40       ?layout@gui@@QEAAHHH@Z     000000014003ac40 f i 3dgui.obj
 0001:00039d30       ?mergehits@gui@@UEAA_N_N@Z 000000014003ad30 f i 3dgui.obj
 0001:00039d40       ?ishit@gui@@QEAA_NHHHH@Z   000000014003ad40 f i 3dgui.obj
 0001:00039e30       ?image@gui@@UEAAHPEAUTexture@@M_N@Z 000000014003ae30 f i 3dgui.obj
 0001:00039f20       ?texture@gui@@UEAAHAEAUVSlot@@M_N@Z 000000014003af20 f i 3dgui.obj
 0001:0003a000       ?playerpreview@gui@@UEAAHHHHM_N@Z 000000014003b000 f i 3dgui.obj
 0001:0003a5f0       ?modelpreview@gui@@UEAAHPEBDHM_N@Z 000000014003b5f0 f i 3dgui.obj
 0001:0003ada0       ?slider@gui@@UEAAXAEAHHHHPEBD@Z 000000014003bda0 f i 3dgui.obj
 0001:0003b0d0       ?field@gui@@UEAAPEADPEBDHHH0H@Z 000000014003c0d0 f i 3dgui.obj
 0001:0003b110       ?keyfield@gui@@UEAAPEADPEBDHHH0H@Z 000000014003c110 f i 3dgui.obj
 0001:0003b150       ?field_@gui@@QEAAPEADPEBDHHH0HH@Z 000000014003c150 f i 3dgui.obj
 0001:0003b750       ?rect_@gui@@QEAAXMMMMH@Z   000000014003c750 f i 3dgui.obj
 0001:0003b850       ?text_@gui@@QEAAXPEBDHHH_N1@Z 000000014003c850 f i 3dgui.obj
 0001:0003b910       ?background@gui@@UEAAXHHH@Z 000000014003c910 f i 3dgui.obj
 0001:0003bb60       ?icon_@gui@@QEAAXPEAUTexture@@_NHHH1@Z 000000014003cb60 f i 3dgui.obj
 0001:0003bdc0       ?previewslot@gui@@QEAAXAEAUVSlot@@_NHHH1@Z 000000014003cdc0 f i 3dgui.obj
 0001:0003c820       ?line_@gui@@QEAAXHM@Z      000000014003d820 f i 3dgui.obj
 0001:0003ca50       ?textbox@gui@@UEAAXPEBDHHH@Z 000000014003da50 f i 3dgui.obj
 0001:0003cb60       ?button_@gui@@QEAAHPEBDH0_N1@Z 000000014003db60 f i 3dgui.obj
 0001:0003ce00       ?drawskin@gui@@SAXHHHHHHHAEBUvec@@M@Z 000000014003de00 f i 3dgui.obj
 0001:0003d360       ?adjustscale@gui@@QEAAXXZ  000000014003e360 f i 3dgui.obj
 0001:0003d4d0       ?start@gui@@UEAAXHMPEAH_N@Z 000000014003e4d0 f i 3dgui.obj
 0001:0003d990       ?adjustcolumns@gui@@QEAAXXZ 000000014003e990 f i 3dgui.obj
 0001:0003db30       ?end@gui@@UEAAXXZ          000000014003eb30 f i 3dgui.obj
 0001:0003dfa0       ?add@?$vector@Ueditline@@@@QEAAAEAUeditline@@XZ 000000014003efa0 f i 3dgui.obj
 0001:0003e000       ?insert@?$vector@Ueditline@@@@QEAAAEAUeditline@@HAEBU2@@Z 000000014003f000 f i 3dgui.obj
 0001:0003e0b0       ?insert@?$vector@PEAUeditor@@@@QEAAAEAPEAUeditor@@HAEBQEAU2@@Z 000000014003f0b0 f i 3dgui.obj
 0001:0003e150       ??_Egui@@UEAAPEAXI@Z       000000014003f150 f i * CIL library *:* CIL module *
 0001:0003e150       ??_Ggui@@UEAAPEAXI@Z       000000014003f150 f i 3dgui.obj
 0001:0003e190       ??1gui@@UEAA@XZ            000000014003f190 f i 3dgui.obj
 0001:0003e1b0       ?growbuf@?$vector@Uskelanimspec@skelmodel@@@@QEAAXH@Z 000000014003f1b0 f i rendermodel.obj
 0001:0003e1b0       ?growbuf@?$vector@UAttribLoc@@@@QEAAXH@Z 000000014003f1b0 f i shader.obj
 0001:0003e1b0       ?growbuf@?$vector@Usoundslot@@@@QEAAXH@Z 000000014003f1b0 f i sound.obj
 0001:0003e1b0       ?growbuf@?$vector@Unode@wpcache@ai@@@@QEAAXH@Z 000000014003f1b0 f i waypoint.obj
 0001:0003e1b0       ?growbuf@?$vector@Ucharinfo@font@@@@QEAAXH@Z 000000014003f1b0 f i rendertext.obj
 0001:0003e1b0       ?growbuf@?$vector@Uaviindexentry@@@@QEAAXH@Z 000000014003f1b0 f i movie.obj
 0001:0003e1b0       ?growbuf@?$vector@Ueditline@@@@QEAAXH@Z 000000014003f1b0 f i 3dgui.obj
 0001:0003e1b0       ?growbuf@?$vector@Uanimspec@animmodel@@@@QEAAXH@Z 000000014003f1b0 f i rendermodel.obj
 0001:0003e1b0       ?growbuf@?$vector@Udistlimit@ragdollskel@@@@QEAAXH@Z 000000014003f1b0 f i rendermodel.obj
 0001:0003e1b0       ?growbuf@?$vector@Uteamscore@@@@QEAAXH@Z 000000014003f1b0 f i client1.obj
 0001:0003e1b0       ?growbuf@?$vector@Uobstacle@avoidset@ai@@@@QEAAXH@Z 000000014003f1b0 f i ai.obj
 0001:0003e250       ?growbuf@?$vector@PEAUeditor@@@@QEAAXH@Z 000000014003f250 f i 3dgui.obj
 0001:0003e2f0       ?growbuf@?$vector@Ulist@gui@@@@QEAAXH@Z 000000014003f2f0 f i 3dgui.obj
 0001:0003e390       ?growbuf@?$vector@Ugui@@@@QEAAXH@Z 000000014003f390 f i 3dgui.obj
 0001:0003e430       ??4gui@@QEAAAEAU0@AEBU0@@Z 000000014003f430 f i 3dgui.obj
 0001:0003e4b0       ??_Gg3d_gui@@UEAAPEAXI@Z   000000014003f4b0 f i 3dgui.obj
 0001:0003e4b0       ??_Eg3d_gui@@UEAAPEAXI@Z   000000014003f4b0 f i * CIL library *:* CIL module *
 0001:0003e4e0       ?keepable@gameevent@server@@UEBA_NXZ 000000014003f4e0 f i server1.obj
 0001:0003e4e0       ?shadowcompare@rendertarget@@UEBA_NXZ 000000014003f4e0 f i glare.obj
 0001:0003e4e0       ?screenview@rendertarget@@UEBA_NXZ 000000014003f4e0 f i glare.obj
 0001:0003e4e0       ?seek@stream@@UEAA_N_JH@Z  000000014003f4e0 f i stream.obj
 0001:0003e4e0       ?shouldtab@g3d_gui@@UEAA_NXZ 000000014003f4e0 f i 3dgui.obj
 0001:0003e4e0       ?skeletal@model@@UEBA_NXZ  000000014003f4e0 f i rendermodel.obj
 0001:0003e4e0       ?hidefrags@servmode@server@@UEAA_NXZ 000000014003f4e0 f i server1.obj
 0001:0003e4e0       ?aipursue@clientmode@game@@UEAA_NPEAUfpsent@@AEAUaistate@ai@@@Z 000000014003f4e0 f i client1.obj
 0001:0003e4e0       ?flipdebug@shadowmaptexture@@UEBA_NXZ 000000014003f4e0 f i shadowmap.obj
 0001:0003e4e0       ?aidefend@clientmode@game@@UEAA_NPEAUfpsent@@AEAUaistate@ai@@@Z 000000014003f4e0 f i client1.obj
 0001:0003e4e0       ?texrect@rendertarget@@UEBA_NXZ 000000014003f4e0 f i glare.obj
 0001:0003e4e0       ?hidefrags@clientmode@game@@UEAA_NXZ 000000014003f4e0 f i client1.obj
 0001:0003e4e0       ?usesvertexarray@partrenderer@@UEAA_NXZ 000000014003f4e0 f i renderparticles.obj
 0001:0003e4e0       ?aicheck@clientmode@game@@UEAA_NPEAUfpsent@@AEAUaistate@ai@@@Z 000000014003f4e0 f i client1.obj
 0001:0003e4e0       ?aicheck@captureclientmode@game@@UEAA_NPEAUfpsent@@AEAUaistate@ai@@@Z 000000014003f4e0 f i client1.obj
 0001:0003e4e0       ?envmapped@model@@UEAA_NXZ 000000014003f4e0 f i rendermodel.obj
 0001:0003e4e0       ?swaptexs@rendertarget@@UEBA_NXZ 000000014003f4e0 f i glare.obj
 0001:0003e4e0       ?extinfoteam@servmode@server@@UEAA_NPEBDAEAU?$databuf@E@@@Z 000000014003f4e0 f i server1.obj
 0001:0003e4f0       _matherr                   000000014003f4f0 f i LIBCMT:matherr.obj
 0001:0003e4f0       ?clipconsole@clientmode@game@@UEAAHHH@Z 000000014003f4f0 f i client1.obj
 0001:0003e4f0       ?loadmeshes@animmodel@@UEAAPEAUmeshgroup@1@PEBDPEAD@Z 000000014003f4f0 f i rendermodel.obj
 0001:0003e4f0       ?modelpreview@g3d_gui@@UEAAHPEBDHM_N@Z 000000014003f4f0 f i 3dgui.obj
 0001:0003e4f0       ?getteamscore@clientmode@game@@UEAAHPEBD@Z 000000014003f4f0 f i client1.obj
 0001:0003e4f0       ?loadanim@skelmeshgroup@skelmodel@@UEAAPEAUskelanimspec@2@PEBD@Z 000000014003f4f0 f i rendermodel.obj
 0001:0003e4f0       ?getcrc@stream@@UEAAIXZ    000000014003f4f0 f i stream.obj
 0001:0003e4f0       ?read@stream@@UEAA_KPEAX_K@Z 000000014003f4f0 f i stream.obj
 0001:0003e4f0       ?setBIH@model@@UEAAPEAUBIH@@XZ 000000014003f4f0 f i rendermodel.obj
 0001:0003e4f0       ?type@md2@@UEBAHXZ         000000014003f4f0 f i rendermodel.obj
 0001:0003e4f0       ?adddepthfx@partrenderer@@UEAAHAEAUvec@@0@Z 000000014003f4f0 f i renderparticles.obj
 0001:0003e4f0       ?getteamscore@servmode@server@@UEAAHPEBD@Z 000000014003f4f0 f i server1.obj
 0001:0003e4f0       ?playerpreview@g3d_gui@@UEAAHHHHM_N@Z 000000014003f4f0 f i 3dgui.obj
 0001:0003e4f0       ?respawnwait@clientmode@game@@UEAAHPEAUfpsent@@@Z 000000014003f4f0 f i client1.obj
 0001:0003e4f0       ?addpart@flarerenderer@@UEAAPEAUparticle@@AEBUvec@@0HHMH@Z 000000014003f4f0 f i renderparticles.obj
 0001:0003e4f0       ?linktype@animmodel@@UEBAHPEAU1@@Z 000000014003f4f0 f i rendermodel.obj
 0001:0003e4f0       ?write@stream@@UEAA_KPEBX_K@Z 000000014003f4f0 f i stream.obj
 0001:0003e500       ??1g3d_gui@@UEAA@XZ        000000014003f500 f i 3dgui.obj
 0001:0003e510       ?newstring@@YAPEADPEBD_K@Z 000000014003f510 f i 3dgui.obj
 0001:0003e580       ?traverse@BIH@@QEAA_NAEBUvec@@00MAEAMHPEAUBIHNode@@MM@Z 000000014003f580 f i bih.obj
 0001:0003ea30       ?traverse@BIH@@QEAA_NAEBUvec@@0MAEAMH@Z 000000014003fa30 f i bih.obj
 0001:0003ebe0       ?init@blobrenderer@@QEAAXH@Z 000000014003fbe0 f i blob.obj
 0001:0003eda0       ?freeblob@blobrenderer@@QEAA_NXZ 000000014003fda0 f i blob.obj
 0001:0003ee10       ?newblob@blobrenderer@@QEAAAEAUblobinfo@@AEBUvec@@M@Z 000000014003fe10 f i blob.obj
 0001:0003eeb0       ?addvert@blobrenderer@@QEAAHAEBUvec@@@Z 000000014003feb0 f i blob.obj
 0001:0003efe0       ?addtris@blobrenderer@@QEAAXPEBUvec@@H@Z 000000014003ffe0 f i blob.obj
 0001:0003f3b0       ?gentris@blobrenderer@@QEAAXAEAUcube@@HAEBUivec@@HPEAUmaterialsurface@@H@Z 00000001400403b0 f i blob.obj
 0001:00040130       ?findmaterials@blobrenderer@@QEAAXPEAUvtxarray@@@Z 0000000140041130 f i blob.obj
 0001:00040300       ?findescaped@blobrenderer@@QEAAXPEAUcube@@AEBUivec@@HH@Z 0000000140041300 f i blob.obj
 0001:00040460       ?gentris@blobrenderer@@QEAAXPEAUcube@@AEBUivec@@HH@Z 0000000140041460 f i blob.obj
 0001:00040760       ?addblob@blobrenderer@@QEAAPEAUblobinfo@@AEBUvec@@MM@Z 0000000140041760 f i blob.obj
 0001:00040980       ?setuprenderstate@blobrenderer@@SAXXZ 0000000140041980 f i blob.obj
 0001:00040a40       ?fadeblob@blobrenderer@@QEAAXPEAUblobinfo@@M@Z 0000000140041a40 f i blob.obj
 0001:00040dc0       ?renderblob@blobrenderer@@QEAAXAEBUvec@@MM@Z 0000000140041dc0 f i blob.obj
 0001:00041070       ??$clip@$0A@@blobrenderer@@SAHPEBUvec@@HMMPEAU1@@Z 0000000140042070 f i blob.obj
 0001:00041490       ??$clip@$00@blobrenderer@@SAHPEBUvec@@HMMPEAU1@@Z 0000000140042490 f i blob.obj
 0001:000418b0       ??$clip@$01@blobrenderer@@SAHPEBUvec@@HMMPEAU1@@Z 00000001400428b0 f i blob.obj
 0001:00041cd0       ??$split@$01@blobrenderer@@SAHPEBUvec@@HMMPEAU1@@Z 0000000140042cd0 f i blob.obj
 0001:000420d0       ?freedecal@decalrenderer@@QEAAHXZ 00000001400430d0 f i decal.obj
 0001:00042140       ?fadedecal@decalrenderer@@QEAAXAEAUdecalinfo@@E@Z 0000000140043140 f i decal.obj
 0001:000422b0       ?clearfadeddecals@decalrenderer@@QEAAXXZ 00000001400432b0 f i decal.obj
 0001:000423b0       ?fadeindecals@decalrenderer@@QEAAXXZ 00000001400433b0 f i decal.obj
 0001:000425f0       ?fadeoutdecals@decalrenderer@@QEAAXXZ 00000001400435f0 f i decal.obj
 0001:000426d0       ?setuprenderstate@decalrenderer@@SAXXZ 00000001400436d0 f i decal.obj
 0001:00042750       ?render@decalrenderer@@QEAAXXZ 0000000140043750 f i decal.obj
 0001:00042a20       ?adddecal@decalrenderer@@QEAAXAEBUvec@@0MAEBUbvec@@H@Z 0000000140043a20 f i decal.obj
 0001:00042e60       ?clip@decalrenderer@@SAHPEBUvec@@HAEBU2@MMPEAU2@@Z 0000000140043e60 f i decal.obj
 0001:000432c0       ?gentris@decalrenderer@@QEAAXAEAUcube@@HAEBUivec@@HPEAUmaterialsurface@@H@Z 00000001400442c0 f i decal.obj
 0001:00044c60       ?findmaterials@decalrenderer@@QEAAXPEAUvtxarray@@@Z 0000000140045c60 f i decal.obj
 0001:00044e10       ?findescaped@decalrenderer@@QEAAXPEAUcube@@AEBUivec@@HH@Z 0000000140045e10 f i decal.obj
 0001:00044f70       ?gentris@decalrenderer@@QEAAXPEAUcube@@AEBUivec@@HH@Z 0000000140045f70 f i decal.obj
 0001:00045260       ?calcradius@dynlight@@QEAAXXZ 0000000140046260 f i dynlight.obj
 0001:00045300       ?calccolor@dynlight@@QEAAXXZ 0000000140046300 f i dynlight.obj
 0001:00045470       ?remove@?$vector@Udynlight@@@@QEAA?AUdynlight@@H@Z 0000000140046470 f i dynlight.obj
 0001:00045570       ?insert@?$vector@Udynlight@@@@QEAAAEAUdynlight@@HAEBU2@@Z 0000000140046570 f i dynlight.obj
 0001:000456f0       ?growbuf@?$vector@Udynlight@@@@QEAAXH@Z 00000001400466f0 f i dynlight.obj
 0001:00045780       ?growbuf@?$vector@PEAUdynlight@@@@QEAAXH@Z 0000000140046780 f i dynlight.obj
 0001:00045820       ??$dist_to_bb@Uivec@@@vec@@QEBAMAEBUivec@@0@Z 0000000140046820 f i dynlight.obj
 0001:000458d0       ??1rendertarget@@UEAA@XZ   00000001400468d0 f i glare.obj
 0001:000458e0       ?attachment@rendertarget@@UEBAIXZ 00000001400468e0 f i glare.obj
 0001:000458f0       ?colorformats@rendertarget@@UEBAPEBIXZ 00000001400468f0 f i glare.obj
 0001:00045900       ?depthformats@rendertarget@@UEBAPEBIXZ 0000000140046900 f i glare.obj
 0001:00045910       ?hidefrags@ctfclientmode@game@@UEAA_NXZ 0000000140046910 f i client1.obj
 0001:00045910       ?usesvertexarray@?$varenderer@$00@@UEAA_NXZ 0000000140046910 f i renderparticles.obj
 0001:00045910       ?dorender@rendertarget@@UEAA_NXZ 0000000140046910 f i glare.obj
 0001:00045910       ?depthtest@rendertarget@@UEBA_NXZ 0000000140046910 f i glare.obj
 0001:00045910       ?shouldrender@rendertarget@@UEAA_NXZ 0000000140046910 f i glare.obj
 0001:00045910       ?hidefrags@collectclientmode@game@@UEAA_NXZ 0000000140046910 f i client1.obj
 0001:00045910       ?hidefrags@captureservmode@server@@UEAA_NXZ 0000000140046910 f i server1.obj
 0001:00045910       ?skeletal@skelmodel@@UEBA_NXZ 0000000140046910 f i rendermodel.obj
 0001:00045910       ?filter@rendertarget@@UEBA_NXZ 0000000140046910 f i glare.obj
 0001:00045910       ?keepable@explodeevent@server@@UEBA_NXZ 0000000140046910 f i server1.obj
 0001:00045910       ?flipdebug@rendertarget@@UEBA_NXZ 0000000140046910 f i glare.obj
 0001:00045910       ?flush@stream@@UEAA_NXZ    0000000140046910 f i stream.obj
 0001:00045910       ?canchangeteam@servmode@server@@UEAA_NPEAUclientinfo@2@PEBD1@Z 0000000140046910 f i server1.obj
 0001:00045910       ?usesvertexarray@?$varenderer@$01@@UEAA_NXZ 0000000140046910 f i renderparticles.obj
 0001:00045910       ?hidefrags@collectservmode@server@@UEAA_NXZ 0000000140046910 f i server1.obj
 0001:00045910       ?canspawn@servmode@server@@UEAA_NPEAUclientinfo@2@_N@Z 0000000140046910 f i server1.obj
 0001:00045910       ?hidefrags@captureclientmode@game@@UEAA_NXZ 0000000140046910 f i client1.obj
 0001:00045910       ?usesvertexarray@?$varenderer@$0A@@@UEAA_NXZ 0000000140046910 f i renderparticles.obj
 0001:00045910       ?loaddefaultparts@animmodel@@UEAA_NXZ 0000000140046910 f i rendermodel.obj
 0001:00045910       ?hidefrags@ctfservmode@server@@UEAA_NXZ 0000000140046910 f i server1.obj
 0001:00045920       ?cleanupblur@rendertarget@@QEAAXXZ 0000000140046920 f i glare.obj
 0001:000459a0       ?setupblur@rendertarget@@QEAAXXZ 00000001400469a0 f i glare.obj
 0001:00045ce0       ?setup@rendertarget@@QEAAXHH@Z 0000000140046ce0 f i glare.obj
 0001:00046120       ?rendertiles@rendertarget@@UEAAXXZ 0000000140047120 f i glare.obj
 0001:00046590       ?blur@rendertarget@@QEAAXHMHHHH_N@Z 0000000140047590 f i glare.obj
 0001:000467f0       ?doblur@rendertarget@@UEAAXHM@Z 00000001400477f0 f i glare.obj
 0001:000468b0       ?scissorrender@rendertarget@@UEAA_NAEAH000@Z 00000001400478b0 f i glare.obj
 0001:00046ac0       ?scissorblur@rendertarget@@UEAA_NAEAH000@Z 0000000140047ac0 f i glare.obj
 0001:00046c90       ?render@rendertarget@@QEAAXHHHM@Z 0000000140047c90 f i glare.obj
 0001:000471d0       ?debug@rendertarget@@QEAAXXZ 00000001400481d0 f i glare.obj
 0001:000473b0       ??_Grendertarget@@UEAAPEAXI@Z 00000001400483b0 f i glare.obj
 0001:000473b0       ??_Erendertarget@@UEAAPEAXI@Z 00000001400483b0 f i * CIL library *:* CIL module *
 0001:000473e0       ?dorender@glaretexture@@UEAA_NXZ 00000001400483e0 f i glare.obj
 0001:000473f0       ??_Eshadowmaptexture@@UEAAPEAXI@Z 00000001400483f0 f i * CIL library *:* CIL module *
 0001:000473f0       ??_Gshadowmaptexture@@UEAAPEAXI@Z 00000001400483f0 f i shadowmap.obj
 0001:000473f0       ??_Eglaretexture@@UEAAPEAXI@Z 00000001400483f0 f i * CIL library *:* CIL module *
 0001:000473f0       ??_Edepthfxtexture@@UEAAPEAXI@Z 00000001400483f0 f i * CIL library *:* CIL module *
 0001:000473f0       ??_Gglaretexture@@UEAAPEAXI@Z 00000001400483f0 f i glare.obj
 0001:000473f0       ??_Gdepthfxtexture@@UEAAPEAXI@Z 00000001400483f0 f i renderparticles.obj
 0001:00047430       ?add@?$vector@Ugrassvert@@@@QEAAAEAUgrassvert@@XZ 0000000140048430 f i grass.obj
 0001:000474a0       ?growbuf@?$vector@Ugrassvert@@@@QEAAXH@Z 00000001400484a0 f i grass.obj
 0001:00047540       ?growbuf@?$vector@Ugrassgroup@@@@QEAAXH@Z 0000000140048540 f i grass.obj
 0001:000475e0       ??1QuadNode@@QEAA@XZ       00000001400485e0 f i material.obj
 0001:000475e0       ?clear@QuadNode@@QEAAXXZ   00000001400485e0 f i material.obj
 0001:00047640       ?insert@QuadNode@@QEAAXHHH@Z 0000000140048640 f i material.obj
 0001:00047790       ?genmatsurfs@QuadNode@@QEAAXGEEHAEAPEAUmaterialsurface@@@Z 0000000140048790 f i material.obj
 0001:00047940       ?compressfind@unionfind@@QEAAHH@Z 0000000140048940 f i material.obj
 0001:00047990       ?unite@unionfind@@QEAAXHH@Z 0000000140048990 f i material.obj
 0001:00047aa0       ??$perspectivetransform@Uvec4@@@glmatrixf@@QEBA?AUvec@@AEBUvec4@@@Z 0000000140048aa0 f i rendergl.obj
 0001:00047bf0       ?clip@glmatrixf@@QEAAXAEBUplane@@AEBU1@@Z 0000000140048bf0 f i rendergl.obj
 0001:00047ce0       ?transposedtransform@glmatrixf@@QEBAXAEBUplane@@AEAU2@@Z 0000000140048ce0 f i rendergl.obj
 0001:00047e00       ?transpose@glmatrixf@@QEAAXXZ 0000000140048e00 f i rendergl.obj
 0001:00047ed0       ?reflectz@glmatrixf@@QEAAXM@Z 0000000140048ed0 f i rendergl.obj
 0001:00047fb0       ??$mul@MM@glmatrixf@@QEAAXQEBM0@Z 0000000140048fb0 f i rendergl.obj
 0001:00048380       ?setupjoints@ragdollskel@@QEAAXXZ 0000000140049380 f i rendermodel.obj
 0001:000488c0       ?setuprotfrictions@ragdollskel@@QEAAXXZ 00000001400498c0 f i rendermodel.obj
 0001:000489e0       ??0ragdolldata@@QEAA@PEAUragdollskel@@M@Z 00000001400499e0 f i rendermodel.obj
 0001:00048b50       ?calcanimjoint@ragdolldata@@QEAAXHAEBUmatrix3x4@@@Z 0000000140049b50 f i rendermodel.obj
 0001:00048ef0       ?calctris@ragdolldata@@QEAAXXZ 0000000140049ef0 f i rendermodel.obj
 0001:00049160       ?calcboundsphere@ragdolldata@@QEAAXXZ 000000014004a160 f i rendermodel.obj
 0001:000492b0       ?init@ragdolldata@@QEAAXPEAUdynent@@@Z 000000014004a2b0 f i rendermodel.obj
 0001:00049430       ?collidevert@ragdolldata@@SA_NAEBUvec@@0M@Z 000000014004a430 f i rendermodel.obj
 0001:000495a0       ?applyrotlimit@ragdolldata@@QEAAXAEAUtri@ragdollskel@@0MAEBUvec@@@Z 000000014004a5a0 f i rendermodel.obj
 0001:0004a1a0       ??_Gragdolldata@@QEAAPEAXI@Z 000000014004b1a0 f i rendermodel.obj
 0001:0004a200       ?setframes@animpos@animmodel@@QEAAXAEBUaniminfo@@@Z 000000014004b200 f i rendermodel.obj
 0001:0004a300       ?setuptmus@skin@animmodel@@QEAAXPEBUanimstate@2@_N@Z 000000014004b300 f i rendermodel.obj
 0001:0004a840       ?setshaderparams@skin@animmodel@@QEAAXPEAUmesh@2@PEBUanimstate@2@_N@Z 000000014004b840 f i rendermodel.obj
 0001:0004af80       ?loadshader@skin@animmodel@@QEAAPEAUShader@@_N0@Z 000000014004bf80 f i rendermodel.obj
 0001:0004b250       ?preloadshader@skin@animmodel@@QEAAXXZ 000000014004c250 f i rendermodel.obj
 0001:0004b460       ?bind@skin@animmodel@@QEAAXPEAUmesh@2@PEBUanimstate@2@@Z 000000014004c460 f i rendermodel.obj
 0001:0004baf0       ??1mesh@animmodel@@UEAA@XZ 000000014004caf0 f i rendermodel.obj
 0001:0004bb20       ?setshader@mesh@animmodel@@UEAAXPEAUShader@@@Z 000000014004cb20 f i rendermodel.obj
 0001:0004bba0       ??1meshgroup@animmodel@@UEAA@XZ 000000014004cba0 f i rendermodel.obj
 0001:0004bc40       ?findtag@meshgroup@animmodel@@UEAAHPEBD@Z 000000014004cc40 f i rendermodel.obj
 0001:0004bc50       ?linktype@md2@@UEBAHPEAUanimmodel@@@Z 000000014004cc50 f i rendermodel.obj
 0001:0004bc50       ?type@md3@@UEBAHXZ         000000014004cc50 f i rendermodel.obj
 0001:0004bc50       ?totalframes@meshgroup@animmodel@@UEBAHXZ 000000014004cc50 f i rendermodel.obj
 0001:0004bc60       ?hasframes@meshgroup@animmodel@@QEBA_NHH@Z 000000014004cc60 f i rendermodel.obj
 0001:0004bca0       ?sharemeshes@animmodel@@QEAAPEAUmeshgroup@1@PEBDZZ 000000014004cca0 f i rendermodel.obj
 0001:0004be40       ??1part@animmodel@@UEAA@XZ 000000014004ce40 f i rendermodel.obj
 0001:0004bf10       ?cleanup@part@animmodel@@UEAAXXZ 000000014004cf10 f i rendermodel.obj
 0001:0004bf30       ?calcbb@part@animmodel@@QEAAXAEAUvec@@0AEBUmatrix3x4@@@Z 000000014004cf30 f i rendermodel.obj
 0001:0004c1e0       ?gentris@part@animmodel@@QEAAXPEAU?$vector@Utri@BIH@@@@AEBUmatrix3x4@@@Z 000000014004d1e0 f i rendermodel.obj
 0001:0004c480       ?link@part@animmodel@@QEAA_NPEAU12@PEBDAEBUvec@@HHPEAU3@@Z 000000014004d480 f i rendermodel.obj
 0001:0004c600       ?unlink@part@animmodel@@QEAA_NPEAU12@@Z 000000014004d600 f i rendermodel.obj
 0001:0004c720       ?initskins@part@animmodel@@QEAAXPEAUTexture@@0H@Z 000000014004d720 f i rendermodel.obj
 0001:0004c850       ?getdefaultanim@part@animmodel@@UEAAXAEAUaniminfo@@HIPEAUdynent@@@Z 000000014004d850 f i rendermodel.obj
 0001:0004c860       ?calcanim@part@animmodel@@QEAA_NHHHHPEAUdynent@@HAEAUaniminfo@@AEAH@Z 000000014004d860 f i rendermodel.obj
 0001:0004cc80       ?render@part@animmodel@@QEAAXHHHMAEBUvec@@0PEAUdynent@@PEAUanimstate@2@@Z 000000014004dc80 f i rendermodel.obj
 0001:0004d740       ?setanim@part@animmodel@@QEAAXHHHHMH@Z 000000014004e740 f i rendermodel.obj
 0001:0004d890       ?render@animmodel@@QEAAXHHHMAEBUvec@@0PEAUdynent@@PEAUmodelattach@@@Z 000000014004e890 f i rendermodel.obj
 0001:0004dc20       ?render@animmodel@@UEAAXHHHAEBUvec@@MMPEAUdynent@@PEAUmodelattach@@00M@Z 000000014004ec20 f i rendermodel.obj
 0001:0004e4a0       ??0animmodel@@QEAA@PEBD@Z  000000014004f4a0 f i rendermodel.obj
 0001:0004e580       ??1animmodel@@UEAA@XZ      000000014004f580 f i rendermodel.obj
 0001:0004e620       ?name@animmodel@@UEBAPEBDXZ 000000014004f620 f i rendermodel.obj
 0001:0004e630       ?cleanup@animmodel@@UEAAXXZ 000000014004f630 f i rendermodel.obj
 0001:0004e6a0       ?gentris@animmodel@@QEAAXPEAU?$vector@Utri@BIH@@@@@Z 000000014004f6a0 f i rendermodel.obj
 0001:0004e8d0       ?preloadBIH@animmodel@@UEAAXXZ 000000014004f8d0 f i rendermodel.obj
 0001:0004e9a0       ?setBIH@animmodel@@UEAAPEAUBIH@@XZ 000000014004f9a0 f i rendermodel.obj
 0001:0004ea50       ?envmapped@animmodel@@UEAA_NXZ 000000014004fa50 f i rendermodel.obj
 0001:0004eb10       ?preloadshaders@animmodel@@UEAAXXZ 000000014004fb10 f i rendermodel.obj
 0001:0004eba0       ?preloadmeshes@animmodel@@UEAAXXZ 000000014004fba0 f i rendermodel.obj
 0001:0004ec00       ?setshader@animmodel@@UEAAXPEAUShader@@@Z 000000014004fc00 f i rendermodel.obj
 0001:0004ec90       ?setenvmap@animmodel@@UEAAXMMPEAUTexture@@@Z 000000014004fc90 f i rendermodel.obj
 0001:0004ed60       ?setspec@animmodel@@UEAAXM@Z 000000014004fd60 f i rendermodel.obj
 0001:0004edf0       ?setambient@animmodel@@UEAAXM@Z 000000014004fdf0 f i rendermodel.obj
 0001:0004ee80       ?setglow@animmodel@@UEAAXMMM@Z 000000014004fe80 f i rendermodel.obj
 0001:0004ef40       ?setglare@animmodel@@UEAAXMM@Z 000000014004ff40 f i rendermodel.obj
 0001:0004efe0       ?setalphatest@animmodel@@UEAAXM@Z 000000014004ffe0 f i rendermodel.obj
 0001:0004f070       ?setalphablend@animmodel@@UEAAX_N@Z 0000000140050070 f i rendermodel.obj
 0001:0004f100       ?setfullbright@animmodel@@UEAAXM@Z 0000000140050100 f i rendermodel.obj
 0001:0004f190       ?setcullface@animmodel@@UEAAX_N@Z 0000000140050190 f i rendermodel.obj
 0001:0004f220       ?calcbb@animmodel@@UEAAXAEAUvec@@0@Z 0000000140050220 f i rendermodel.obj
 0001:0004f520       ?startrender@animmodel@@UEAAXXZ 0000000140050520 f i rendermodel.obj
 0001:0004f6a0       ?disabletc@animmodel@@SAXXZ 00000001400506a0 f i rendermodel.obj
 0001:0004f6f0       ?disablevbo@animmodel@@SAXXZ 00000001400506f0 f i rendermodel.obj
 0001:0004f810       ?disableglow@animmodel@@SAXXZ 0000000140050810 f i rendermodel.obj
 0001:0004f870       ?endrender@animmodel@@UEAAXXZ 0000000140050870 f i rendermodel.obj
 0001:0004fa20       ??_Gmesh@animmodel@@UEAAPEAXI@Z 0000000140050a20 f i rendermodel.obj
 0001:0004fa20       ??_Emesh@animmodel@@UEAAPEAXI@Z 0000000140050a20 f i * CIL library *:* CIL module *
 0001:0004fa70       ??_Emeshgroup@animmodel@@UEAAPEAXI@Z 0000000140050a70 f i * CIL library *:* CIL module *
 0001:0004fa70       ??_Gmeshgroup@animmodel@@UEAAPEAXI@Z 0000000140050a70 f i rendermodel.obj
 0001:0004fab0       ??1?$hashtable@PEBDPEAUmeshgroup@animmodel@@@@QEAA@XZ 0000000140050ab0 f i rendermodel.obj
 0001:0004fb30       ??_Gpart@animmodel@@UEAAPEAXI@Z 0000000140050b30 f i rendermodel.obj
 0001:0004fb30       ??_Epart@animmodel@@UEAAPEAXI@Z 0000000140050b30 f i * CIL library *:* CIL module *
 0001:0004fb70       ??_Ganimmodel@@UEAAPEAXI@Z 0000000140050b70 f i rendermodel.obj
 0001:0004fb70       ??_Eanimmodel@@UEAAPEAXI@Z 0000000140050b70 f i * CIL library *:* CIL module *
 0001:0004fbb0       ??1vertmesh@vertmodel@@UEAA@XZ 0000000140050bb0 f i rendermodel.obj
 0001:0004fc50       ?buildnorms@vertmesh@vertmodel@@QEAAX_N@Z 0000000140050c50 f i rendermodel.obj
 0001:0004fcb0       ?calctangents@vertmesh@vertmodel@@QEAAX_N@Z 0000000140050cb0 f i rendermodel.obj
 0001:0004fd80       ?calcbb@vertmesh@vertmodel@@UEAAXAEAUvec@@0AEBUmatrix3x4@@@Z 0000000140050d80 f i rendermodel.obj
 0001:0004feb0       ?gentris@vertmesh@vertmodel@@UEAAXPEAUTexture@@PEAU?$vector@Utri@BIH@@@@AEBUmatrix3x4@@@Z 0000000140050eb0 f i rendermodel.obj
 0001:000501b0       ?comparevert@vertmesh@vertmodel@@QEAA_NAEAUvvertbump@2@HAEAUtcvert@2@AEAUvert@2@@Z 00000001400511b0 f i rendermodel.obj
 0001:00050260       ?genvbo@vertmesh@vertmodel@@QEAAHAEAU?$vector@G@@H@Z 0000000140051260 f i rendermodel.obj
 0001:000503d0       ?interpverts@vertmesh@vertmodel@@QEAAXAEBUanimstate@animmodel@@_N1PEIAXAEAUskin@4@@Z 00000001400513d0 f i rendermodel.obj
 0001:00051540       ?render@vertmesh@vertmodel@@QEAAXPEBUanimstate@animmodel@@AEAUskin@4@AEAUvbocacheentry@2@@Z 0000000140052540 f i rendermodel.obj
 0001:000518b0       ??0videobuffer@recorder@@QEAA@XZ 00000001400528b0 f i movie.obj
 0001:000518b0       ??0tag@vertmodel@@QEAA@XZ  00000001400528b0 f i rendermodel.obj
 0001:000518c0       ??1tag@vertmodel@@QEAA@XZ  00000001400528c0 f i rendermodel.obj
 0001:000518c0       ??1boneinfo@skelmodel@@QEAA@XZ 00000001400528c0 f i rendermodel.obj
 0001:000518c0       ??1soundsample@@QEAA@XZ    00000001400528c0 f i sound.obj
 0001:000518c0       ??1videobuffer@recorder@@QEAA@XZ 00000001400528c0 f i movie.obj
 0001:000518c0       ??1zipfile@@QEAA@XZ        00000001400528c0 f i zip.obj
 0001:000518f0       ??0vertmeshgroup@vertmodel@@QEAA@XZ 00000001400528f0 f i rendermodel.obj
 0001:00051990       ??1vertmeshgroup@vertmodel@@UEAA@XZ 0000000140052990 f i rendermodel.obj
 0001:00051a80       ?findtag@vertmeshgroup@vertmodel@@UEAAHPEBD@Z 0000000140052a80 f i rendermodel.obj
 0001:00051b00       ?totalframes@vertmeshgroup@vertmodel@@UEBAHXZ 0000000140052b00 f i rendermodel.obj
 0001:00051b10       ?concattagtransform@vertmeshgroup@vertmodel@@UEAAXPEAUpart@animmodel@@HAEBUmatrix3x4@@AEAU5@@Z 0000000140052b10 f i rendermodel.obj
 0001:00051c00       ?calctagmatrix@vertmeshgroup@vertmodel@@QEAAXPEAUpart@animmodel@@HAEBUanimstate@4@AEAUglmatrixf@@@Z 0000000140052c00 f i rendermodel.obj
 0001:00051f80       ?genvbo@vertmeshgroup@vertmodel@@QEAAX_N0AEAUvbocacheentry@2@@Z 0000000140052f80 f i rendermodel.obj
 0001:000526b0       ?bindvbo@vertmeshgroup@vertmodel@@QEAAXPEBUanimstate@animmodel@@AEAUvbocacheentry@2@@Z 00000001400536b0 f i rendermodel.obj
 0001:000528d0       ?cleanup@vertmeshgroup@vertmodel@@UEAAXXZ 00000001400538d0 f i rendermodel.obj
 0001:00052980       ?preload@vertmeshgroup@vertmodel@@UEAAXPEAUpart@animmodel@@@Z 0000000140053980 f i rendermodel.obj
 0001:00052ac0       ?render@vertmeshgroup@vertmodel@@UEAAXPEBUanimstate@animmodel@@MAEBUvec@@1PEAUdynent@@PEAUpart@4@@Z 0000000140053ac0 f i rendermodel.obj
 0001:00052f90       ??_Evertmesh@vertmodel@@UEAAPEAXI@Z 0000000140053f90 f i * CIL library *:* CIL module *
 0001:00052f90       ??_Gvertmesh@vertmodel@@UEAAPEAXI@Z 0000000140053f90 f i rendermodel.obj
 0001:00052fd0       ??_Evertmeshgroup@vertmodel@@UEAAPEAXI@Z 0000000140053fd0 f i * CIL library *:* CIL module *
 0001:00052fd0       ??_Gvertmeshgroup@vertmodel@@UEAAPEAXI@Z 0000000140053fd0 f i rendermodel.obj
 0001:00053010       ??_Gvertmodel@@UEAAPEAXI@Z 0000000140054010 f i rendermodel.obj
 0001:00053010       ??_Eskelmodel@@UEAAPEAXI@Z 0000000140054010 f i * CIL library *:* CIL module *
 0001:00053010       ??_Gskelmodel@@UEAAPEAXI@Z 0000000140054010 f i rendermodel.obj
 0001:00053010       ??_Evertmodel@@UEAAPEAXI@Z 0000000140054010 f i * CIL library *:* CIL module *
 0001:00053060       ??1skelmodel@@UEAA@XZ      0000000140054060 f i rendermodel.obj
 0001:00053060       ??1vertmodel@@UEAA@XZ      0000000140054060 f i rendermodel.obj
 0001:00053080       ?sortcmp@blendcombo@skelmodel@@SA_NAEBU12@0@Z 0000000140054080 f i rendermodel.obj
 0001:000530c0       ?addweight@blendcombo@skelmodel@@QEAAHHMH@Z 00000001400540c0 f i rendermodel.obj
 0001:00053210       ?finalize@blendcombo@skelmodel@@QEAAXH@Z 0000000140054210 f i rendermodel.obj
 0001:00053330       ?serialize@blendcombo@skelmodel@@QEAAXAEAUvvertw@2@@Z 0000000140054330 f i rendermodel.obj
 0001:00053520       ??1skelmesh@skelmodel@@UEAA@XZ 0000000140054520 f i rendermodel.obj
 0001:000535b0       ?calctangents@skelmesh@skelmodel@@QEAAX_N@Z 00000001400545b0 f i rendermodel.obj
 0001:00053630       ?calcbb@skelmesh@skelmodel@@UEAAXAEAUvec@@0AEBUmatrix3x4@@@Z 0000000140054630 f i rendermodel.obj
 0001:00053760       ?gentris@skelmesh@skelmodel@@UEAAXPEAUTexture@@PEAU?$vector@Utri@BIH@@@@AEBUmatrix3x4@@@Z 0000000140054760 f i rendermodel.obj
 0001:00053a50       ?comparevert@skelmesh@skelmodel@@QEAA_NAEAUvvertbump@2@HAEAUvert@2@@Z 0000000140054a50 f i rendermodel.obj
 0001:00053b00       ?assignvert@skelmesh@skelmodel@@QEAAXAEAUvvertbumpw@2@HAEAUvert@2@AEAUblendcombo@2@@Z 0000000140054b00 f i rendermodel.obj
 0001:00053bb0       ?genvbo@skelmesh@skelmodel@@QEAAHAEAU?$vector@G@@H@Z 0000000140054bb0 f i rendermodel.obj
 0001:00053d60       ?setshader@skelmesh@skelmodel@@UEAAXPEAUShader@@@Z 0000000140054d60 f i rendermodel.obj
 0001:00053ef0       ?render@skelmesh@skelmodel@@QEAAXPEBUanimstate@animmodel@@AEAUskin@4@AEAUvbocacheentry@2@@Z 0000000140054ef0 f i rendermodel.obj
 0001:00054290       ??0boneinfo@skelmodel@@QEAA@XZ 0000000140055290 f i rendermodel.obj
 0001:000542d0       ??0skeleton@skelmodel@@QEAA@XZ 00000001400552d0 f i rendermodel.obj
 0001:00054380       ??1skeleton@skelmodel@@QEAA@XZ 0000000140055380 f i rendermodel.obj
 0001:00054650       ?findskelanim@skeleton@skelmodel@@QEAAPEAUskelanimspec@2@PEBDD@Z 0000000140055650 f i rendermodel.obj
 0001:00054740       ?addskelanim@skeleton@skelmodel@@QEAAAEAUskelanimspec@2@PEBD@Z 0000000140055740 f i rendermodel.obj
 0001:000547d0       ?findbone@skeleton@skelmodel@@QEAAHPEBD@Z 00000001400557d0 f i rendermodel.obj
 0001:00054840       ?findtag@skeleton@skelmodel@@QEAAHPEBD@Z 0000000140055840 f i rendermodel.obj
 0001:000548c0       ?addtag@skeleton@skelmodel@@QEAA_NPEBDHAEBUmatrix3x4@@@Z 00000001400558c0 f i rendermodel.obj
 0001:000549c0       ?calcantipodes@skeleton@skelmodel@@QEAAXXZ 00000001400559c0 f i rendermodel.obj
 0001:00054de0       ?remapbones@skeleton@skelmodel@@QEAAXXZ 0000000140055de0 f i rendermodel.obj
 0001:00055270       ?addpitchdep@skeleton@skelmodel@@QEAAXHH@Z 0000000140056270 f i rendermodel.obj
 0001:00055350       ?findpitchcorrect@skeleton@skelmodel@@QEAAHH@Z 0000000140056350 f i rendermodel.obj
 0001:000553a0       ?initpitchdeps@skeleton@skelmodel@@QEAAXXZ 00000001400563a0 f i rendermodel.obj
 0001:00055880       ?expandbonemask@skeleton@skelmodel@@QEAAXPEAEHH@Z 0000000140056880 f i rendermodel.obj
 0001:00055900       ?applybonemask@skeleton@skelmodel@@QEAAXPEAGPEAEH@Z 0000000140056900 f i rendermodel.obj
 0001:00055a30       ?linkchildren@skeleton@skelmodel@@QEAAXXZ 0000000140056a30 f i rendermodel.obj
 0001:00055a90       ?availgpubones@skeleton@skelmodel@@QEBAHXZ 0000000140056a90 f i rendermodel.obj
 0001:00055ae0       ?calcdeviation@skeleton@skelmodel@@QEAAMAEBUvec@@0AEBUdualquat@@1@Z 0000000140056ae0 f i rendermodel.obj
 0001:00055dc0       ?calcpitchcorrects@skeleton@skelmodel@@QEAAXMAEBUvec@@0@Z 0000000140056dc0 f i rendermodel.obj
 0001:00056020       ?interpmatbones@skeleton@skelmodel@@QEAAXPEBUanimstate@animmodel@@MAEBUvec@@1HPEBEAEAUskelcacheentry@2@@Z 0000000140057020 f i rendermodel.obj
 0001:00056a60       ?interpbones@skeleton@skelmodel@@QEAAXPEBUanimstate@animmodel@@MAEBUvec@@1HPEBEAEAUskelcacheentry@2@@Z 0000000140057a60 f i rendermodel.obj
 0001:00057730       ?initmatragdoll@skeleton@skelmodel@@QEAAXAEAUragdolldata@@AEAUskelcacheentry@2@PEAUpart@animmodel@@@Z 0000000140058730 f i rendermodel.obj
 0001:00057c30       ?initragdoll@skeleton@skelmodel@@QEAAXAEAUragdolldata@@AEAUskelcacheentry@2@PEAUpart@animmodel@@@Z 0000000140058c30 f i rendermodel.obj
 0001:00058250       ?genmatragdollbones@skeleton@skelmodel@@QEAAXAEAUragdolldata@@AEAUskelcacheentry@2@PEAUpart@animmodel@@@Z 0000000140059250 f i rendermodel.obj
 0001:000584d0       ?genragdollbones@skeleton@skelmodel@@QEAAXAEAUragdolldata@@AEAUskelcacheentry@2@PEAUpart@animmodel@@@Z 00000001400594d0 f i rendermodel.obj
 0001:00058ae0       ?concattagtransform@skeleton@skelmodel@@QEAAXPEAUpart@animmodel@@HAEBUmatrix3x4@@AEAU5@@Z 0000000140059ae0 f i rendermodel.obj
 0001:00058be0       ?calctags@skeleton@skelmodel@@QEAAXPEAUpart@animmodel@@PEAUskelcacheentry@2@@Z 0000000140059be0 f i rendermodel.obj
 0001:00058e50       ?cleanup@skeleton@skelmodel@@QEAAX_N@Z 0000000140059e50 f i rendermodel.obj
 0001:00058fc0       ?checkskelcache@skeleton@skelmodel@@QEAAAEAUskelcacheentry@2@PEAUpart@animmodel@@PEBUanimstate@5@MAEBUvec@@2PEAUragdolldata@@@Z 0000000140059fc0 f i rendermodel.obj
 0001:00059270       ?setasmbones@skeleton@skelmodel@@QEAAXAEAUskelcacheentry@2@H@Z 000000014005a270 f i rendermodel.obj
 0001:000594c0       ?getblendoffset@skeleton@skelmodel@@QEAAHAEAUUniformLoc@@@Z 000000014005a4c0 f i rendermodel.obj
 0001:000595a0       ?setglslbones@skeleton@skelmodel@@QEAAXAEAUUniformLoc@@AEAUskelcacheentry@2@1H@Z 000000014005a5a0 f i rendermodel.obj
 0001:000596b0       ??0skelmeshgroup@skelmodel@@QEAA@XZ 000000014005a6b0 f i rendermodel.obj
 0001:00059820       ??1skelmeshgroup@skelmodel@@UEAA@XZ 000000014005a820 f i rendermodel.obj
 0001:000599d0       ?shareskeleton@skelmeshgroup@skelmodel@@QEAAXPEAD@Z 000000014005a9d0 f i rendermodel.obj
 0001:00059c10       ?findtag@skelmeshgroup@skelmodel@@UEAAHPEBD@Z 000000014005ac10 f i rendermodel.obj
 0001:00059c20       ?animkey@skelmeshgroup@skelmodel@@UEAAPEAXXZ 000000014005ac20 f i rendermodel.obj
 0001:00059c30       ?totalframes@skelmeshgroup@skelmodel@@UEBAHXZ 000000014005ac30 f i rendermodel.obj
 0001:00059c50       ?genvbo@skelmeshgroup@skelmodel@@QEAAX_N0AEAUvbocacheentry@2@@Z 000000014005ac50 f i rendermodel.obj
 0001:0005a930       ?bindvbo@skelmeshgroup@skelmodel@@QEAAXPEBUanimstate@animmodel@@AEAUvbocacheentry@2@PEAUskelcacheentry@2@PEAUblendcacheentry@2@@Z 000000014005b930 f i rendermodel.obj
 0001:0005ac20       ?concattagtransform@skelmeshgroup@skelmodel@@UEAAXPEAUpart@animmodel@@HAEBUmatrix3x4@@AEAU5@@Z 000000014005bc20 f i rendermodel.obj
 0001:0005ac30       ?addblendcombo@skelmeshgroup@skelmodel@@QEAAHAEBUblendcombo@2@@Z 000000014005bc30 f i rendermodel.obj
 0001:0005ad80       ?sortblendcombos@skelmeshgroup@skelmodel@@QEAAXXZ 000000014005bd80 f i rendermodel.obj
 0001:0005ae80       ?blendmatbones@skelmeshgroup@skelmodel@@QEAAXAEBUskelcacheentry@2@AEAUblendcacheentry@2@@Z 000000014005be80 f i rendermodel.obj
 0001:0005af90       ?blendbones@skelmeshgroup@skelmodel@@QEAAXAEBUskelcacheentry@2@AEAUblendcacheentry@2@@Z 000000014005bf90 f i rendermodel.obj
 0001:0005b150       ?cleanup@skelmeshgroup@skelmodel@@UEAAXXZ 000000014005c150 f i rendermodel.obj
 0001:0005b270       ?checkvbocache@skelmeshgroup@skelmodel@@QEAAAEAUvbocacheentry@2@AEAUskelcacheentry@2@H@Z 000000014005c270 f i rendermodel.obj
 0001:0005b420       ?checkblendcache@skelmeshgroup@skelmodel@@QEAAAEAUblendcacheentry@2@AEAUskelcacheentry@2@H@Z 000000014005c420 f i rendermodel.obj
 0001:0005b5c0       ?preload@skelmeshgroup@skelmodel@@UEAAXPEAUpart@animmodel@@@Z 000000014005c5c0 f i rendermodel.obj
 0001:0005b7c0       ?render@skelmeshgroup@skelmodel@@UEAAXPEBUanimstate@animmodel@@MAEBUvec@@1PEAUdynent@@PEAUpart@4@@Z 000000014005c7c0 f i rendermodel.obj
 0001:0005bfb0       ?sharepartmask@skelpart@skelmodel@@QEAAPEAEPEAUanimpartmask@2@@Z 000000014005cfb0 f i rendermodel.obj
 0001:0005c030       ?initanimparts@skelpart@skelmodel@@QEAAXXZ 000000014005d030 f i rendermodel.obj
 0001:0005c0a0       ?linktype@skelmodel@@UEBAHPEAUanimmodel@@@Z 000000014005d0a0 f i rendermodel.obj
 0001:0005c120       ??_Eskelmesh@skelmodel@@UEAAPEAXI@Z 000000014005d120 f i * CIL library *:* CIL module *
 0001:0005c120       ??_Gskelmesh@skelmodel@@UEAAPEAXI@Z 000000014005d120 f i rendermodel.obj
 0001:0005c160       ??1?$hashtable@IH@@QEAA@XZ 000000014005d160 f i rendermodel.obj
 0001:0005c1d0       ??_Eskelmeshgroup@skelmodel@@UEAAPEAXI@Z 000000014005d1d0 f i * CIL library *:* CIL module *
 0001:0005c1d0       ??_Gskelmeshgroup@skelmodel@@UEAAPEAXI@Z 000000014005d1d0 f i rendermodel.obj
 0001:0005c210       ??1?$hashtable@PEBDPEAUskeleton@skelmodel@@@@QEAA@XZ 000000014005d210 f i rendermodel.obj
 0001:0005c290       ??_Gskelpart@skelmodel@@UEAAPEAXI@Z 000000014005d290 f i rendermodel.obj
 0001:0005c290       ??_Eskelpart@skelmodel@@UEAAPEAXI@Z 000000014005d290 f i * CIL library *:* CIL module *
 0001:0005c300       ??1ragdollskel@@QEAA@XZ    000000014005d300 f i rendermodel.obj
 0001:0005c410       ?adjust@skeladjustment@@QEAAXAEAUdualquat@@@Z 000000014005d410 f i rendermodel.obj
 0001:0005c580       ?genverts@md2meshgroup@md2@@QEAAXPEAHAEAU?$vector@Utcvert@vertmodel@@@@AEAU?$vector@G@@AEAU?$vector@Utri@vertmodel@@@@@Z 000000014005d580 f i rendermodel.obj
 0001:0005caa0       ?load@md2meshgroup@md2@@QEAA_NPEBD@Z 000000014005daa0 f i rendermodel.obj
 0001:0005cf90       ?getdefaultanim@md2part@md2@@UEAAXAEAUaniminfo@@HIPEAUdynent@@@Z 000000014005df90 f i rendermodel.obj
 0001:0005d020       ?loadmeshes@md2@@UEAAPEAUmeshgroup@animmodel@@PEBDPEAD@Z 000000014005e020 f i rendermodel.obj
 0001:0005d0a0       ?load@md2@@UEAA_NXZ        000000014005e0a0 f i rendermodel.obj
 0001:0005d470       ??_Gmd2@@UEAAPEAXI@Z       000000014005e470 f i rendermodel.obj
 0001:0005d470       ??_Emd5@@UEAAPEAXI@Z       000000014005e470 f i * CIL library *:* CIL module *
 0001:0005d470       ??_Gsmd@@UEAAPEAXI@Z       000000014005e470 f i rendermodel.obj
 0001:0005d470       ??_Esmd@@UEAAPEAXI@Z       000000014005e470 f i * CIL library *:* CIL module *
 0001:0005d470       ??_Eobj@@UEAAPEAXI@Z       000000014005e470 f i * CIL library *:* CIL module *
 0001:0005d470       ??_Emd2@@UEAAPEAXI@Z       000000014005e470 f i * CIL library *:* CIL module *
 0001:0005d470       ??_Eiqm@@UEAAPEAXI@Z       000000014005e470 f i * CIL library *:* CIL module *
 0001:0005d470       ??_Gmd5@@UEAAPEAXI@Z       000000014005e470 f i rendermodel.obj
 0001:0005d470       ??_Giqm@@UEAAPEAXI@Z       000000014005e470 f i rendermodel.obj
 0001:0005d470       ??_Emd3@@UEAAPEAXI@Z       000000014005e470 f i * CIL library *:* CIL module *
 0001:0005d470       ??_Gobj@@UEAAPEAXI@Z       000000014005e470 f i rendermodel.obj
 0001:0005d470       ??_Gmd3@@UEAAPEAXI@Z       000000014005e470 f i rendermodel.obj
 0001:0005d4c0       ??_Gobjmeshgroup@obj@@UEAAPEAXI@Z 000000014005e4c0 f i rendermodel.obj
 0001:0005d4c0       ??_Emd3meshgroup@md3@@UEAAPEAXI@Z 000000014005e4c0 f i * CIL library *:* CIL module *
 0001:0005d4c0       ??_Emd2meshgroup@md2@@UEAAPEAXI@Z 000000014005e4c0 f i * CIL library *:* CIL module *
 0001:0005d4c0       ??_Gmd2meshgroup@md2@@UEAAPEAXI@Z 000000014005e4c0 f i rendermodel.obj
 0001:0005d4c0       ??_Eobjmeshgroup@obj@@UEAAPEAXI@Z 000000014005e4c0 f i * CIL library *:* CIL module *
 0001:0005d4c0       ??_Gmd3meshgroup@md3@@UEAAPEAXI@Z 000000014005e4c0 f i rendermodel.obj
 0001:0005d510       ??_Gmd2part@md2@@UEAAPEAXI@Z 000000014005e510 f i rendermodel.obj
 0001:0005d510       ??_Emd2part@md2@@UEAAPEAXI@Z 000000014005e510 f i * CIL library *:* CIL module *
 0001:0005d560       ?load@md3meshgroup@md3@@QEAA_NPEBD@Z 000000014005e560 f i rendermodel.obj
 0001:0005dca0       ?loadmeshes@md3@@UEAAPEAUmeshgroup@animmodel@@PEBDPEAD@Z 000000014005eca0 f i rendermodel.obj
 0001:0005dd20       ?loaddefaultparts@md3@@UEAA_NXZ 000000014005ed20 f i rendermodel.obj
 0001:0005def0       ?load@md3@@UEAA_NXZ        000000014005eef0 f i rendermodel.obj
 0001:0005e140       ?type@md5@@UEBAHXZ         000000014005f140 f i rendermodel.obj
 0001:0005e150       ?buildverts@md5mesh@md5@@QEAAXAEAU?$vector@Umd5joint@@@@@Z 000000014005f150 f i rendermodel.obj
 0001:0005e400       ?load@md5mesh@md5@@QEAAXPEAUstream@@PEAD_K@Z 000000014005f400 f i rendermodel.obj
 0001:0005e8c0       ?loadmesh@md5meshgroup@md5@@QEAA_NPEBDM@Z 000000014005f8c0 f i rendermodel.obj
 0001:0005f030       ?loadanim@md5meshgroup@md5@@UEAAPEAUskelanimspec@skelmodel@@PEBD@Z 0000000140060030 f i rendermodel.obj
 0001:0005fc60       ?loadmeshes@md5@@UEAAPEAUmeshgroup@animmodel@@PEBDPEAD@Z 0000000140060c60 f i rendermodel.obj
 0001:0005fd10       ?loaddefaultparts@md5@@UEAA_NXZ 0000000140060d10 f i rendermodel.obj
 0001:0005ff00       ?load@md5@@UEAA_NXZ        0000000140060f00 f i rendermodel.obj
 0001:000601e0       ??_Gmd5mesh@md5@@UEAAPEAXI@Z 00000001400611e0 f i rendermodel.obj
 0001:000601e0       ??_Emd5mesh@md5@@UEAAPEAXI@Z 00000001400611e0 f i * CIL library *:* CIL module *
 0001:00060260       ??_Eiqmmeshgroup@iqm@@UEAAPEAXI@Z 0000000140061260 f i * CIL library *:* CIL module *
 0001:00060260       ??_Emd5meshgroup@md5@@UEAAPEAXI@Z 0000000140061260 f i * CIL library *:* CIL module *
 0001:00060260       ??_Gmd5meshgroup@md5@@UEAAPEAXI@Z 0000000140061260 f i rendermodel.obj
 0001:00060260       ??_Gsmdmeshgroup@smd@@UEAAPEAXI@Z 0000000140061260 f i rendermodel.obj
 0001:00060260       ??_Esmdmeshgroup@smd@@UEAAPEAXI@Z 0000000140061260 f i * CIL library *:* CIL module *
 0001:00060260       ??_Giqmmeshgroup@iqm@@UEAAPEAXI@Z 0000000140061260 f i rendermodel.obj
 0001:000602b0       ?type@obj@@UEBAHXZ         00000001400612b0 f i rendermodel.obj
 0001:000602c0       ?parsevert@objmeshgroup@obj@@QEAAXPEADAEAU?$vector@Uvec@@@@@Z 00000001400612c0 f i rendermodel.obj
 0001:000603e0       ?load@objmeshgroup@obj@@QEAA_NPEBDM@Z 00000001400613e0 f i rendermodel.obj
 0001:000611f0       ?loadmeshes@obj@@UEAAPEAUmeshgroup@animmodel@@PEBDPEAD@Z 00000001400621f0 f i rendermodel.obj
 0001:00061280       ?loaddefaultparts@obj@@UEAA_NXZ 0000000140062280 f i rendermodel.obj
 0001:00061460       ?load@obj@@UEAA_NXZ        0000000140062460 f i rendermodel.obj
 0001:000616b0       ?type@smd@@UEBAHXZ         00000001400626b0 f i rendermodel.obj
 0001:000616c0       ?skipcomment@smdmeshgroup@smd@@QEAA_NAEAPEAD@Z 00000001400626c0 f i rendermodel.obj
 0001:00061780       ?skipsection@smdmeshgroup@smd@@QEAAXPEAUstream@@PEAD_K@Z 0000000140062780 f i rendermodel.obj
 0001:00061890       ?readnodes@smdmeshgroup@smd@@QEAAXPEAUstream@@PEAD_KAEAU?$vector@Usmdbone@@@@@Z 0000000140062890 f i rendermodel.obj
 0001:00061b90       ?finalize@smdmeshdata@smdmeshgroup@smd@@QEAAXXZ 0000000140062b90 f i rendermodel.obj
 0001:00061d00       ?readtriangles@smdmeshgroup@smd@@QEAAXPEAUstream@@PEAD_K@Z 0000000140062d00 f i rendermodel.obj
 0001:00062720       ?readskeleton@smdmeshgroup@smd@@QEAAXPEAUstream@@PEAD_K@Z 0000000140063720 f i rendermodel.obj
 0001:00062be0       ?loadmesh@smdmeshgroup@smd@@QEAA_NPEBD@Z 0000000140063be0 f i rendermodel.obj
 0001:00062fd0       ?readframes@smdmeshgroup@smd@@QEAAHPEAUstream@@PEAD_KAEAU?$vector@Udualquat@@@@@Z 0000000140063fd0 f i rendermodel.obj
 0001:00063710       ?loadanim@smdmeshgroup@smd@@UEAAPEAUskelanimspec@skelmodel@@PEBD@Z 0000000140064710 f i rendermodel.obj
 0001:00063b00       ?loadmeshes@smd@@UEAAPEAUmeshgroup@animmodel@@PEBDPEAD@Z 0000000140064b00 f i rendermodel.obj
 0001:00063ba0       ?loaddefaultparts@smd@@UEAA_NXZ 0000000140064ba0 f i rendermodel.obj
 0001:00063d40       ?load@smd@@UEAA_NXZ        0000000140064d40 f i rendermodel.obj
 0001:00064020       ??1?$hashtable@PEBDUsmdmeshdata@smdmeshgroup@smd@@@@QEAA@XZ 0000000140065020 f i rendermodel.obj
 0001:00064060       ??_Esmdmesh@smd@@UEAAPEAXI@Z 0000000140065060 f i * CIL library *:* CIL module *
 0001:00064060       ??_Gsmdmesh@smd@@UEAAPEAXI@Z 0000000140065060 f i rendermodel.obj
 0001:000640b0       ?type@iqm@@UEBAHXZ         00000001400650b0 f i rendermodel.obj
 0001:000640c0       ?loadiqmmeshes@iqmmeshgroup@iqm@@QEAA_NPEBDAEBUiqmheader@@PEAE@Z 00000001400650c0 f i rendermodel.obj
 0001:00064c60       ?loadiqmanims@iqmmeshgroup@iqm@@QEAA_NPEBDAEBUiqmheader@@PEAE@Z 0000000140065c60 f i rendermodel.obj
 0001:000655b0       ?loadiqm@iqmmeshgroup@iqm@@QEAA_NPEBD_N1@Z 00000001400665b0 f i rendermodel.obj
 0001:00065750       ?loadanim@iqmmeshgroup@iqm@@UEAAPEAUskelanimspec@skelmodel@@PEBD@Z 0000000140066750 f i rendermodel.obj
 0001:00065840       ?loadmeshes@iqm@@UEAAPEAUmeshgroup@animmodel@@PEBDPEAD@Z 0000000140066840 f i rendermodel.obj
 0001:000658e0       ?loaddefaultparts@iqm@@UEAA_NXZ 00000001400668e0 f i rendermodel.obj
 0001:00065a80       ?load@iqm@@UEAA_NXZ        0000000140066a80 f i rendermodel.obj
 0001:00065d60       ??1?$hashtable@PEBDPEAUmodel@@@@QEAA@XZ 0000000140066d60 f i rendermodel.obj
 0001:00065de0       ??A?$hashtable@PEBDPEAUmeshgroup@animmodel@@@@QEAAAEAPEAUmeshgroup@animmodel@@AEBQEBD@Z 0000000140066de0 f i rendermodel.obj
 0001:00065e90       ??1?$hashset@U?$hashtableentry@PEBDPEAUmeshgroup@animmodel@@@@@@QEAA@XZ 0000000140066e90 f i rendermodel.obj
 0001:00065ef0       ??1?$vector@Uskelanimspec@skelmodel@@@@QEAA@XZ 0000000140066ef0 f i rendermodel.obj
 0001:00065f60       ??1?$vector@Utag@skelmodel@@@@QEAA@XZ 0000000140066f60 f i rendermodel.obj
 0001:00065fd0       ?insert@?$vector@Upitchdep@skelmodel@@@@QEAAAEAUpitchdep@skelmodel@@HAEBU23@@Z 0000000140066fd0 f i rendermodel.obj
 0001:000660c0       ?add@?$vector@Uskelcacheentry@skelmodel@@@@QEAAAEAUskelcacheentry@skelmodel@@XZ 00000001400670c0 f i rendermodel.obj
 0001:00066170       ??1?$hashset@H@@QEAA@XZ    0000000140067170 f i rendermodel.obj
 0001:00066170       ??1?$hashset@U?$hashtableentry@IH@@@@QEAA@XZ 0000000140067170 f i rendermodel.obj
 0001:000661d0       ??A?$hashtable@PEBDPEAUskeleton@skelmodel@@@@QEAAAEAPEAUskeleton@skelmodel@@AEBQEBD@Z 00000001400671d0 f i rendermodel.obj
 0001:00066280       ??1?$hashset@U?$hashtableentry@PEBDPEAUskeleton@skelmodel@@@@@@QEAA@XZ 0000000140067280 f i rendermodel.obj
 0001:000662e0       ?inrange@?$vector@Usmdbone@@@@QEBA_NH@Z 00000001400672e0 f i rendermodel.obj
 0001:000662f0       ??A?$hashtable@PEBDUsmdmeshdata@smdmeshgroup@smd@@@@QEAAAEAUsmdmeshdata@smdmeshgroup@smd@@AEBQEBD@Z 00000001400672f0 f i rendermodel.obj
 0001:000663b0       ??1?$hashset@U?$hashtableentry@PEBDUsmdmeshdata@smdmeshgroup@smd@@@@@@QEAA@XZ 00000001400673b0 f i rendermodel.obj
 0001:000663e0       ?access@?$hashtable@PEBDPEAUmodel@@@@QEAAPEAPEAUmodel@@AEBQEBD@Z 00000001400673e0 f i rendermodel.obj
 0001:00066470       ??1?$hashset@U?$hashtableentry@PEBDPEAUmodel@@@@@@QEAA@XZ 0000000140067470 f i rendermodel.obj
 0001:000664d0       ?add@?$vector@Umodelattach@@@@QEAAAEAUmodelattach@@AEBU2@@Z 00000001400674d0 f i rendermodel.obj
 0001:00066560       ?growbuf@?$vector@Umapmodelinfo@@@@QEAAXH@Z 0000000140067560 f i rendermodel.obj
 0001:00066600       ?growbuf@?$vector@Uinterest@ai@@@@QEAAXH@Z 0000000140067600 f i ai.obj
 0001:00066600       ?growbuf@?$vector@Uvert@ragdollskel@@@@QEAAXH@Z 0000000140067600 f i rendermodel.obj
 0001:000666a0       ?growbuf@?$vector@UUniformLoc@@@@QEAAXH@Z 00000001400676a0 f i shader.obj
 0001:000666a0       ?growbuf@?$vector@Uavisegmentinfo@@@@QEAAXH@Z 00000001400676a0 f i movie.obj
 0001:000666a0       ?growbuf@?$vector@Urotlimit@ragdollskel@@@@QEAAXH@Z 00000001400676a0 f i rendermodel.obj
 0001:00066740       ?growbuf@?$vector@Urotfriction@ragdollskel@@@@QEAAXH@Z 0000000140067740 f i rendermodel.obj
 0001:000667d0       ?growbuf@?$vector@Utri@BIH@@@@QEAAXH@Z 00000001400677d0 f i rendermodel.obj
 0001:000667d0       ?growbuf@?$vector@Ujoint@ragdollskel@@@@QEAAXH@Z 00000001400677d0 f i rendermodel.obj
 0001:00066870       ?growbuf@?$vector@Ulinkedpart@animmodel@@@@QEAAXH@Z 0000000140067870 f i rendermodel.obj
 0001:00066900       ?growbuf@?$vector@Uskin@animmodel@@@@QEAAXH@Z 0000000140067900 f i rendermodel.obj
 0001:00066990       ??0?$hashset@U?$hashtableentry@PEBDPEAUmeshgroup@animmodel@@@@@@QEAA@H@Z 0000000140067990 f i rendermodel.obj
 0001:00066a10       ?growbuf@?$vector@Utag@skelmodel@@@@QEAAXH@Z 0000000140067a10 f i rendermodel.obj
 0001:00066a10       ?growbuf@?$vector@Uident@@@@QEAAXH@Z 0000000140067a10 f i command.obj
 0001:00066a10       ?growbuf@?$vector@ULocalShaderParamState@@@@QEAAXH@Z 0000000140067a10 f i shader.obj
 0001:00066a10       ?growbuf@?$vector@Uflag@ctfservmode@server@@@@QEAAXH@Z 0000000140067a10 f i server1.obj
 0001:00066ab0       ?growbuf@?$vector@Uskelcacheentry@skelmodel@@@@QEAAXH@Z 0000000140067ab0 f i rendermodel.obj
 0001:00066b50       ??0?$hashset@U?$hashtableentry@IH@@@@QEAA@H@Z 0000000140067b50 f i rendermodel.obj
 0001:00066be0       ??0?$hashset@U?$hashtableentry@PEBDPEAUskeleton@skelmodel@@@@@@QEAA@H@Z 0000000140067be0 f i rendermodel.obj
 0001:00066c60       ?setpitch@?$vertcommands@Umd2@@@@SAXPEAM000@Z 0000000140067c60 f i rendermodel.obj
 0001:00066d00       ?setanim@?$vertcommands@Umd2@@@@SAXPEADPEAH1PEAM1@Z 0000000140067d00 f i rendermodel.obj
 0001:00066ef0       ?loadpart@?$vertcommands@Umd3@@@@SAXPEADPEAM@Z 0000000140067ef0 f i rendermodel.obj
 0001:000670e0       ?setpitch@?$vertcommands@Umd3@@@@SAXPEAM000@Z 00000001400680e0 f i rendermodel.obj
 0001:00067180       ?setanim@?$vertcommands@Umd3@@@@SAXPEADPEAH1PEAM1@Z 0000000140068180 f i rendermodel.obj
 0001:00067370       ??0?$modelcommands@Umd3@@Uvertmesh@vertmodel@@@@QEAA@XZ 0000000140068370 f i rendermodel.obj
 0001:00067470       ?loadpart@?$skelcommands@Umd5@@@@SAXPEAD0PEAM@Z 0000000140068470 f i rendermodel.obj
 0001:00067690       ?settag@?$skelcommands@Umd5@@@@SAXPEAD0PEAM11111@Z 0000000140068690 f i rendermodel.obj
 0001:00067a30       ?setpitch@?$skelcommands@Umd5@@@@SAXPEADPEAM111@Z 0000000140068a30 f i rendermodel.obj
 0001:00067bd0       ?setpitchtarget@?$skelcommands@Umd5@@@@SAXPEAD0PEAHPEAM2@Z 0000000140068bd0 f i rendermodel.obj
 0001:00067d70       ?setpitchcorrect@?$skelcommands@Umd5@@@@SAXPEAD0PEAM11@Z 0000000140068d70 f i rendermodel.obj
 0001:00067f30       ?setanim@?$skelcommands@Umd5@@@@SAXPEAD0PEAMPEAH22@Z 0000000140068f30 f i rendermodel.obj
 0001:00068220       ?setanimpart@?$skelcommands@Umd5@@@@SAXPEAD@Z 0000000140069220 f i rendermodel.obj
 0001:00068580       ?setadjust@?$skelcommands@Umd5@@@@SAXPEADPEAM11111@Z 0000000140069580 f i rendermodel.obj
 0001:00068780       ??0?$modelcommands@Umd5@@Uskelmesh@skelmodel@@@@QEAA@XZ 0000000140069780 f i rendermodel.obj
 0001:00068890       ?loadpart@?$vertcommands@Uobj@@@@SAXPEADPEAM@Z 0000000140069890 f i rendermodel.obj
 0001:00068a80       ?setpitch@?$vertcommands@Uobj@@@@SAXPEAM000@Z 0000000140069a80 f i rendermodel.obj
 0001:00068b20       ??0?$modelcommands@Uobj@@Uvertmesh@vertmodel@@@@QEAA@XZ 0000000140069b20 f i rendermodel.obj
 0001:00068c20       ?growbuf@?$vector@Utri@skelmodel@@@@QEAAXH@Z 0000000140069c20 f i rendermodel.obj
 0001:00068cc0       ?growbuf@?$vector@Uscore@captureservmode@server@@@@QEAAXH@Z 0000000140069cc0 f i server1.obj
 0001:00068cc0       ?growbuf@?$vector@Usmdbone@@@@QEAAXH@Z 0000000140069cc0 f i rendermodel.obj
 0001:00068cc0       ?growbuf@?$vector@Uscore@captureclientmode@game@@@@QEAAXH@Z 0000000140069cc0 f i client1.obj
 0001:00068d60       ?deletechunks@?$hashset@U?$hashtableentry@PEBDUsmdmeshdata@smdmeshgroup@smd@@@@@@QEAAXXZ 0000000140069d60 f i rendermodel.obj
 0001:00068df0       ?loadpart@?$skelcommands@Usmd@@@@SAXPEAD0PEAM@Z 0000000140069df0 f i rendermodel.obj
 0001:00069010       ?settag@?$skelcommands@Usmd@@@@SAXPEAD0PEAM11111@Z 000000014006a010 f i rendermodel.obj
 0001:000693b0       ?setpitch@?$skelcommands@Usmd@@@@SAXPEADPEAM111@Z 000000014006a3b0 f i rendermodel.obj
 0001:00069550       ?setpitchtarget@?$skelcommands@Usmd@@@@SAXPEAD0PEAHPEAM2@Z 000000014006a550 f i rendermodel.obj
 0001:000696f0       ?setpitchcorrect@?$skelcommands@Usmd@@@@SAXPEAD0PEAM11@Z 000000014006a6f0 f i rendermodel.obj
 0001:000698b0       ?setanim@?$skelcommands@Usmd@@@@SAXPEAD0PEAMPEAH22@Z 000000014006a8b0 f i rendermodel.obj
 0001:00069ba0       ?setanimpart@?$skelcommands@Usmd@@@@SAXPEAD@Z 000000014006aba0 f i rendermodel.obj
 0001:00069f00       ?setadjust@?$skelcommands@Usmd@@@@SAXPEADPEAM11111@Z 000000014006af00 f i rendermodel.obj
 0001:0006a100       ??0?$modelcommands@Usmd@@Uskelmesh@skelmodel@@@@QEAA@XZ 000000014006b100 f i rendermodel.obj
 0001:0006a210       ?loadpart@?$skelcommands@Uiqm@@@@SAXPEAD0PEAM@Z 000000014006b210 f i rendermodel.obj
 0001:0006a430       ?settag@?$skelcommands@Uiqm@@@@SAXPEAD0PEAM11111@Z 000000014006b430 f i rendermodel.obj
 0001:0006a7d0       ?setpitch@?$skelcommands@Uiqm@@@@SAXPEADPEAM111@Z 000000014006b7d0 f i rendermodel.obj
 0001:0006a970       ?setpitchtarget@?$skelcommands@Uiqm@@@@SAXPEAD0PEAHPEAM2@Z 000000014006b970 f i rendermodel.obj
 0001:0006ab10       ?setpitchcorrect@?$skelcommands@Uiqm@@@@SAXPEAD0PEAM11@Z 000000014006bb10 f i rendermodel.obj
 0001:0006acd0       ?setanim@?$skelcommands@Uiqm@@@@SAXPEAD0PEAMPEAH22@Z 000000014006bcd0 f i rendermodel.obj
 0001:0006afc0       ?setanimpart@?$skelcommands@Uiqm@@@@SAXPEAD@Z 000000014006bfc0 f i rendermodel.obj
 0001:0006b320       ?setadjust@?$skelcommands@Uiqm@@@@SAXPEADPEAM11111@Z 000000014006c320 f i rendermodel.obj
 0001:0006b520       ??0?$modelcommands@Uiqm@@Uskelmesh@skelmodel@@@@QEAA@XZ 000000014006c520 f i rendermodel.obj
 0001:0006b630       ??0?$hashset@U?$hashtableentry@PEBDPEAUmodel@@@@@@QEAA@H@Z 000000014006c630 f i rendermodel.obj
 0001:0006b6b0       ?growbuf@?$vector@Ubatchedmodel@@@@QEAAXH@Z 000000014006c6b0 f i rendermodel.obj
 0001:0006b740       ?growbuf@?$vector@PEAUmodelbatch@@@@QEAAXH@Z 000000014006c740 f i rendermodel.obj
 0001:0006b7e0       ?growbuf@?$vector@Umodelattach@@@@QEAAXH@Z 000000014006c7e0 f i rendermodel.obj
 0001:0006b880       ??1chain@?$hashset@U?$hashtableentry@PEBDUsmdmeshdata@smdmeshgroup@smd@@@@@@QEAA@XZ 000000014006c880 f i rendermodel.obj
 0001:0006b8b0       ??1?$hashtableentry@PEBDUsmdmeshdata@smdmeshgroup@smd@@@@QEAA@XZ 000000014006c8b0 f i rendermodel.obj
 0001:0006b8d0       ??1smdmeshdata@smdmeshgroup@smd@@QEAA@XZ 000000014006c8d0 f i rendermodel.obj
 0001:0006b940       ?insert@?$hashset@U?$hashtableentry@PEBDPEAUmeshgroup@animmodel@@@@@@QEAAPEAUchain@1@I@Z 000000014006c940 f i rendermodel.obj
 0001:0006ba10       ?add@?$vector@Upitchtarget@skelmodel@@@@QEAAAEAUpitchtarget@skelmodel@@XZ 000000014006ca10 f i rendermodel.obj
 0001:0006ba60       ?insert@?$vector@Upitchcorrect@skelmodel@@@@QEAAAEAUpitchcorrect@skelmodel@@HAEBU23@@Z 000000014006ca60 f i rendermodel.obj
 0001:0006bb30       ?insert@?$hashset@U?$hashtableentry@IH@@@@QEAAPEAUchain@1@I@Z 000000014006cb30 f i rendermodel.obj
 0001:0006bca0       ?insert@?$hashset@U?$hashtableentry@PEBDPEAUskeleton@skelmodel@@@@@@QEAAPEAUchain@1@I@Z 000000014006cca0 f i rendermodel.obj
 0001:0006bd70       ?setdir@?$modelcommands@Umd2@@Uvertmesh@vertmodel@@@@SAXPEAD@Z 000000014006cd70 f i rendermodel.obj
 0001:0006bdc0       ?setdir@?$modelcommands@Umd3@@Uvertmesh@vertmodel@@@@SAXPEAD@Z 000000014006cdc0 f i rendermodel.obj
 0001:0006be10       ?setskin@?$modelcommands@Umd3@@Uvertmesh@vertmodel@@@@SAXPEAD00PEAM1@Z 000000014006ce10 f i rendermodel.obj
 0001:0006bfb0       ?setspec@?$modelcommands@Umd3@@Uvertmesh@vertmodel@@@@SAXPEADPEAH@Z 000000014006cfb0 f i rendermodel.obj
 0001:0006c0c0       ?setambient@?$modelcommands@Umd3@@Uvertmesh@vertmodel@@@@SAXPEADPEAH@Z 000000014006d0c0 f i rendermodel.obj
 0001:0006c1d0       ?setglow@?$modelcommands@Umd3@@Uvertmesh@vertmodel@@@@SAXPEADPEAH1PEAM@Z 000000014006d1d0 f i rendermodel.obj
 0001:0006c320       ?setglare@?$modelcommands@Umd3@@Uvertmesh@vertmodel@@@@SAXPEADPEAM1@Z 000000014006d320 f i rendermodel.obj
 0001:0006c440       ?setalphatest@?$modelcommands@Umd3@@Uvertmesh@vertmodel@@@@SAXPEADPEAM@Z 000000014006d440 f i rendermodel.obj
 0001:0006c560       ?setalphablend@?$modelcommands@Umd3@@Uvertmesh@vertmodel@@@@SAXPEADPEAH@Z 000000014006d560 f i rendermodel.obj
 0001:0006c660       ?setcullface@?$modelcommands@Umd3@@Uvertmesh@vertmodel@@@@SAXPEADPEAH@Z 000000014006d660 f i rendermodel.obj
 0001:0006c760       ?setenvmap@?$modelcommands@Umd3@@Uvertmesh@vertmodel@@@@SAXPEAD0@Z 000000014006d760 f i rendermodel.obj
 0001:0006c870       ?setbumpmap@?$modelcommands@Umd3@@Uvertmesh@vertmodel@@@@SAXPEAD00@Z 000000014006d870 f i rendermodel.obj
 0001:0006c9f0       ?setfullbright@?$modelcommands@Umd3@@Uvertmesh@vertmodel@@@@SAXPEADPEAM@Z 000000014006d9f0 f i rendermodel.obj
 0001:0006caf0       ?setshader@?$modelcommands@Umd3@@Uvertmesh@vertmodel@@@@SAXPEAD0@Z 000000014006daf0 f i rendermodel.obj
 0001:0006cc10       ?setscroll@?$modelcommands@Umd3@@Uvertmesh@vertmodel@@@@SAXPEADPEAM1@Z 000000014006dc10 f i rendermodel.obj
 0001:0006cd30       ?setnoclip@?$modelcommands@Umd3@@Uvertmesh@vertmodel@@@@SAXPEADPEAH@Z 000000014006dd30 f i rendermodel.obj
 0001:0006ce20       ?setlink@?$modelcommands@Umd3@@Uvertmesh@vertmodel@@@@SAXPEAH0PEADPEAM22@Z 000000014006de20 f i rendermodel.obj
 0001:0006cf10       ?setdir@?$modelcommands@Umd5@@Uskelmesh@skelmodel@@@@SAXPEAD@Z 000000014006df10 f i rendermodel.obj
 0001:0006cf60       ?setskin@?$modelcommands@Umd5@@Uskelmesh@skelmodel@@@@SAXPEAD00PEAM1@Z 000000014006df60 f i rendermodel.obj
 0001:0006d100       ?setspec@?$modelcommands@Umd5@@Uskelmesh@skelmodel@@@@SAXPEADPEAH@Z 000000014006e100 f i rendermodel.obj
 0001:0006d210       ?setambient@?$modelcommands@Umd5@@Uskelmesh@skelmodel@@@@SAXPEADPEAH@Z 000000014006e210 f i rendermodel.obj
 0001:0006d320       ?setglow@?$modelcommands@Umd5@@Uskelmesh@skelmodel@@@@SAXPEADPEAH1PEAM@Z 000000014006e320 f i rendermodel.obj
 0001:0006d470       ?setglare@?$modelcommands@Umd5@@Uskelmesh@skelmodel@@@@SAXPEADPEAM1@Z 000000014006e470 f i rendermodel.obj
 0001:0006d590       ?setalphatest@?$modelcommands@Umd5@@Uskelmesh@skelmodel@@@@SAXPEADPEAM@Z 000000014006e590 f i rendermodel.obj
 0001:0006d6b0       ?setalphablend@?$modelcommands@Umd5@@Uskelmesh@skelmodel@@@@SAXPEADPEAH@Z 000000014006e6b0 f i rendermodel.obj
 0001:0006d7b0       ?setcullface@?$modelcommands@Umd5@@Uskelmesh@skelmodel@@@@SAXPEADPEAH@Z 000000014006e7b0 f i rendermodel.obj
 0001:0006d8b0       ?setenvmap@?$modelcommands@Umd5@@Uskelmesh@skelmodel@@@@SAXPEAD0@Z 000000014006e8b0 f i rendermodel.obj
 0001:0006d9c0       ?setbumpmap@?$modelcommands@Umd5@@Uskelmesh@skelmodel@@@@SAXPEAD00@Z 000000014006e9c0 f i rendermodel.obj
 0001:0006db40       ?setfullbright@?$modelcommands@Umd5@@Uskelmesh@skelmodel@@@@SAXPEADPEAM@Z 000000014006eb40 f i rendermodel.obj
 0001:0006dc40       ?setshader@?$modelcommands@Umd5@@Uskelmesh@skelmodel@@@@SAXPEAD0@Z 000000014006ec40 f i rendermodel.obj
 0001:0006dd60       ?setscroll@?$modelcommands@Umd5@@Uskelmesh@skelmodel@@@@SAXPEADPEAM1@Z 000000014006ed60 f i rendermodel.obj
 0001:0006de80       ?setnoclip@?$modelcommands@Umd5@@Uskelmesh@skelmodel@@@@SAXPEADPEAH@Z 000000014006ee80 f i rendermodel.obj
 0001:0006df70       ?setlink@?$modelcommands@Umd5@@Uskelmesh@skelmodel@@@@SAXPEAH0PEADPEAM22@Z 000000014006ef70 f i rendermodel.obj
 0001:0006e060       ?setdir@?$modelcommands@Uobj@@Uvertmesh@vertmodel@@@@SAXPEAD@Z 000000014006f060 f i rendermodel.obj
 0001:0006e0b0       ?setskin@?$modelcommands@Uobj@@Uvertmesh@vertmodel@@@@SAXPEAD00PEAM1@Z 000000014006f0b0 f i rendermodel.obj
 0001:0006e250       ?setspec@?$modelcommands@Uobj@@Uvertmesh@vertmodel@@@@SAXPEADPEAH@Z 000000014006f250 f i rendermodel.obj
 0001:0006e360       ?setambient@?$modelcommands@Uobj@@Uvertmesh@vertmodel@@@@SAXPEADPEAH@Z 000000014006f360 f i rendermodel.obj
 0001:0006e470       ?setglow@?$modelcommands@Uobj@@Uvertmesh@vertmodel@@@@SAXPEADPEAH1PEAM@Z 000000014006f470 f i rendermodel.obj
 0001:0006e5c0       ?setglare@?$modelcommands@Uobj@@Uvertmesh@vertmodel@@@@SAXPEADPEAM1@Z 000000014006f5c0 f i rendermodel.obj
 0001:0006e6e0       ?setalphatest@?$modelcommands@Uobj@@Uvertmesh@vertmodel@@@@SAXPEADPEAM@Z 000000014006f6e0 f i rendermodel.obj
 0001:0006e800       ?setalphablend@?$modelcommands@Uobj@@Uvertmesh@vertmodel@@@@SAXPEADPEAH@Z 000000014006f800 f i rendermodel.obj
 0001:0006e900       ?setcullface@?$modelcommands@Uobj@@Uvertmesh@vertmodel@@@@SAXPEADPEAH@Z 000000014006f900 f i rendermodel.obj
 0001:0006ea00       ?setenvmap@?$modelcommands@Uobj@@Uvertmesh@vertmodel@@@@SAXPEAD0@Z 000000014006fa00 f i rendermodel.obj
 0001:0006eb10       ?setbumpmap@?$modelcommands@Uobj@@Uvertmesh@vertmodel@@@@SAXPEAD00@Z 000000014006fb10 f i rendermodel.obj
 0001:0006ec90       ?setfullbright@?$modelcommands@Uobj@@Uvertmesh@vertmodel@@@@SAXPEADPEAM@Z 000000014006fc90 f i rendermodel.obj
 0001:0006ed90       ?setshader@?$modelcommands@Uobj@@Uvertmesh@vertmodel@@@@SAXPEAD0@Z 000000014006fd90 f i rendermodel.obj
 0001:0006eeb0       ?setscroll@?$modelcommands@Uobj@@Uvertmesh@vertmodel@@@@SAXPEADPEAM1@Z 000000014006feb0 f i rendermodel.obj
 0001:0006efd0       ?setnoclip@?$modelcommands@Uobj@@Uvertmesh@vertmodel@@@@SAXPEADPEAH@Z 000000014006ffd0 f i rendermodel.obj
 0001:0006f0c0       ?setlink@?$modelcommands@Uobj@@Uvertmesh@vertmodel@@@@SAXPEAH0PEADPEAM22@Z 00000001400700c0 f i rendermodel.obj
 0001:0006f1b0       ?insert@?$hashset@U?$hashtableentry@PEBDUsmdmeshdata@smdmeshgroup@smd@@@@@@QEAAPEAUchain@1@I@Z 00000001400701b0 f i rendermodel.obj
 0001:0006f2b0       ?setdir@?$modelcommands@Usmd@@Uskelmesh@skelmodel@@@@SAXPEAD@Z 00000001400702b0 f i rendermodel.obj
 0001:0006f300       ?setskin@?$modelcommands@Usmd@@Uskelmesh@skelmodel@@@@SAXPEAD00PEAM1@Z 0000000140070300 f i rendermodel.obj
 0001:0006f4a0       ?setspec@?$modelcommands@Usmd@@Uskelmesh@skelmodel@@@@SAXPEADPEAH@Z 00000001400704a0 f i rendermodel.obj
 0001:0006f5b0       ?setambient@?$modelcommands@Usmd@@Uskelmesh@skelmodel@@@@SAXPEADPEAH@Z 00000001400705b0 f i rendermodel.obj
 0001:0006f6c0       ?setglow@?$modelcommands@Usmd@@Uskelmesh@skelmodel@@@@SAXPEADPEAH1PEAM@Z 00000001400706c0 f i rendermodel.obj
 0001:0006f810       ?setglare@?$modelcommands@Usmd@@Uskelmesh@skelmodel@@@@SAXPEADPEAM1@Z 0000000140070810 f i rendermodel.obj
 0001:0006f930       ?setalphatest@?$modelcommands@Usmd@@Uskelmesh@skelmodel@@@@SAXPEADPEAM@Z 0000000140070930 f i rendermodel.obj
 0001:0006fa50       ?setalphablend@?$modelcommands@Usmd@@Uskelmesh@skelmodel@@@@SAXPEADPEAH@Z 0000000140070a50 f i rendermodel.obj
 0001:0006fb50       ?setcullface@?$modelcommands@Usmd@@Uskelmesh@skelmodel@@@@SAXPEADPEAH@Z 0000000140070b50 f i rendermodel.obj
 0001:0006fc50       ?setenvmap@?$modelcommands@Usmd@@Uskelmesh@skelmodel@@@@SAXPEAD0@Z 0000000140070c50 f i rendermodel.obj
 0001:0006fd60       ?setbumpmap@?$modelcommands@Usmd@@Uskelmesh@skelmodel@@@@SAXPEAD00@Z 0000000140070d60 f i rendermodel.obj
 0001:0006fee0       ?setfullbright@?$modelcommands@Usmd@@Uskelmesh@skelmodel@@@@SAXPEADPEAM@Z 0000000140070ee0 f i rendermodel.obj
 0001:0006ffe0       ?setshader@?$modelcommands@Usmd@@Uskelmesh@skelmodel@@@@SAXPEAD0@Z 0000000140070fe0 f i rendermodel.obj
 0001:00070100       ?setscroll@?$modelcommands@Usmd@@Uskelmesh@skelmodel@@@@SAXPEADPEAM1@Z 0000000140071100 f i rendermodel.obj
 0001:00070220       ?setnoclip@?$modelcommands@Usmd@@Uskelmesh@skelmodel@@@@SAXPEADPEAH@Z 0000000140071220 f i rendermodel.obj
 0001:00070310       ?setlink@?$modelcommands@Usmd@@Uskelmesh@skelmodel@@@@SAXPEAH0PEADPEAM22@Z 0000000140071310 f i rendermodel.obj
 0001:00070400       ?setdir@?$modelcommands@Uiqm@@Uskelmesh@skelmodel@@@@SAXPEAD@Z 0000000140071400 f i rendermodel.obj
 0001:00070450       ?setskin@?$modelcommands@Uiqm@@Uskelmesh@skelmodel@@@@SAXPEAD00PEAM1@Z 0000000140071450 f i rendermodel.obj
 0001:000705f0       ?setspec@?$modelcommands@Uiqm@@Uskelmesh@skelmodel@@@@SAXPEADPEAH@Z 00000001400715f0 f i rendermodel.obj
 0001:00070700       ?setambient@?$modelcommands@Uiqm@@Uskelmesh@skelmodel@@@@SAXPEADPEAH@Z 0000000140071700 f i rendermodel.obj
 0001:00070810       ?setglow@?$modelcommands@Uiqm@@Uskelmesh@skelmodel@@@@SAXPEADPEAH1PEAM@Z 0000000140071810 f i rendermodel.obj
 0001:00070960       ?setglare@?$modelcommands@Uiqm@@Uskelmesh@skelmodel@@@@SAXPEADPEAM1@Z 0000000140071960 f i rendermodel.obj
 0001:00070a80       ?setalphatest@?$modelcommands@Uiqm@@Uskelmesh@skelmodel@@@@SAXPEADPEAM@Z 0000000140071a80 f i rendermodel.obj
 0001:00070ba0       ?setalphablend@?$modelcommands@Uiqm@@Uskelmesh@skelmodel@@@@SAXPEADPEAH@Z 0000000140071ba0 f i rendermodel.obj
 0001:00070ca0       ?setcullface@?$modelcommands@Uiqm@@Uskelmesh@skelmodel@@@@SAXPEADPEAH@Z 0000000140071ca0 f i rendermodel.obj
 0001:00070da0       ?setenvmap@?$modelcommands@Uiqm@@Uskelmesh@skelmodel@@@@SAXPEAD0@Z 0000000140071da0 f i rendermodel.obj
 0001:00070eb0       ?setbumpmap@?$modelcommands@Uiqm@@Uskelmesh@skelmodel@@@@SAXPEAD00@Z 0000000140071eb0 f i rendermodel.obj
 0001:00071030       ?setfullbright@?$modelcommands@Uiqm@@Uskelmesh@skelmodel@@@@SAXPEADPEAM@Z 0000000140072030 f i rendermodel.obj
 0001:00071130       ?setshader@?$modelcommands@Uiqm@@Uskelmesh@skelmodel@@@@SAXPEAD0@Z 0000000140072130 f i rendermodel.obj
 0001:00071250       ?setscroll@?$modelcommands@Uiqm@@Uskelmesh@skelmodel@@@@SAXPEADPEAM1@Z 0000000140072250 f i rendermodel.obj
 0001:00071370       ?setnoclip@?$modelcommands@Uiqm@@Uskelmesh@skelmodel@@@@SAXPEADPEAH@Z 0000000140072370 f i rendermodel.obj
 0001:00071460       ?setlink@?$modelcommands@Uiqm@@Uskelmesh@skelmodel@@@@SAXPEAH0PEADPEAM22@Z 0000000140072460 f i rendermodel.obj
 0001:00071550       ?insert@?$hashset@U?$hashtableentry@PEBDPEAUmodel@@@@@@QEAAPEAUchain@1@I@Z 0000000140072550 f i rendermodel.obj
 0001:00071620       ??0chain@?$hashset@U?$hashtableentry@PEBDUsmdmeshdata@smdmeshgroup@smd@@@@@@QEAA@XZ 0000000140072620 f i rendermodel.obj
 0001:00071660       ?growbuf@?$vector@Upitchtarget@skelmodel@@@@QEAAXH@Z 0000000140072660 f i rendermodel.obj
 0001:000716f0       ??$smoothnorms@Uvert@vertmodel@@Utri@2@@mesh@animmodel@@QEAAXPEAUvert@vertmodel@@HPEAUtri@3@HM_N@Z 00000001400726f0 f i rendermodel.obj
 0001:00071f60       ??$buildnorms@Uvert@vertmodel@@Utri@2@@mesh@animmodel@@QEAAXPEAUvert@vertmodel@@HPEAUtri@3@H_N@Z 0000000140072f60 f i rendermodel.obj
 0001:00072360       ??$calctangents@Ubumpvert@vertmodel@@Uvert@2@Utcvert@2@Utri@2@@mesh@animmodel@@QEAAXPEAUbumpvert@vertmodel@@PEAUvert@3@PEAUtcvert@3@HPEAUtri@3@H_N@Z 0000000140073360 f i rendermodel.obj
 0001:00072a10       ??$genvbo@Uvvertbump@vertmodel@@@vertmesh@vertmodel@@QEAAHAEAU?$vector@G@@HAEAU?$vector@Uvvertbump@vertmodel@@@@PEAHH@Z 0000000140073a10 f i rendermodel.obj
 0001:00072ee0       ??$genvbo@Uvvert@vertmodel@@@vertmesh@vertmodel@@QEAAHAEAU?$vector@G@@HAEAU?$vector@Uvvert@vertmodel@@@@PEAHH@Z 0000000140073ee0 f i rendermodel.obj
 0001:00073380       ??$genvbo@Uvvertff@vertmodel@@@vertmesh@vertmodel@@QEAAHAEAU?$vector@G@@HAEAU?$vector@Uvvertff@vertmodel@@@@PEAHH@Z 0000000140074380 f i rendermodel.obj
 0001:000737d0       ??$smoothnorms@Uvert@skelmodel@@Utri@2@@mesh@animmodel@@QEAAXPEAUvert@skelmodel@@HPEAUtri@3@HM_N@Z 00000001400747d0 f i rendermodel.obj
 0001:00074040       ??$buildnorms@Uvert@skelmodel@@Utri@2@@mesh@animmodel@@QEAAXPEAUvert@skelmodel@@HPEAUtri@3@H_N@Z 0000000140075040 f i rendermodel.obj
 0001:00074440       ??$calctangents@Ubumpvert@skelmodel@@Uvert@2@U32@Utri@2@@mesh@animmodel@@QEAAXPEAUbumpvert@skelmodel@@PEAUvert@3@1HPEAUtri@3@H_N@Z 0000000140075440 f i rendermodel.obj
 0001:00074ae0       ??$genvbo@Uvvertbumpw@skelmodel@@@skelmesh@skelmodel@@QEAAHAEAU?$vector@G@@HAEAU?$vector@Uvvertbumpw@skelmodel@@@@@Z 0000000140075ae0 f i rendermodel.obj
 0001:00074ce0       ??$genvbo@Uvvertw@skelmodel@@@skelmesh@skelmodel@@QEAAHAEAU?$vector@G@@HAEAU?$vector@Uvvertw@skelmodel@@@@@Z 0000000140075ce0 f i rendermodel.obj
 0001:00074f10       ??$genvbo@Uvvertbump@skelmodel@@@skelmesh@skelmodel@@QEAAHAEAU?$vector@G@@HAEAU?$vector@Uvvertbump@skelmodel@@@@PEAHH@Z 0000000140075f10 f i rendermodel.obj
 0001:000753e0       ??$genvbo@Uvvertn@skelmodel@@@skelmesh@skelmodel@@QEAAHAEAU?$vector@G@@HAEAU?$vector@Uvvertn@skelmodel@@@@PEAHH@Z 00000001400763e0 f i rendermodel.obj
 0001:00075840       ??$genvbo@Uvvert@skelmodel@@@skelmesh@skelmodel@@QEAAHAEAU?$vector@G@@HAEAU?$vector@Uvvert@skelmodel@@@@PEAHH@Z 0000000140076840 f i rendermodel.obj
 0001:00075c90       ??$blendbones@Umatrix3x4@@@skelmeshgroup@skelmodel@@SAXAEAUmatrix3x4@@PEBU2@AEBUblendcombo@1@@Z 0000000140076c90 f i rendermodel.obj
 0001:00075da0       ??$blendbones@Udualquat@@@skelmeshgroup@skelmodel@@SAXAEAUdualquat@@PEBU2@AEBUblendcombo@1@@Z 0000000140076da0 f i rendermodel.obj
 0001:00075e90       ??$interpverts@Umatrix3x4@@@skelmesh@skelmodel@@QEAAXPEIBUmatrix3x4@@0_N1PEIAXAEAUskin@animmodel@@@Z 0000000140076e90 f i rendermodel.obj
 0001:000767c0       ??$interpverts@Udualquat@@@skelmesh@skelmodel@@QEAAXPEIBUdualquat@@0_N1PEIAXAEAUskin@animmodel@@@Z 00000001400777c0 f i rendermodel.obj
 0001:00076a70       ??$remove@PEAD@?$hashset@U?$hashtableentry@PEBDPEAUmodel@@@@@@QEAA_NAEBQEAD@Z 0000000140077a70 f i rendermodel.obj
 0001:00076b40       ??$modelcommand@$$A6AXPEAM000@Z@?$modelcommands@Umd2@@Uvertmesh@vertmodel@@@@QEAAXP6AXPEAM000@ZPEBD2@Z 0000000140077b40 f i rendermodel.obj
 0001:00076be0       ??$modelcommand@$$A6AXPEADPEAH1PEAM1@Z@?$modelcommands@Umd2@@Uvertmesh@vertmodel@@@@QEAAXP6AXPEADPEAH1PEAM1@ZPEBD4@Z 0000000140077be0 f i rendermodel.obj
 0001:00076c80       ??$modelcommand@$$A6AXPEADPEAM@Z@?$modelcommands@Umd3@@Uvertmesh@vertmodel@@@@QEAAXP6AXPEADPEAM@ZPEBD3@Z 0000000140077c80 f i rendermodel.obj
 0001:00076d30       ??$modelcommand@$$A6AXPEAM000@Z@?$modelcommands@Umd3@@Uvertmesh@vertmodel@@@@QEAAXP6AXPEAM000@ZPEBD2@Z 0000000140077d30 f i rendermodel.obj
 0001:00076dd0       ??$modelcommand@$$A6AXPEADPEAH1PEAM1@Z@?$modelcommands@Umd3@@Uvertmesh@vertmodel@@@@QEAAXP6AXPEADPEAH1PEAM1@ZPEBD4@Z 0000000140077dd0 f i rendermodel.obj
 0001:00076e70       ??$modelcommand@$$A6AXPEAD0PEAM@Z@?$modelcommands@Umd5@@Uskelmesh@skelmodel@@@@QEAAXP6AXPEAD0PEAM@ZPEBD3@Z 0000000140077e70 f i rendermodel.obj
 0001:00076f10       ??$modelcommand@$$A6AXPEAD0PEAM11111@Z@?$modelcommands@Umd5@@Uskelmesh@skelmodel@@@@QEAAXP6AXPEAD0PEAM11111@ZPEBD3@Z 0000000140077f10 f i rendermodel.obj
 0001:00076fb0       ??$modelcommand@$$A6AXPEADPEAM111@Z@?$modelcommands@Umd5@@Uskelmesh@skelmodel@@@@QEAAXP6AXPEADPEAM111@ZPEBD3@Z 0000000140077fb0 f i rendermodel.obj
 0001:00077050       ??$modelcommand@$$A6AXPEAD0PEAHPEAM2@Z@?$modelcommands@Umd5@@Uskelmesh@skelmodel@@@@QEAAXP6AXPEAD0PEAHPEAM2@ZPEBD4@Z 0000000140078050 f i rendermodel.obj
 0001:000770f0       ??$modelcommand@$$A6AXPEAD0PEAM11@Z@?$modelcommands@Umd5@@Uskelmesh@skelmodel@@@@QEAAXP6AXPEAD0PEAM11@ZPEBD3@Z 00000001400780f0 f i rendermodel.obj
 0001:00077190       ??$modelcommand@$$A6AXPEAD0PEAMPEAH22@Z@?$modelcommands@Umd5@@Uskelmesh@skelmodel@@@@QEAAXP6AXPEAD0PEAMPEAH22@ZPEBD4@Z 0000000140078190 f i rendermodel.obj
 0001:00077230       ??$modelcommand@$$A6AXPEAD@Z@?$modelcommands@Umd5@@Uskelmesh@skelmodel@@@@QEAAXP6AXPEAD@ZPEBD2@Z 0000000140078230 f i rendermodel.obj
 0001:000772e0       ??$modelcommand@$$A6AXPEADPEAM11111@Z@?$modelcommands@Umd5@@Uskelmesh@skelmodel@@@@QEAAXP6AXPEADPEAM11111@ZPEBD3@Z 00000001400782e0 f i rendermodel.obj
 0001:00077380       ??$modelcommand@$$A6AXPEADPEAM@Z@?$modelcommands@Uobj@@Uvertmesh@vertmodel@@@@QEAAXP6AXPEADPEAM@ZPEBD3@Z 0000000140078380 f i rendermodel.obj
 0001:00077430       ??$modelcommand@$$A6AXPEAM000@Z@?$modelcommands@Uobj@@Uvertmesh@vertmodel@@@@QEAAXP6AXPEAM000@ZPEBD2@Z 0000000140078430 f i rendermodel.obj
 0001:000774d0       ??$modelcommand@$$A6AXPEAD0PEAM@Z@?$modelcommands@Usmd@@Uskelmesh@skelmodel@@@@QEAAXP6AXPEAD0PEAM@ZPEBD3@Z 00000001400784d0 f i rendermodel.obj
 0001:00077570       ??$modelcommand@$$A6AXPEAD0PEAM11111@Z@?$modelcommands@Usmd@@Uskelmesh@skelmodel@@@@QEAAXP6AXPEAD0PEAM11111@ZPEBD3@Z 0000000140078570 f i rendermodel.obj
 0001:00077610       ??$modelcommand@$$A6AXPEADPEAM111@Z@?$modelcommands@Usmd@@Uskelmesh@skelmodel@@@@QEAAXP6AXPEADPEAM111@ZPEBD3@Z 0000000140078610 f i rendermodel.obj
 0001:000776b0       ??$modelcommand@$$A6AXPEAD0PEAHPEAM2@Z@?$modelcommands@Usmd@@Uskelmesh@skelmodel@@@@QEAAXP6AXPEAD0PEAHPEAM2@ZPEBD4@Z 00000001400786b0 f i rendermodel.obj
 0001:00077750       ??$modelcommand@$$A6AXPEAD0PEAM11@Z@?$modelcommands@Usmd@@Uskelmesh@skelmodel@@@@QEAAXP6AXPEAD0PEAM11@ZPEBD3@Z 0000000140078750 f i rendermodel.obj
 0001:000777f0       ??$modelcommand@$$A6AXPEAD0PEAMPEAH22@Z@?$modelcommands@Usmd@@Uskelmesh@skelmodel@@@@QEAAXP6AXPEAD0PEAMPEAH22@ZPEBD4@Z 00000001400787f0 f i rendermodel.obj
 0001:00077890       ??$modelcommand@$$A6AXPEAD@Z@?$modelcommands@Usmd@@Uskelmesh@skelmodel@@@@QEAAXP6AXPEAD@ZPEBD2@Z 0000000140078890 f i rendermodel.obj
 0001:00077940       ??$modelcommand@$$A6AXPEADPEAM11111@Z@?$modelcommands@Usmd@@Uskelmesh@skelmodel@@@@QEAAXP6AXPEADPEAM11111@ZPEBD3@Z 0000000140078940 f i rendermodel.obj
 0001:000779e0       ??$modelcommand@$$A6AXPEAD0PEAM@Z@?$modelcommands@Uiqm@@Uskelmesh@skelmodel@@@@QEAAXP6AXPEAD0PEAM@ZPEBD3@Z 00000001400789e0 f i rendermodel.obj
 0001:00077a80       ??$modelcommand@$$A6AXPEAD0PEAM11111@Z@?$modelcommands@Uiqm@@Uskelmesh@skelmodel@@@@QEAAXP6AXPEAD0PEAM11111@ZPEBD3@Z 0000000140078a80 f i rendermodel.obj
 0001:00077b20       ??$modelcommand@$$A6AXPEADPEAM111@Z@?$modelcommands@Uiqm@@Uskelmesh@skelmodel@@@@QEAAXP6AXPEADPEAM111@ZPEBD3@Z 0000000140078b20 f i rendermodel.obj
 0001:00077bc0       ??$modelcommand@$$A6AXPEAD0PEAHPEAM2@Z@?$modelcommands@Uiqm@@Uskelmesh@skelmodel@@@@QEAAXP6AXPEAD0PEAHPEAM2@ZPEBD4@Z 0000000140078bc0 f i rendermodel.obj
 0001:00077c60       ??$modelcommand@$$A6AXPEAD0PEAM11@Z@?$modelcommands@Uiqm@@Uskelmesh@skelmodel@@@@QEAAXP6AXPEAD0PEAM11@ZPEBD3@Z 0000000140078c60 f i rendermodel.obj
 0001:00077d00       ??$modelcommand@$$A6AXPEAD0PEAMPEAH22@Z@?$modelcommands@Uiqm@@Uskelmesh@skelmodel@@@@QEAAXP6AXPEAD0PEAMPEAH22@ZPEBD4@Z 0000000140078d00 f i rendermodel.obj
 0001:00077da0       ??$modelcommand@$$A6AXPEAD@Z@?$modelcommands@Uiqm@@Uskelmesh@skelmodel@@@@QEAAXP6AXPEAD@ZPEBD2@Z 0000000140078da0 f i rendermodel.obj
 0001:00077e50       ??$modelcommand@$$A6AXPEADPEAM11111@Z@?$modelcommands@Uiqm@@Uskelmesh@skelmodel@@@@QEAAXP6AXPEADPEAM11111@ZPEBD3@Z 0000000140078e50 f i rendermodel.obj
 0001:00077ef0       ??$modelcommand@$$A6AXPEAD@Z@?$modelcommands@Umd2@@Uvertmesh@vertmodel@@@@QEAAXP6AXPEAD@ZPEBD2@Z 0000000140078ef0 f i rendermodel.obj
 0001:00077f90       ??$modelcommand@$$A6AXPEAD@Z@?$modelcommands@Umd3@@Uvertmesh@vertmodel@@@@QEAAXP6AXPEAD@ZPEBD2@Z 0000000140078f90 f i rendermodel.obj
 0001:00078030       ??$modelcommand@$$A6AXPEAD00PEAM1@Z@?$modelcommands@Umd3@@Uvertmesh@vertmodel@@@@QEAAXP6AXPEAD00PEAM1@ZPEBD3@Z 0000000140079030 f i rendermodel.obj
 0001:000780d0       ??$modelcommand@$$A6AXPEADPEAH@Z@?$modelcommands@Umd3@@Uvertmesh@vertmodel@@@@QEAAXP6AXPEADPEAH@ZPEBD3@Z 00000001400790d0 f i rendermodel.obj
 0001:00078180       ??$modelcommand@$$A6AXPEADPEAH1PEAM@Z@?$modelcommands@Umd3@@Uvertmesh@vertmodel@@@@QEAAXP6AXPEADPEAH1PEAM@ZPEBD4@Z 0000000140079180 f i rendermodel.obj
 0001:00078220       ??$modelcommand@$$A6AXPEADPEAM1@Z@?$modelcommands@Umd3@@Uvertmesh@vertmodel@@@@QEAAXP6AXPEADPEAM1@ZPEBD3@Z 0000000140079220 f i rendermodel.obj
 0001:000782d0       ??$modelcommand@$$A6AXPEAD0@Z@?$modelcommands@Umd3@@Uvertmesh@vertmodel@@@@QEAAXP6AXPEAD0@ZPEBD2@Z 00000001400792d0 f i rendermodel.obj
 0001:00078380       ??$modelcommand@$$A6AXPEAD00@Z@?$modelcommands@Umd3@@Uvertmesh@vertmodel@@@@QEAAXP6AXPEAD00@ZPEBD2@Z 0000000140079380 f i rendermodel.obj
 0001:00078420       ??$modelcommand@$$A6AXPEAH0PEADPEAM22@Z@?$modelcommands@Umd3@@Uvertmesh@vertmodel@@@@QEAAXP6AXPEAH0PEADPEAM22@ZPEBD4@Z 0000000140079420 f i rendermodel.obj
 0001:000784c0       ??$modelcommand@$$A6AXPEAD00PEAM1@Z@?$modelcommands@Umd5@@Uskelmesh@skelmodel@@@@QEAAXP6AXPEAD00PEAM1@ZPEBD3@Z 00000001400794c0 f i rendermodel.obj
 0001:00078560       ??$modelcommand@$$A6AXPEADPEAH@Z@?$modelcommands@Umd5@@Uskelmesh@skelmodel@@@@QEAAXP6AXPEADPEAH@ZPEBD3@Z 0000000140079560 f i rendermodel.obj
 0001:00078610       ??$modelcommand@$$A6AXPEADPEAH1PEAM@Z@?$modelcommands@Umd5@@Uskelmesh@skelmodel@@@@QEAAXP6AXPEADPEAH1PEAM@ZPEBD4@Z 0000000140079610 f i rendermodel.obj
 0001:000786b0       ??$modelcommand@$$A6AXPEADPEAM1@Z@?$modelcommands@Umd5@@Uskelmesh@skelmodel@@@@QEAAXP6AXPEADPEAM1@ZPEBD3@Z 00000001400796b0 f i rendermodel.obj
 0001:00078760       ??$modelcommand@$$A6AXPEADPEAM@Z@?$modelcommands@Umd5@@Uskelmesh@skelmodel@@@@QEAAXP6AXPEADPEAM@ZPEBD3@Z 0000000140079760 f i rendermodel.obj
 0001:00078810       ??$modelcommand@$$A6AXPEAD0@Z@?$modelcommands@Umd5@@Uskelmesh@skelmodel@@@@QEAAXP6AXPEAD0@ZPEBD2@Z 0000000140079810 f i rendermodel.obj
 0001:000788c0       ??$modelcommand@$$A6AXPEAD00@Z@?$modelcommands@Umd5@@Uskelmesh@skelmodel@@@@QEAAXP6AXPEAD00@ZPEBD2@Z 00000001400798c0 f i rendermodel.obj
 0001:00078960       ??$modelcommand@$$A6AXPEAH0PEADPEAM22@Z@?$modelcommands@Umd5@@Uskelmesh@skelmodel@@@@QEAAXP6AXPEAH0PEADPEAM22@ZPEBD4@Z 0000000140079960 f i rendermodel.obj
 0001:00078a00       ??$modelcommand@$$A6AXPEAD@Z@?$modelcommands@Uobj@@Uvertmesh@vertmodel@@@@QEAAXP6AXPEAD@ZPEBD2@Z 0000000140079a00 f i rendermodel.obj
 0001:00078aa0       ??$modelcommand@$$A6AXPEAD00PEAM1@Z@?$modelcommands@Uobj@@Uvertmesh@vertmodel@@@@QEAAXP6AXPEAD00PEAM1@ZPEBD3@Z 0000000140079aa0 f i rendermodel.obj
 0001:00078b40       ??$modelcommand@$$A6AXPEADPEAH@Z@?$modelcommands@Uobj@@Uvertmesh@vertmodel@@@@QEAAXP6AXPEADPEAH@ZPEBD3@Z 0000000140079b40 f i rendermodel.obj
 0001:00078bf0       ??$modelcommand@$$A6AXPEADPEAH1PEAM@Z@?$modelcommands@Uobj@@Uvertmesh@vertmodel@@@@QEAAXP6AXPEADPEAH1PEAM@ZPEBD4@Z 0000000140079bf0 f i rendermodel.obj
 0001:00078c90       ??$modelcommand@$$A6AXPEADPEAM1@Z@?$modelcommands@Uobj@@Uvertmesh@vertmodel@@@@QEAAXP6AXPEADPEAM1@ZPEBD3@Z 0000000140079c90 f i rendermodel.obj
 0001:00078d40       ??$modelcommand@$$A6AXPEAD0@Z@?$modelcommands@Uobj@@Uvertmesh@vertmodel@@@@QEAAXP6AXPEAD0@ZPEBD2@Z 0000000140079d40 f i rendermodel.obj
 0001:00078df0       ??$modelcommand@$$A6AXPEAD00@Z@?$modelcommands@Uobj@@Uvertmesh@vertmodel@@@@QEAAXP6AXPEAD00@ZPEBD2@Z 0000000140079df0 f i rendermodel.obj
 0001:00078e90       ??$modelcommand@$$A6AXPEAH0PEADPEAM22@Z@?$modelcommands@Uobj@@Uvertmesh@vertmodel@@@@QEAAXP6AXPEAH0PEADPEAM22@ZPEBD4@Z 0000000140079e90 f i rendermodel.obj
 0001:00078f30       ??$modelcommand@$$A6AXPEAD00PEAM1@Z@?$modelcommands@Usmd@@Uskelmesh@skelmodel@@@@QEAAXP6AXPEAD00PEAM1@ZPEBD3@Z 0000000140079f30 f i rendermodel.obj
 0001:00078fd0       ??$modelcommand@$$A6AXPEADPEAH@Z@?$modelcommands@Usmd@@Uskelmesh@skelmodel@@@@QEAAXP6AXPEADPEAH@ZPEBD3@Z 0000000140079fd0 f i rendermodel.obj
 0001:00079080       ??$modelcommand@$$A6AXPEADPEAH1PEAM@Z@?$modelcommands@Usmd@@Uskelmesh@skelmodel@@@@QEAAXP6AXPEADPEAH1PEAM@ZPEBD4@Z 000000014007a080 f i rendermodel.obj
 0001:00079120       ??$modelcommand@$$A6AXPEADPEAM1@Z@?$modelcommands@Usmd@@Uskelmesh@skelmodel@@@@QEAAXP6AXPEADPEAM1@ZPEBD3@Z 000000014007a120 f i rendermodel.obj
 0001:000791d0       ??$modelcommand@$$A6AXPEADPEAM@Z@?$modelcommands@Usmd@@Uskelmesh@skelmodel@@@@QEAAXP6AXPEADPEAM@ZPEBD3@Z 000000014007a1d0 f i rendermodel.obj
 0001:00079280       ??$modelcommand@$$A6AXPEAD0@Z@?$modelcommands@Usmd@@Uskelmesh@skelmodel@@@@QEAAXP6AXPEAD0@ZPEBD2@Z 000000014007a280 f i rendermodel.obj
 0001:00079330       ??$modelcommand@$$A6AXPEAD00@Z@?$modelcommands@Usmd@@Uskelmesh@skelmodel@@@@QEAAXP6AXPEAD00@ZPEBD2@Z 000000014007a330 f i rendermodel.obj
 0001:000793d0       ??$modelcommand@$$A6AXPEAH0PEADPEAM22@Z@?$modelcommands@Usmd@@Uskelmesh@skelmodel@@@@QEAAXP6AXPEAH0PEADPEAM22@ZPEBD4@Z 000000014007a3d0 f i rendermodel.obj
 0001:00079470       ??$modelcommand@$$A6AXPEAD00PEAM1@Z@?$modelcommands@Uiqm@@Uskelmesh@skelmodel@@@@QEAAXP6AXPEAD00PEAM1@ZPEBD3@Z 000000014007a470 f i rendermodel.obj
 0001:00079510       ??$modelcommand@$$A6AXPEADPEAH@Z@?$modelcommands@Uiqm@@Uskelmesh@skelmodel@@@@QEAAXP6AXPEADPEAH@ZPEBD3@Z 000000014007a510 f i rendermodel.obj
 0001:000795c0       ??$modelcommand@$$A6AXPEADPEAH1PEAM@Z@?$modelcommands@Uiqm@@Uskelmesh@skelmodel@@@@QEAAXP6AXPEADPEAH1PEAM@ZPEBD4@Z 000000014007a5c0 f i rendermodel.obj
 0001:00079660       ??$modelcommand@$$A6AXPEADPEAM1@Z@?$modelcommands@Uiqm@@Uskelmesh@skelmodel@@@@QEAAXP6AXPEADPEAM1@ZPEBD3@Z 000000014007a660 f i rendermodel.obj
 0001:00079710       ??$modelcommand@$$A6AXPEADPEAM@Z@?$modelcommands@Uiqm@@Uskelmesh@skelmodel@@@@QEAAXP6AXPEADPEAM@ZPEBD3@Z 000000014007a710 f i rendermodel.obj
 0001:000797c0       ??$modelcommand@$$A6AXPEAD0@Z@?$modelcommands@Uiqm@@Uskelmesh@skelmodel@@@@QEAAXP6AXPEAD0@ZPEBD2@Z 000000014007a7c0 f i rendermodel.obj
 0001:00079870       ??$modelcommand@$$A6AXPEAD00@Z@?$modelcommands@Uiqm@@Uskelmesh@skelmodel@@@@QEAAXP6AXPEAD00@ZPEBD2@Z 000000014007a870 f i rendermodel.obj
 0001:00079910       ??$modelcommand@$$A6AXPEAH0PEADPEAM22@Z@?$modelcommands@Uiqm@@Uskelmesh@skelmodel@@@@QEAAXP6AXPEAH0PEADPEAM22@ZPEBD4@Z 000000014007a910 f i rendermodel.obj
 0001:000799b0       ?insert@?$hashset@H@@QEAAPEAUchain@1@I@Z 000000014007a9b0 f i rendermodel.obj
 0001:00079b30       ?accumulate@matrix3x4@@QEAAXAEBU1@M@Z 000000014007ab30 f i rendermodel.obj
 0001:00079c40       ??_Emodel@@UEAAPEAXI@Z     000000014007ac40 f i * CIL library *:* CIL module *
 0001:00079c40       ??_Gmodel@@UEAAPEAXI@Z     000000014007ac40 f i rendermodel.obj
 0001:00079c80       ??0matrix3x3@@QEAA@AEBUquat@@@Z 000000014007ac80 f i rendermodel.obj
 0001:00079e00       ??0dualquat@@QEAA@AEBUquat@@AEBUvec@@@Z 000000014007ae00 f i rendermodel.obj
 0001:00079f30       ?translate@dualquat@@QEAAXAEBUvec@@@Z 000000014007af30 f i rendermodel.obj
 0001:0007a020       ?mulorient@dualquat@@QEAAXAEBUquat@@@Z 000000014007b020 f i rendermodel.obj
 0001:0007a1a0       ??$convertmatrix@Umatrix3x4@@@quat@@QEAAXAEBUmatrix3x4@@@Z 000000014007b1a0 f i rendermodel.obj
 0001:0007a370       ??0dualquat@@QEAA@AEBUmatrix3x4@@@Z 000000014007b370 f i rendermodel.obj
 0001:0007a460       ?transposemul@matrix3x4@@QEAAXAEBUmatrix3x3@@AEBUvec@@AEBU1@@Z 000000014007b460 f i rendermodel.obj
 0001:0007a760       ?invert@dualquat@@QEAAAEAU1@XZ 000000014007b760 f i rendermodel.obj
 0001:0007a870       ?mul@dualquat@@QEAAXAEBU1@@Z 000000014007b870 f i rendermodel.obj
 0001:0007a920       ?transform@dualquat@@QEBA?AUvec@@AEBU2@@Z 000000014007b920 f i rendermodel.obj
 0001:0007ab20       ?transposemul@matrix3x4@@QEAAXAEBU1@0@Z 000000014007bb20 f i rendermodel.obj
 0001:0007aeb0       ?fixantipodal@dualquat@@QEAAXAEBU1@@Z 000000014007beb0 f i rendermodel.obj
 0001:0007af30       ?mulorient@dualquat@@QEAAXAEBUquat@@AEBU1@@Z 000000014007bf30 f i rendermodel.obj
 0001:0007b440       ?rotate@matrix3x3@@QEAAXMMAEBUvec@@@Z 000000014007c440 f i rendermodel.obj
 0001:0007b5a0       ?gettranslation@dualquat@@QEBA?AUvec@@XZ 000000014007c5a0 f i rendermodel.obj
 0001:0007b6e0       ?mulorient@matrix3x4@@QEAAXAEBUmatrix3x3@@@Z 000000014007c6e0 f i rendermodel.obj
 0001:0007b910       ?mulorient@matrix3x4@@QEAAXAEBUmatrix3x3@@AEBUdualquat@@@Z 000000014007c910 f i rendermodel.obj
 0001:0007ba50       ??0matrix3x4@@QEAA@AEBUdualquat@@@Z 000000014007ca50 f i rendermodel.obj
 0001:0007bd20       ?accumulate@dualquat@@QEAAXAEBU1@M@Z 000000014007cd20 f i rendermodel.obj
 0001:0007be20       ?rotate@quat@@QEBA?AUvec@@AEBU2@@Z 000000014007ce20 f i rendermodel.obj
 0001:0007bf70       ?mul@quat@@QEAAAEAU1@AEBU1@0@Z 000000014007cf70 f i rendermodel.obj
 0001:0007c060       ?mul@dualquat@@QEAAXAEBU1@0@Z 000000014007d060 f i rendermodel.obj
 0001:0007c100       ?lerp@matrix3x4@@QEAAXAEBU1@0M@Z 000000014007d100 f i rendermodel.obj
 0001:0007c230       ?mul@matrix3x4@@QEAAXAEBU1@0@Z 000000014007d230 f i rendermodel.obj
 0001:0007c530       ??1model@@UEAA@XZ          000000014007d530 f i rendermodel.obj
 0001:0007c5a0       ?preloadBIH@model@@UEAAXXZ 000000014007d5a0 f i rendermodel.obj
 0001:0007c5b0       ?rotate_around_z@glmatrixf@@QEAAXM@Z 000000014007d5b0 f i rendermodel.obj
 0001:0007c6a0       ?rotate@glmatrixf@@QEAAXMMAEBUvec@@@Z 000000014007d6a0 f i rendermodel.obj
 0001:0007c930       ?setvariant_@Shader@@QEAAXHHPEAU1@@Z 000000014007d930 f i rendermodel.obj
 0001:0007ca00       ?calcangleaxis@matrix3x3@@QEAA_NAEAMAEAUvec@@M@Z 000000014007da00 f i rendermodel.obj
 0001:0007cca0       ?mul@matrix3x3@@QEAAXAEBU1@0@Z 000000014007dca0 f i rendermodel.obj
 0001:0007cf40       ?transposemul@matrix3x3@@QEAAXAEBU1@0@Z 000000014007df40 f i rendermodel.obj
 0001:0007d1e0       ?mul@matrix3x4@@QEAAXAEBUmatrix3x3@@AEBUvec@@AEBU1@@Z 000000014007e1e0 f i rendermodel.obj
 0001:0007d4e0       ?addblurtiles@rendertarget@@QEAA_NMMMMM@Z 000000014007e4e0 f i renderparticles.obj
 0001:0007d710       ?debugscissor@rendertarget@@QEAAXHH_N@Z 000000014007e710 f i renderparticles.obj
 0001:0007d890       ?debugblurtiles@rendertarget@@QEAAXHH_N@Z 000000014007e890 f i renderparticles.obj
 0001:0007db80       ?finalize@particleemitter@@QEAAXXZ 000000014007eb80 f i renderparticles.obj
 0001:0007ddd0       ?extendbb@particleemitter@@QEAAXAEBUvec@@M@Z 000000014007edd0 f i renderparticles.obj
 0001:0007de70       ??1partrenderer@@UEAA@XZ   000000014007ee70 f i renderparticles.obj
 0001:0007de80       ?calc@partrenderer@@QEAAXPEAUparticle@@AEAH1AEAUvec@@2_N@Z 000000014007ee80 f i renderparticles.obj
 0001:0007e280       ??_Gpartrenderer@@UEAAPEAXI@Z 000000014007f280 f i renderparticles.obj
 0001:0007e280       ??_Epartrenderer@@UEAAPEAXI@Z 000000014007f280 f i * CIL library *:* CIL module *
 0001:0007e2b0       ??1listrenderer@@UEAA@XZ   000000014007f2b0 f i renderparticles.obj
 0001:0007e2e0       ?reset@listrenderer@@UEAAXXZ 000000014007f2e0 f i renderparticles.obj
 0001:0007e360       ?resettracked@listrenderer@@UEAAXPEAUphysent@@@Z 000000014007f360 f i renderparticles.obj
 0001:0007e3b0       ?addpart@listrenderer@@UEAAPEAUparticle@@AEBUvec@@0HHMH@Z 000000014007f3b0 f i renderparticles.obj
 0001:0007e5b0       ?count@listrenderer@@UEAAHXZ 000000014007f5b0 f i renderparticles.obj
 0001:0007e5d0       ?haswork@listrenderer@@UEAA_NXZ 000000014007f5d0 f i renderparticles.obj
 0001:0007e5e0       ?render@listrenderer@@UEAAXXZ 000000014007f5e0 f i renderparticles.obj
 0001:0007e710       ??_Elistrenderer@@UEAAPEAXI@Z 000000014007f710 f i * CIL library *:* CIL module *
 0001:0007e710       ??_Glistrenderer@@UEAAPEAXI@Z 000000014007f710 f i renderparticles.obj
 0001:0007e750       ?startrender@meterrenderer@@UEAAXXZ 000000014007f750 f i renderparticles.obj
 0001:0007e7b0       ?endrender@meterrenderer@@UEAAXXZ 000000014007f7b0 f i renderparticles.obj
 0001:0007e810       ?renderpart@meterrenderer@@UEAAXPEAUlistparticle@@AEBUvec@@1HHPEAE@Z 000000014007f810 f i renderparticles.obj
 0001:0007ecb0       ??_Emeterrenderer@@UEAAPEAXI@Z 000000014007fcb0 f i * CIL library *:* CIL module *
 0001:0007ecb0       ??_Gtextrenderer@@UEAAPEAXI@Z 000000014007fcb0 f i renderparticles.obj
 0001:0007ecb0       ??_Efireballrenderer@@UEAAPEAXI@Z 000000014007fcb0 f i * CIL library *:* CIL module *
 0001:0007ecb0       ??_Gfireballrenderer@@UEAAPEAXI@Z 000000014007fcb0 f i renderparticles.obj
 0001:0007ecb0       ??_Elightningrenderer@@UEAAPEAXI@Z 000000014007fcb0 f i * CIL library *:* CIL module *
 0001:0007ecb0       ??_Glightningrenderer@@UEAAPEAXI@Z 000000014007fcb0 f i renderparticles.obj
 0001:0007ecb0       ??_Etextrenderer@@UEAAPEAXI@Z 000000014007fcb0 f i * CIL library *:* CIL module *
 0001:0007ecb0       ??_Gmeterrenderer@@UEAAPEAXI@Z 000000014007fcb0 f i renderparticles.obj
 0001:0007ecf0       ?killpart@textrenderer@@UEAAXPEAUlistparticle@@@Z 000000014007fcf0 f i renderparticles.obj
 0001:0007ed10       ?renderpart@textrenderer@@UEAAXPEAUlistparticle@@AEBUvec@@1HHPEAE@Z 000000014007fd10 f i renderparticles.obj
 0001:0007efb0       ??$genpos@$00@@YAXAEBUvec@@0MHHPEAUpartvert@@@Z 000000014007ffb0 f i renderparticles.obj
 0001:0007f180       ??$genpos@$01@@YAXAEBUvec@@0MHHPEAUpartvert@@@Z 0000000140080180 f i renderparticles.obj
 0001:0007f220       ??$genrotpos@$0A@@@YAXAEBUvec@@0MHHPEAUpartvert@@H@Z 0000000140080220 f i renderparticles.obj
 0001:0007f530       ??$seedpos@$01@@YAXAEAUparticleemitter@@AEBUvec@@1HMH@Z 0000000140080530 f i renderparticles.obj
 0001:0007f640       ?colorformats@depthfxtexture@@UEBAPEBIXZ 0000000140080640 f i renderparticles.obj
 0001:0007f6b0       ?addscissorbox@depthfxtexture@@QEAA_NAEBUvec@@0@Z 00000001400806b0 f i renderparticles.obj
 0001:0007f8b0       ?screenview@depthfxtexture@@UEBA_NXZ 00000001400808b0 f i renderparticles.obj
 0001:0007f8c0       ?texrect@depthfxtexture@@UEBA_NXZ 00000001400808c0 f i renderparticles.obj
 0001:0007f8e0       ?filter@depthfxtexture@@UEBA_NXZ 00000001400808e0 f i renderparticles.obj
 0001:0007f8f0       ?shouldrender@depthfxtexture@@UEAA_NXZ 00000001400808f0 f i renderparticles.obj
 0001:0007f950       ?dorender@depthfxtexture@@UEAA_NXZ 0000000140080950 f i renderparticles.obj
 0001:0007fa10       ?dodebug@depthfxtexture@@UEAAXHH@Z 0000000140080a10 f i renderparticles.obj
 0001:0007fce0       ?startrender@fireballrenderer@@UEAAXXZ 0000000140080ce0 f i renderparticles.obj
 0001:0007fcf0       ?endrender@fireballrenderer@@UEAAXXZ 0000000140080cf0 f i renderparticles.obj
 0001:0007fd40       ?cleanup@fireballrenderer@@UEAAXXZ 0000000140080d40 f i renderparticles.obj
 0001:0007fd50       ?finddepthfxranges@fireballrenderer@@QEAAHPEAPEAXPEAMHHAEAUvec@@2@Z 0000000140080d50 f i renderparticles.obj
 0001:000803c0       ?seedemitter@fireballrenderer@@UEAAXAEAUparticleemitter@@AEBUvec@@1HMH@Z 00000001400813c0 f i renderparticles.obj
 0001:00080410       ?renderpart@fireballrenderer@@UEAAXPEAUlistparticle@@AEBUvec@@1HHPEAE@Z 0000000140081410 f i renderparticles.obj
 0001:00080e50       ??0flarerenderer@@QEAA@PEBDH@Z 0000000140081e50 f i renderparticles.obj
 0001:00080f10       ?reset@flarerenderer@@UEAAXXZ 0000000140081f10 f i renderparticles.obj
 0001:00080f20       ?newflare@flarerenderer@@QEAAXAEAUvec@@AEBU2@EEEMM_N2@Z 0000000140081f20 f i renderparticles.obj
 0001:00081020       ?addflare@flarerenderer@@QEAAXAEAUvec@@EEE_N1@Z 0000000140082020 f i renderparticles.obj
 0001:00081240       ?makelightflares@flarerenderer@@QEAAXXZ 0000000140082240 f i renderparticles.obj
 0001:00081560       ?count@flarerenderer@@UEAAHXZ 0000000140082560 f i renderparticles.obj
 0001:00081570       ?haswork@flarerenderer@@UEAA_NXZ 0000000140082570 f i renderparticles.obj
 0001:000815a0       ?render@flarerenderer@@UEAAXXZ 00000001400825a0 f i renderparticles.obj
 0001:00081af0       ??_Gflarerenderer@@UEAAPEAXI@Z 0000000140082af0 f i renderparticles.obj
 0001:00081af0       ??_G?$varenderer@$00@@UEAAPEAXI@Z 0000000140082af0 f i renderparticles.obj
 0001:00081af0       ??_E?$varenderer@$01@@UEAAPEAXI@Z 0000000140082af0 f i * CIL library *:* CIL module *
 0001:00081af0       ??_Eflarerenderer@@UEAAPEAXI@Z 0000000140082af0 f i * CIL library *:* CIL module *
 0001:00081af0       ??_E?$varenderer@$0A@@@UEAAPEAXI@Z 0000000140082af0 f i * CIL library *:* CIL module *
 0001:00081af0       ??_G?$varenderer@$0A@@@UEAAPEAXI@Z 0000000140082af0 f i renderparticles.obj
 0001:00081af0       ??_E?$varenderer@$00@@UEAAPEAXI@Z 0000000140082af0 f i * CIL library *:* CIL module *
 0001:00081af0       ??_G?$varenderer@$01@@UEAAPEAXI@Z 0000000140082af0 f i renderparticles.obj
 0001:00081b30       ?startrender@lightningrenderer@@UEAAXXZ 0000000140082b30 f i renderparticles.obj
 0001:00081b40       ?endrender@lightningrenderer@@UEAAXXZ 0000000140082b40 f i renderparticles.obj
 0001:00081b50       ?update@lightningrenderer@@UEAAXXZ 0000000140082b50 f i renderparticles.obj
 0001:00081bb0       ?seedemitter@lightningrenderer@@UEAAXAEAUparticleemitter@@AEBUvec@@1HMH@Z 0000000140082bb0 f i renderparticles.obj
 0001:00081c00       ?renderpart@lightningrenderer@@UEAAXPEAUlistparticle@@AEBUvec@@1HHPEAE@Z 0000000140082c00 f i renderparticles.obj
 0001:00081cb0       ?init@?$varenderer@$01@@UEAAXH@Z 0000000140082cb0 f i renderparticles.obj
 0001:00081cb0       ?init@?$varenderer@$0A@@@UEAAXH@Z 0000000140082cb0 f i renderparticles.obj
 0001:00081cb0       ?init@?$varenderer@$00@@UEAAXH@Z 0000000140082cb0 f i renderparticles.obj
 0001:00081d80       ?reset@?$varenderer@$0A@@@UEAAXXZ 0000000140082d80 f i renderparticles.obj
 0001:00081d80       ?reset@?$varenderer@$00@@UEAAXXZ 0000000140082d80 f i renderparticles.obj
 0001:00081d80       ?reset@?$varenderer@$01@@UEAAXXZ 0000000140082d80 f i renderparticles.obj
 0001:00081d90       ?resettracked@?$varenderer@$01@@UEAAXPEAUphysent@@@Z 0000000140082d90 f i renderparticles.obj
 0001:00081d90       ?resettracked@?$varenderer@$00@@UEAAXPEAUphysent@@@Z 0000000140082d90 f i renderparticles.obj
 0001:00081d90       ?resettracked@?$varenderer@$0A@@@UEAAXPEAUphysent@@@Z 0000000140082d90 f i renderparticles.obj
 0001:00081de0       ?count@?$varenderer@$00@@UEAAHXZ 0000000140082de0 f i renderparticles.obj
 0001:00081de0       ?count@?$varenderer@$0A@@@UEAAHXZ 0000000140082de0 f i renderparticles.obj
 0001:00081de0       ?count@?$varenderer@$01@@UEAAHXZ 0000000140082de0 f i renderparticles.obj
 0001:00081df0       ?haswork@?$varenderer@$01@@UEAA_NXZ 0000000140082df0 f i renderparticles.obj
 0001:00081df0       ?haswork@?$varenderer@$0A@@@UEAA_NXZ 0000000140082df0 f i renderparticles.obj
 0001:00081df0       ?haswork@?$varenderer@$00@@UEAA_NXZ 0000000140082df0 f i renderparticles.obj
 0001:00081e00       ?addpart@?$varenderer@$01@@UEAAPEAUparticle@@AEBUvec@@0HHMH@Z 0000000140082e00 f i renderparticles.obj
 0001:00081e00       ?addpart@?$varenderer@$0A@@@UEAAPEAUparticle@@AEBUvec@@0HHMH@Z 0000000140082e00 f i renderparticles.obj
 0001:00081e00       ?addpart@?$varenderer@$00@@UEAAPEAUparticle@@AEBUvec@@0HHMH@Z 0000000140082e00 f i renderparticles.obj
 0001:00081f00       ?seedemitter@?$varenderer@$0A@@@UEAAXAEAUparticleemitter@@AEBUvec@@1HMH@Z 0000000140082f00 f i renderparticles.obj
 0001:00082130       ?update@?$varenderer@$0A@@@UEAAXXZ 0000000140083130 f i renderparticles.obj
 0001:00082550       ?render@?$varenderer@$01@@UEAAXXZ 0000000140083550 f i renderparticles.obj
 0001:00082550       ?render@?$varenderer@$0A@@@UEAAXXZ 0000000140083550 f i renderparticles.obj
 0001:00082550       ?render@?$varenderer@$00@@UEAAXXZ 0000000140083550 f i renderparticles.obj
 0001:000825f0       ?seedemitter@?$varenderer@$01@@UEAAXAEAUparticleemitter@@AEBUvec@@1HMH@Z 00000001400835f0 f i renderparticles.obj
 0001:00082830       ?update@?$varenderer@$01@@UEAAXXZ 0000000140083830 f i renderparticles.obj
 0001:00082ce0       ?seedemitter@?$varenderer@$00@@UEAAXAEAUparticleemitter@@AEBUvec@@1HMH@Z 0000000140083ce0 f i renderparticles.obj
 0001:00082f00       ?update@?$varenderer@$00@@UEAAXXZ 0000000140083f00 f i renderparticles.obj
 0001:000832a0       ?growbuf@?$vector@Uparticleemitter@@@@QEAAXH@Z 00000001400842a0 f i renderparticles.obj
 0001:00083330       ?genverts@?$varenderer@$0A@@@QEAAXPEAUparticle@@PEAUpartvert@@_N@Z 0000000140084330 f i renderparticles.obj
 0001:00083630       ?genverts@?$varenderer@$01@@QEAAXPEAUparticle@@PEAUpartvert@@_N@Z 0000000140084630 f i renderparticles.obj
 0001:00083960       ?genverts@?$varenderer@$00@@QEAAXPEAUparticle@@PEAUpartvert@@_N@Z 0000000140084960 f i renderparticles.obj
 0001:00083bc0       ??0domevert@@QEAA@AEBU0@0@Z 0000000140084bc0 f i rendersky.obj
 0001:00083ca0       ??4?$vector@PEAUTexture@@@@QEAAAEAU0@AEBU0@@Z 0000000140084ca0 f i rendertext.obj
 0001:00083d40       ??4?$vector@Ucharinfo@font@@@@QEAAAEAU0@AEBU0@@Z 0000000140084d40 f i rendertext.obj
 0001:00083df0       ??0?$hashset@Ufont@@@@QEAA@H@Z 0000000140084df0 f i rendertext.obj
 0001:00083e70       ??1?$hashset@Ufont@@@@QEAA@XZ 0000000140084e70 f i rendertext.obj
 0001:00083f00       ?growbuf@?$vector@PEAUfont@@@@QEAAXH@Z 0000000140084f00 f i rendertext.obj
 0001:00083fa0       ??1chain@?$hashset@Ufont@@@@QEAA@XZ 0000000140084fa0 f i rendertext.obj
 0001:00083fc0       ??$access@PEBD@?$hashset@Ufont@@@@QEAAPEAUfont@@AEBQEBD@Z 0000000140084fc0 f i rendertext.obj
 0001:00084050       ?insert@?$hashset@Ufont@@@@QEAAPEAUchain@1@I@Z 0000000140085050 f i rendertext.obj
 0001:00084210       ??0chain@?$hashset@Ufont@@@@QEAA@XZ 0000000140085210 f i rendertext.obj
 0001:00084250       ??1font@@QEAA@XZ           0000000140085250 f i rendertext.obj
 0001:000842c0       ?compare@geombatch@@QEBAHAEBU1@@Z 00000001400852c0 f i renderva.obj
 0001:00084390       ?growbuf@?$vector@Ugeombatch@@@@QEAAXH@Z 0000000140085390 f i renderva.obj
 0001:00084430       ?setvariant@Shader@@QEAAXHHAEAUSlot@@AEAUVSlot@@@Z 0000000140085430 f i renderva.obj
 0001:00084490       ?setvariant@Shader@@QEAAXHHAEAUSlot@@AEAUVSlot@@PEAU1@@Z 0000000140085490 f i renderva.obj
 0001:00084500       ?access@?$hashtable@PEBDUShader@@@@QEAAPEAUShader@@AEBQEBD@Z 0000000140085500 f i shader.obj
 0001:00084590       ??A?$hashtable@PEBDUShader@@@@QEAAAEAUShader@@AEBQEBD@Z 0000000140085590 f i shader.obj
 0001:00084640       ??1?$hashset@U?$hashtableentry@PEBDUShader@@@@@@QEAA@XZ 0000000140085640 f i shader.obj
 0001:000846d0       ?insert@?$vector@D@@QEAAPEADHPEBDH@Z 00000001400856d0 f i shader.obj
 0001:000847b0       ??0?$hashset@PEBD@@QEAA@H@Z 00000001400857b0 f i shader.obj
 0001:00084830       ?add@?$vector@Upostfxpass@@@@QEAAAEAUpostfxpass@@XZ 0000000140085830 f i shader.obj
 0001:000848c0       ??0?$hashset@U?$hashtableentry@PEBDUShader@@@@@@QEAA@H@Z 00000001400858c0 f i shader.obj
 0001:00084940       ?growbuf@?$vector@Upostfxtex@@@@QEAAXH@Z 0000000140085940 f i shader.obj
 0001:000849e0       ?growbuf@?$vector@Upostfxpass@@@@QEAAXH@Z 00000001400859e0 f i shader.obj
 0001:00084a80       ??1chain@?$hashset@U?$hashtableentry@PEBDUShader@@@@@@QEAA@XZ 0000000140085a80 f i shader.obj
 0001:00084ab0       ??1?$hashtableentry@PEBDUShader@@@@QEAA@XZ 0000000140085ab0 f i shader.obj
 0001:00084ad0       ?insert@?$hashset@U?$hashtableentry@PEBDUShader@@@@@@QEAAPEAUchain@1@I@Z 0000000140085ad0 f i shader.obj
 0001:00084bf0       ??0chain@?$hashset@U?$hashtableentry@PEBDUShader@@@@@@QEAA@XZ 0000000140085bf0 f i shader.obj
 0001:00084c20       ??$remove@PEAD@?$hashset@U?$hashtableentry@PEBDUShader@@@@@@QEAA_NAEBQEAD@Z 0000000140085c20 f i shader.obj
 0001:00084d20       ?insert@?$hashset@PEBD@@QEAAPEAUchain@1@I@Z 0000000140085d20 f i shader.obj
 0001:00084ea0       ??0Shader@@QEAA@XZ         0000000140085ea0 f i shader.obj
 0001:00084f80       ??1Shader@@QEAA@XZ         0000000140085f80 f i shader.obj
 0001:000850c0       ?checkblurtiles@rendertarget@@QEAA_NMMMMM@Z 00000001400860c0 f i shadowmap.obj
 0001:00085280       ?attachment@shadowmaptexture@@UEBAIXZ 0000000140086280 f i shadowmap.obj
 0001:000852a0       ?colorformats@shadowmaptexture@@UEBAPEBIXZ 00000001400862a0 f i shadowmap.obj
 0001:00085300       ?shadowcompare@shadowmaptexture@@UEBA_NXZ 0000000140086300 f i shadowmap.obj
 0001:00085310       ?filter@shadowmaptexture@@UEBA_NXZ 0000000140086310 f i shadowmap.obj
 0001:00085330       ?swaptexs@shadowmaptexture@@UEBA_NXZ 0000000140086330 f i shadowmap.obj
 0001:00085340       ?scissorblur@shadowmaptexture@@UEAA_NAEAH000@Z 0000000140086340 f i shadowmap.obj
 0001:00085500       ?scissorrender@shadowmaptexture@@UEAA_NAEAH000@Z 0000000140086500 f i shadowmap.obj
 0001:00085530       ?doclear@shadowmaptexture@@UEAAXXZ 0000000140086530 f i shadowmap.obj
 0001:000855d0       ?dorender@shadowmaptexture@@UEAA_NXZ 00000001400865d0 f i shadowmap.obj
 0001:00085e30       ?dodebug@shadowmaptexture@@UEAAXHH@Z 0000000140086e30 f i shadowmap.obj
 0001:00085ec0       ?projective@glmatrixf@@QEAAXMM@Z 0000000140086ec0 f i shadowmap.obj
 0001:00085fd0       ??1?$hashtable@PEADUTexture@@@@QEAA@XZ 0000000140086fd0 f i texture.obj
 0001:00086050       ??1MSlot@@QEAA@XZ          0000000140087050 f i texture.obj
 0001:000860a0       ?deletecontents@?$vector@PEAUSlot@@@@QEAAXXZ 00000001400870a0 f i texture.obj
 0001:00086140       ?deletecontents@?$vector@PEAUVSlot@@@@QEAAXXZ 0000000140087140 f i texture.obj
 0001:000861c0       ??A?$hashtable@PEADUTexture@@@@QEAAAEAUTexture@@AEBQEAD@Z 00000001400871c0 f i texture.obj
 0001:00086270       ??1?$hashset@U?$hashtableentry@PEADUTexture@@@@@@QEAA@XZ 0000000140087270 f i texture.obj
 0001:000862d0       ?growbuf@?$vector@UTex@Slot@@@@QEAAXH@Z 00000001400872d0 f i texture.obj
 0001:00086370       ?growbuf@?$vector@PEAUSlot@@@@QEAAXH@Z 0000000140087370 f i texture.obj
 0001:00086410       ??0?$hashset@U?$hashtableentry@PEADUTexture@@@@@@QEAA@H@Z 0000000140087410 f i texture.obj
 0001:00086490       ?growbuf@?$vector@Uenvmap@@@@QEAAXH@Z 0000000140087490 f i texture.obj
 0001:00086520       ?insert@?$hashset@U?$hashtableentry@PEADUTexture@@@@@@QEAAPEAUchain@1@I@Z 0000000140087520 f i texture.obj
 0001:00086610       ??$remove@PEAD@?$hashset@U?$hashtableentry@PEADUTexture@@@@@@QEAA_NAEBQEAD@Z 0000000140087610 f i texture.obj
 0001:000866f0       ??_GImageData@@QEAAPEAXI@Z 00000001400876f0 f i texture.obj
 0001:00086740       ?reset@Slot@@QEAAXXZ       0000000140087740 f i texture.obj
 0001:000867e0       ??0Slot@@QEAA@H@Z          00000001400877e0 f i texture.obj
 0001:00086830       ??1Slot@@QEAA@XZ           0000000140087830 f i texture.obj
 0001:000868a0       ??0MSlot@@QEAA@XZ          00000001400878a0 f i texture.obj
 0001:00086900       ?wrap@ImageData@@QEAAXPEAUSDL_Surface@@@Z 0000000140087900 f i texture.obj
 0001:000869b0       ??0Reflection@@QEAA@XZ     00000001400879b0 f i water.obj
 0001:000869f0       ??1Reflection@@QEAA@XZ     00000001400879f0 f i water.obj
 0001:00086a20       ??Rsortfun@@QEAA_NAEBUsortitem@@0@Z 0000000140087a20 f i command.obj
 0001:00086b00       ??0?$hashset@Uident@@@@QEAA@H@Z 0000000140087b00 f i command.obj
 0001:00086b80       ?growbuf@?$vector@Usleepcmd@@@@QEAAXH@Z 0000000140087b80 f i command.obj
 0001:00086c20       ??$access@PEBDUident@@@?$hashset@Uident@@@@QEAAAEAUident@@AEBQEBDAEBU1@@Z 0000000140087c20 f i command.obj
 0001:00086ce0       ??$access@PEBD@?$hashset@Uident@@@@QEAAPEAUident@@AEBQEBD@Z 0000000140087ce0 f i command.obj
 0001:00086ce0       ??$access@PEAD@?$hashset@Uident@@@@QEAAPEAUident@@AEBQEAD@Z 0000000140087ce0 f i command.obj
 0001:00086d70       ?insert@?$hashset@Uident@@@@QEAAPEAUchain@1@I@Z 0000000140087d70 f i command.obj
 0001:00086e40       ?getval@ident@@QEBAXAEAUtagval@@@Z 0000000140087e40 f i command.obj
 0001:00086eb0       ?getint@ident@@QEBAHXZ     0000000140087eb0 f i command.obj
 0001:00086ee0       ?getstr@tagval@@QEBAPEBDXZ 0000000140087ee0 f i command.obj
 0001:00086f10       ?getstr@ident@@QEBAPEBDXZ  0000000140087f10 f i command.obj
 0001:00086f50       ??1keym@@QEAA@XZ           0000000140087f50 f i console.obj
 0001:00086fb0       ?restore@hline@@QEAAXXZ    0000000140087fb0 f i console.obj
 0001:000870a0       ?shouldsave@hline@@QEAA_NXZ 00000001400880a0 f i console.obj
 0001:00087160       ?save@hline@@QEAAXXZ       0000000140088160 f i console.obj
 0001:00087200       ?run@hline@@QEAAXXZ        0000000140088200 f i console.obj
 0001:00087270       ?comparefiles@filesval@@SA_NPEBD0@Z 0000000140088270 f i console.obj
 0001:00087290       ?update@filesval@@QEAAXXZ  0000000140088290 f i console.obj
 0001:00087400       ??1?$hashtable@Ufileskey@@PEAUfilesval@@@@QEAA@XZ 0000000140088400 f i console.obj
 0001:00087480       ??1?$hashtable@PEADPEAUfilesval@@@@QEAA@XZ 0000000140088480 f i console.obj
 0001:00087500       ??1?$hashset@U?$hashtableentry@HUkeym@@@@@@QEAA@XZ 0000000140088500 f i console.obj
 0001:00087530       ?clear@?$hashset@U?$hashtableentry@HUkeym@@@@@@QEAAXXZ 0000000140088530 f i console.obj
 0001:000875f0       ?access@?$hashtable@Ufileskey@@PEAUfilesval@@@@QEAAPEAPEAUfilesval@@AEBUfileskey@@@Z 00000001400885f0 f i console.obj
 0001:000876c0       ??A?$hashtable@Ufileskey@@PEAUfilesval@@@@QEAAAEAPEAUfilesval@@AEBUfileskey@@@Z 00000001400886c0 f i console.obj
 0001:000877b0       ??1?$hashset@U?$hashtableentry@Ufileskey@@PEAUfilesval@@@@@@QEAA@XZ 00000001400887b0 f i console.obj
 0001:00087810       ?access@?$hashtable@PEADPEAUfilesval@@@@QEAAPEAPEAUfilesval@@AEBQEAD@Z 0000000140088810 f i console.obj
 0001:000878a0       ??1?$hashset@U?$hashtableentry@PEADPEAUfilesval@@@@@@QEAA@XZ 00000001400888a0 f i console.obj
 0001:00087900       ??0?$hashset@U?$hashtableentry@HUkeym@@@@@@QEAA@H@Z 0000000140088900 f i console.obj
 0001:00087980       ?deletechunks@?$hashset@U?$hashtableentry@HUkeym@@@@@@QEAAXXZ 0000000140088980 f i console.obj
 0001:000879f0       ?growbuf@?$vector@PEAUhline@@@@QEAAXH@Z 00000001400889f0 f i console.obj
 0001:00087a90       ?growbuf@?$vector@Ureleaseaction@@@@QEAAXH@Z 0000000140088a90 f i console.obj
 0001:00087b30       ??0?$hashset@U?$hashtableentry@Ufileskey@@PEAUfilesval@@@@@@QEAA@H@Z 0000000140088b30 f i console.obj
 0001:00087bb0       ??0?$hashset@U?$hashtableentry@PEADPEAUfilesval@@@@@@QEAA@H@Z 0000000140088bb0 f i console.obj
 0001:00087c30       ??1chain@?$hashset@U?$hashtableentry@HUkeym@@@@@@QEAA@XZ 0000000140088c30 f i console.obj
 0001:00087c50       ??1?$hashtableentry@HUkeym@@@@QEAA@XZ 0000000140088c50 f i console.obj
 0001:00087cc0       ?insert@?$hashset@U?$hashtableentry@HUkeym@@@@@@QEAAPEAUchain@1@I@Z 0000000140088cc0 f i console.obj
 0001:00087e80       ?insert@?$hashset@U?$hashtableentry@Ufileskey@@PEAUfilesval@@@@@@QEAAPEAUchain@1@I@Z 0000000140088e80 f i console.obj
 0001:00087f50       ??0chain@?$hashset@U?$hashtableentry@HUkeym@@@@@@QEAA@XZ 0000000140088f50 f i console.obj
 0001:00087f80       ??0?$hashtableentry@HUkeym@@@@QEAA@XZ 0000000140088f80 f i console.obj
 0001:00088000       ?add@?$vector@TSDL_Event@@@@QEAAAEATSDL_Event@@AEBT2@@Z 0000000140089000 f i main.obj
 0001:00088080       ?growbuf@?$vector@TSDL_Event@@@@QEAAXH@Z 0000000140089080 f i main.obj
 0001:00088120       ?gui@menu@@UEAAXAEAUg3d_gui@@_N@Z 0000000140089120 f i menus.obj
 0001:000881b0       ?clear@menu@@UEAAXXZ       00000001400891b0 f i menus.obj
 0001:000881e0       ??1menu@@UEAA@XZ           00000001400891e0 f i menus.obj
 0001:00088200       ?getstring@delayedupdate@@QEBAPEBDXZ 0000000140089200 f i menus.obj
 0001:00088260       ?run@delayedupdate@@QEAAXXZ 0000000140089260 f i menus.obj
 0001:000883c0       ?gui@applymenu@@UEAAXAEAUg3d_gui@@_N@Z 00000001400893c0 f i menus.obj
 0001:000885c0       ?clear@applymenu@@UEAAXXZ  00000001400895c0 f i menus.obj
 0001:00088600       ??_Eapplymenu@@UEAAPEAXI@Z 0000000140089600 f i * CIL library *:* CIL module *
 0001:00088600       ??_Gapplymenu@@UEAAPEAXI@Z 0000000140089600 f i menus.obj
 0001:00088640       ?access@?$hashtable@PEBDUmenu@@@@QEAAPEAUmenu@@AEBQEBD@Z 0000000140089640 f i menus.obj
 0001:000886d0       ??A?$hashtable@PEBDUmenu@@@@QEAAAEAUmenu@@AEBQEBD@Z 00000001400896d0 f i menus.obj
 0001:00088780       ??1?$hashset@U?$hashtableentry@PEBDUmenu@@@@@@QEAA@XZ 0000000140089780 f i menus.obj
 0001:00088810       ?insert@?$vector@PEAUmenu@@@@QEAAAEAPEAUmenu@@HAEBQEAU2@@Z 0000000140089810 f i menus.obj
 0001:000888c0       ?add@?$vector@Udelayedupdate@@@@QEAAAEAUdelayedupdate@@XZ 00000001400898c0 f i menus.obj
 0001:00088950       ?shrink@?$vector@Udelayedupdate@@@@QEAAXH@Z 0000000140089950 f i menus.obj
 0001:000889c0       ??0?$hashset@U?$hashtableentry@PEBDUmenu@@@@@@QEAA@H@Z 00000001400899c0 f i menus.obj
 0001:00088a40       ?growbuf@?$vector@PEAUmenu@@@@QEAAXH@Z 0000000140089a40 f i menus.obj
 0001:00088ae0       ?growbuf@?$vector@Udelayedupdate@@@@QEAAXH@Z 0000000140089ae0 f i menus.obj
 0001:00088b80       ?growbuf@?$vector@Uchange@@@@QEAAXH@Z 0000000140089b80 f i menus.obj
 0001:00088c20       ??1chain@?$hashset@U?$hashtableentry@PEBDUmenu@@@@@@QEAA@XZ 0000000140089c20 f i menus.obj
 0001:00088c50       ??1?$hashtableentry@PEBDUmenu@@@@QEAA@XZ 0000000140089c50 f i menus.obj
 0001:00088c80       ?insert@?$hashset@U?$hashtableentry@PEBDUmenu@@@@@@QEAAPEAUchain@1@I@Z 0000000140089c80 f i menus.obj
 0001:00088d80       ??0chain@?$hashset@U?$hashtableentry@PEBDUmenu@@@@@@QEAA@XZ 0000000140089d80 f i menus.obj
 0001:00088de0       ?addindex@aviwriter@@QEAAAEAUaviindexentry@@HHH@Z 0000000140089de0 f i movie.obj
 0001:00088f10       ?endlistchunk@aviwriter@@QEAAXXZ 0000000140089f10 f i movie.obj
 0001:00088fa0       ?close@aviwriter@@QEAAXXZ  0000000140089fa0 f i movie.obj
 0001:00089320       ??0aviwriter@@QEAA@PEBDIII_N@Z 000000014008a320 f i movie.obj
 0001:00089520       ??1aviwriter@@QEAA@XZ      000000014008a520 f i movie.obj
 0001:000895b0       ?open@aviwriter@@QEAA_NXZ  000000014008a5b0 f i movie.obj
 0001:0008a770       ?boxsample@aviwriter@@SAXPEBEIIIIIIIIAEAI11@Z 000000014008b770 f i movie.obj
 0001:0008ab40       ?scaleyuv@aviwriter@@QEAAXPEBEII@Z 000000014008bb40 f i movie.obj
 0001:0008b130       ?encodeyuv@aviwriter@@QEAAXPEBE@Z 000000014008c130 f i movie.obj
 0001:0008b480       ?compressyuv@aviwriter@@QEAAXPEBE@Z 000000014008c480 f i movie.obj
 0001:0008b660       ?writesound@aviwriter@@QEAA_NPEAEII@Z 000000014008c660 f i movie.obj
 0001:0008b8d0       ?flushsegment@aviwriter@@QEAAXXZ 000000014008c8d0 f i movie.obj
 0001:0008be30       ?nextsegment@aviwriter@@QEAA_NXZ 000000014008ce30 f i movie.obj
 0001:0008bfd0       ?writevideoframe@aviwriter@@QEAA_NPEBEIIHI@Z 000000014008cfd0 f i movie.obj
 0001:0008c130       ??0soundbuffer@recorder@@QEAA@XZ 000000014008d130 f i movie.obj
 0001:0008c140       ??1soundbuffer@recorder@@QEAA@XZ 000000014008d140 f i movie.obj
 0001:0008c170       ?init@videobuffer@recorder@@QEAAXHHH@Z 000000014008d170 f i movie.obj
 0001:0008c1e0       ?hasslot@soundconfig@@QEBA_NPEBUsoundslot@@AEBU?$vector@Usoundslot@@@@@Z 000000014008d1e0 f i sound.obj
 0001:0008c220       ??1?$hashset@U?$hashtableentry@PEBDUsoundsample@@@@@@QEAA@XZ 000000014008d220 f i sound.obj
 0001:0008c250       ?clear@?$hashset@U?$hashtableentry@PEBDUsoundsample@@@@@@QEAAXXZ 000000014008d250 f i sound.obj
 0001:0008c300       ?growbuf@?$vector@Usoundchannel@@@@QEAAXH@Z 000000014008d300 f i sound.obj
 0001:0008c3a0       ??0?$hashset@U?$hashtableentry@PEBDUsoundsample@@@@@@QEAA@H@Z 000000014008d3a0 f i sound.obj
 0001:0008c420       ?deletechunks@?$hashset@U?$hashtableentry@PEBDUsoundsample@@@@@@QEAAXXZ 000000014008d420 f i sound.obj
 0001:0008c4b0       ??1chain@?$hashset@U?$hashtableentry@PEBDUsoundsample@@@@@@QEAA@XZ 000000014008d4b0 f i sound.obj
 0001:0008c4b0       ??1chain@?$hashset@U?$hashtableentry@PEBDUzipfile@@@@@@QEAA@XZ 000000014008d4b0 f i zip.obj
 0001:0008c4f0       ??1?$hashtableentry@PEBDUsoundsample@@@@QEAA@XZ 000000014008d4f0 f i sound.obj
 0001:0008c4f0       ??1?$hashtableentry@PEBDUzipfile@@@@QEAA@XZ 000000014008d4f0 f i zip.obj
 0001:0008c530       ?insert@?$hashset@U?$hashtableentry@PEBDUsoundsample@@@@@@QEAAPEAUchain@1@I@Z 000000014008d530 f i sound.obj
 0001:0008c6f0       ??0chain@?$hashset@U?$hashtableentry@PEBDUsoundsample@@@@@@QEAA@XZ 000000014008d6f0 f i sound.obj
 0001:0008c720       ?invert@gfield@@QEAA_NAEBU1@@Z 000000014008d720 f i crypto.obj
 0001:0008cf00       ?sqrt@gfield@@QEAA_NAEBU1@@Z 000000014008df00 f i crypto.obj
 0001:0008d030       ?mul2@ecjacobian@@QEAAXXZ  000000014008e030 f i crypto.obj
 0001:0008ddb0       ?add@ecjacobian@@QEAAXAEBU1@@Z 000000014008edb0 f i crypto.obj
 0001:0008f1a0       ?normalize@ecjacobian@@QEAAXXZ 00000001400901a0 f i crypto.obj
 0001:0008f460       ?calcy@ecjacobian@@QEAA_N_N@Z 0000000140090460 f i crypto.obj
 0001:0008f8b0       ?parse@ecjacobian@@QEAAXPEBD@Z 00000001400908b0 f i crypto.obj
 0001:0008f920       ?printdigits@?$bigint@$0M@@@QEBAXAEAU?$vector@D@@@Z 0000000140090920 f i crypto.obj
 0001:0008f920       ?printdigits@?$bigint@$0N@@@QEBAXAEAU?$vector@D@@@Z 0000000140090920 f i crypto.obj
 0001:0008fab0       ?rshift@?$bigint@$0N@@@QEAAAEAU1@H@Z 0000000140090ab0 f i crypto.obj
 0001:0008fbd0       ?parsedigits@?$bigint@$0N@@@SAHPEAGHPEBD@Z 0000000140090bd0 f i crypto.obj
 0001:0008fcd0       ??$add@$0N@$0N@@?$bigint@$0N@@@QEAAAEAU0@AEBU0@0@Z 0000000140090cd0 f i crypto.obj
 0001:0008fd90       ??$sub@$0N@$0N@@?$bigint@$0N@@@QEAAAEAU0@AEBU0@0@Z 0000000140090d90 f i crypto.obj
 0001:0008fea0       ??$legendre@$0N@@gfield@@SAHAEBU?$bigint@$0N@@@@Z 0000000140090ea0 f i crypto.obj
 0001:0008fff0       ??$pow@$0N@$0N@@gfield@@QEAAAEAU0@AEBU?$bigint@$0N@@@0@Z 0000000140090ff0 f i crypto.obj
 0001:00090310       ??$sub@$0N@$0N@@gfield@@QEAAAEAU0@AEBU?$bigint@$0N@@@0@Z 0000000140091310 f i crypto.obj
 0001:00090470       ??$mul@$0N@@gfield@@QEAAAEAU0@AEBU?$bigint@$0N@@@@Z 0000000140091470 f i crypto.obj
 0001:000904b0       ??$add@$0N@$0N@@gfield@@QEAAAEAU0@AEBU?$bigint@$0N@@@0@Z 00000001400914b0 f i crypto.obj
 0001:00090530       ??$mul@$0N@$0N@@?$bigint@$0BK@@@QEAAAEAU0@AEBU?$bigint@$0N@@@0@Z 0000000140091530 f i crypto.obj
 0001:00090630       ??$reduce@$0BK@@gfield@@QEAAXAEBU?$bigint@$0BK@@@@Z 0000000140091630 f i crypto.obj
 0001:000909d0       ?close@filestream@@UEAAXXZ 00000001400919d0 f i stream.obj
 0001:00090a00       ?end@filestream@@UEAA_NXZ  0000000140091a00 f i stream.obj
 0001:00090a20       ?tell@filestream@@UEAA_JXZ 0000000140091a20 f i stream.obj
 0001:00090a30       ?seek@filestream@@UEAA_N_JH@Z 0000000140091a30 f i stream.obj
 0001:00090a50       ?read@filestream@@UEAA_KPEAX_K@Z 0000000140091a50 f i stream.obj
 0001:00090a70       ?write@filestream@@UEAA_KPEBX_K@Z 0000000140091a70 f i stream.obj
 0001:00090a90       ?flush@filestream@@UEAA_NXZ 0000000140091a90 f i stream.obj
 0001:00090ab0       ?getchar@filestream@@UEAAHXZ 0000000140091ab0 f i stream.obj
 0001:00090ac0       ?putchar@filestream@@UEAA_NH@Z 0000000140091ac0 f i stream.obj
 0001:00090ae0       ?getline@filestream@@UEAA_NPEAD_K@Z 0000000140091ae0 f i stream.obj
 0001:00090b10       ?putstring@filestream@@UEAA_NPEBD@Z 0000000140091b10 f i stream.obj
 0001:00090b30       ?printf@filestream@@UEAA_KPEBDZZ 0000000140091b30 f i stream.obj
 0001:00090b60       ??_Gfilestream@@UEAAPEAXI@Z 0000000140091b60 f i stream.obj
 0001:00090b60       ??_Efilestream@@UEAAPEAXI@Z 0000000140091b60 f i * CIL library *:* CIL module *
 0001:00090bd0       ?readbyte@gzstream@@QEAAE_K@Z 0000000140091bd0 f i stream.obj
 0001:00090c30       ?checkheader@gzstream@@QEAA_NXZ 0000000140091c30 f i stream.obj
 0001:00090f50       ?open@gzstream@@QEAA_NPEAUstream@@PEBD_NH@Z 0000000140091f50 f i stream.obj
 0001:000910d0       ?getcrc@gzstream@@UEAAIXZ  00000001400920d0 f i stream.obj
 0001:000910e0       ?finishreading@gzstream@@QEAAXXZ 00000001400920e0 f i stream.obj
 0001:00091230       ?finishwriting@gzstream@@QEAAXXZ 0000000140092230 f i stream.obj
 0001:00091320       ?close@gzstream@@UEAAXXZ   0000000140092320 f i stream.obj
 0001:000913b0       ?end@gzstream@@UEAA_NXZ    00000001400923b0 f i stream.obj
 0001:000913d0       ?tell@gzstream@@UEAA_JXZ   00000001400923d0 f i stream.obj
 0001:000913f0       ?rawtell@gzstream@@UEAA_JXZ 00000001400923f0 f i stream.obj
 0001:00091410       ?size@gzstream@@UEAA_JXZ   0000000140092410 f i stream.obj
 0001:000914c0       ?rawsize@gzstream@@UEAA_JXZ 00000001400924c0 f i stream.obj
 0001:000914e0       ?seek@gzstream@@UEAA_N_JH@Z 00000001400924e0 f i stream.obj
 0001:00091660       ?read@gzstream@@UEAA_KPEAX_K@Z 0000000140092660 f i stream.obj
 0001:00091790       ?flush@gzstream@@UEAA_NXZ  0000000140092790 f i stream.obj
 0001:00091810       ?write@gzstream@@UEAA_KPEBX_K@Z 0000000140092810 f i stream.obj
 0001:00091910       ??_Egzstream@@UEAAPEAXI@Z  0000000140092910 f i * CIL library *:* CIL module *
 0001:00091910       ??_Ggzstream@@UEAAPEAXI@Z  0000000140092910 f i stream.obj
 0001:00091970       ?readbuf@utf8stream@@QEAA_N_K@Z 0000000140092970 f i stream.obj
 0001:00091a80       ?checkheader@utf8stream@@QEAA_NXZ 0000000140092a80 f i stream.obj
 0001:00091ae0       ?open@utf8stream@@QEAA_NPEAUstream@@PEBD_N@Z 0000000140092ae0 f i stream.obj
 0001:00091b80       ?close@utf8stream@@UEAAXXZ 0000000140092b80 f i stream.obj
 0001:00091bd0       ?end@utf8stream@@UEAA_NXZ  0000000140092bd0 f i stream.obj
 0001:00091bf0       ?tell@utf8stream@@UEAA_JXZ 0000000140092bf0 f i stream.obj
 0001:00091c10       ?seek@utf8stream@@UEAA_N_JH@Z 0000000140092c10 f i stream.obj
 0001:00091d50       ?read@utf8stream@@UEAA_KPEAX_K@Z 0000000140092d50 f i stream.obj
 0001:00091e30       ?getline@utf8stream@@UEAA_NPEAD_K@Z 0000000140092e30 f i stream.obj
 0001:00091f50       ?write@utf8stream@@UEAA_KPEBX_K@Z 0000000140092f50 f i stream.obj
 0001:000921d0       ?flush@utf8stream@@UEAA_NXZ 00000001400931d0 f i stream.obj
 0001:000921e0       ??_Eutf8stream@@UEAAPEAXI@Z 00000001400931e0 f i * CIL library *:* CIL module *
 0001:000921e0       ??_Gutf8stream@@UEAAPEAXI@Z 00000001400931e0 f i stream.obj
 0001:00092270       ?growbuf@?$vector@Upackagedir@@@@QEAAXH@Z 0000000140093270 f i stream.obj
 0001:00092310       ??_Estream@@UEAAPEAXI@Z    0000000140093310 f i * CIL library *:* CIL module *
 0001:00092310       ??_Gstream@@UEAAPEAXI@Z    0000000140093310 f i stream.obj
 0001:00092340       ?rawtell@stream@@UEAA_JXZ  0000000140093340 f i stream.obj
 0001:00092350       ?rawsize@stream@@UEAA_JXZ  0000000140093350 f i stream.obj
 0001:00092360       ?getchar@stream@@UEAAHXZ   0000000140093360 f i stream.obj
 0001:00092390       ?putstring@stream@@UEAA_NPEBD@Z 0000000140093390 f i stream.obj
 0001:000923c0       ?putchar@stream@@UEAA_NH@Z 00000001400933c0 f i stream.obj
 0001:000923f0       ?putline@stream@@UEAA_NPEBD@Z 00000001400933f0 f i stream.obj
 0001:00092430       ??1stream@@UEAA@XZ         0000000140093430 f i stream.obj
 0001:00092440       ?tell@stream@@UEAA_JXZ     0000000140093440 f i stream.obj
 0001:00092450       ?put@packetbuf@@QEAAXAEBE@Z 0000000140093450 f i tools.obj
 0001:000924e0       ??1?$hashtable@PEBDUzipfile@@@@QEAA@XZ 00000001400934e0 f i zip.obj
 0001:00092520       ??_Gziparchive@@QEAAPEAXI@Z 0000000140093520 f i zip.obj
 0001:000925b0       ?readbuf@zipstream@@QEAAXI@Z 00000001400935b0 f i zip.obj
 0001:00092670       ?open@zipstream@@QEAA_NPEAUziparchive@@PEAUzipfile@@@Z 0000000140093670 f i zip.obj
 0001:00092740       ?stopreading@zipstream@@QEAAXXZ 0000000140093740 f i zip.obj
 0001:000927c0       ?close@zipstream@@UEAAXXZ  00000001400937c0 f i zip.obj
 0001:00092810       ?size@zipstream@@UEAA_JXZ  0000000140093810 f i zip.obj
 0001:00092820       ?end@zipstream@@UEAA_NXZ   0000000140093820 f i zip.obj
 0001:00092840       ?tell@zipstream@@UEAA_JXZ  0000000140093840 f i zip.obj
 0001:00092860       ?seek@zipstream@@UEAA_N_JH@Z 0000000140093860 f i zip.obj
 0001:00092a30       ?read@zipstream@@UEAA_KPEAX_K@Z 0000000140093a30 f i zip.obj
 0001:00092bc0       ??_Gzipstream@@UEAAPEAXI@Z 0000000140093bc0 f i zip.obj
 0001:00092bc0       ??_Ezipstream@@UEAAPEAXI@Z 0000000140093bc0 f i * CIL library *:* CIL module *
 0001:00092c50       ??1?$hashset@U?$hashtableentry@PEBDUzipfile@@@@@@QEAA@XZ 0000000140093c50 f i zip.obj
 0001:00092c80       ??1?$vector@Uzipfile@@@@QEAA@XZ 0000000140093c80 f i zip.obj
 0001:00092cf0       ??0?$hashset@U?$hashtableentry@PEBDUzipfile@@@@@@QEAA@H@Z 0000000140093cf0 f i zip.obj
 0001:00092d80       ?deletechunks@?$hashset@U?$hashtableentry@PEBDUzipfile@@@@@@QEAAXXZ 0000000140093d80 f i zip.obj
 0001:00092e10       ?growbuf@?$vector@PEAUziparchive@@@@QEAAXH@Z 0000000140093e10 f i zip.obj
 0001:00092eb0       ?insert@?$hashset@U?$hashtableentry@PEBDUzipfile@@@@@@QEAAPEAUchain@1@I@Z 0000000140093eb0 f i zip.obj
 0001:00092fb0       ??0chain@?$hashset@U?$hashtableentry@PEBDUzipfile@@@@@@QEAA@XZ 0000000140093fb0 f i zip.obj
 0001:00092ff0       ?add@?$vector@Uinterest@ai@@@@QEAAAEAUinterest@ai@@XZ 0000000140093ff0 f i ai.obj
 0001:00093060       ?removeunordered@?$vector@Uinterest@ai@@@@QEAA?AUinterest@ai@@H@Z 0000000140094060 f i ai.obj
 0001:000930b0       ?remove@?$vector@Uaistate@ai@@@@QEAA?AUaistate@ai@@H@Z 00000001400940b0 f i ai.obj
 0001:00093120       ?removestate@aiinfo@ai@@QEAAXH@Z 0000000140094120 f i ai.obj
 0001:000931b0       ?add@avoidset@ai@@QEAAXAEAU12@@Z 00000001400941b0 f i ai.obj
 0001:00093300       ?canpickup@fpsstate@@QEAA_NH@Z 0000000140094300 f i ai.obj
 0001:000933a0       ?switchstate@aiinfo@ai@@QEAAAEAUaistate@2@AEAU32@HHH@Z 00000001400943a0 f i ai.obj
 0001:000933f0       ?find@avoidset@ai@@QEBA_NHPEAUfpsent@@@Z 00000001400943f0 f i ai.obj
 0001:00093490       ??_Gaiinfo@ai@@QEAAPEAXI@Z 0000000140094490 f i ai.obj
 0001:000934f0       ?addstate@aiinfo@ai@@QEAAAEAUaistate@2@HHH@Z 00000001400944f0 f i ai.obj
 0001:00093570       ?wipe@aiinfo@ai@@QEAAX_N@Z 0000000140094570 f i ai.obj
 0001:000935f0       ?reset@aiinfo@ai@@QEAAX_N@Z 00000001400945f0 f i ai.obj
 0001:00093670       ??0aiinfo@ai@@QEAA@XZ      0000000140094670 f i ai.obj
 0001:00093780       ?pickup@fpsstate@@QEAAXH@Z 0000000140094780 f i entities.obj
 0001:00093830       ?buttonf@g3d_gui@@QEAAHPEBDH0ZZ 0000000140094830 f i fps.obj
 0001:00093890       ??1fpsent@@QEAA@XZ         0000000140094890 f i fps.obj
 0001:00093960       ??0dynent@@QEAA@XZ         0000000140094960 f i fps.obj
 0001:00093b10       ??1dynent@@QEAA@XZ         0000000140094b10 f i fps.obj
 0001:00093b40       ??0fpsent@@QEAA@XZ         0000000140094b40 f i fps.obj
 0001:00093c60       ?spawnstate@fpsstate@@QEAAXH@Z 0000000140094c60 f i fps.obj
 0001:00093e80       ?respawn@fpsent@@QEAAXXZ   0000000140094e80 f i fps.obj
 0001:00094000       ??0monster@game@@QEAA@HHHHHH@Z 0000000140095000 f i monster.obj
 0001:00094230       ?normalize_yaw@monster@game@@QEAAXM@Z 0000000140095230 f i monster.obj
 0001:00094290       ?transition@monster@game@@QEAAXHHHH@Z 0000000140095290 f i monster.obj
 0001:00094310       ?monsteraction@monster@game@@QEAAXH@Z 0000000140095310 f i monster.obj
 0001:00094af0       ?monsterpain@monster@game@@QEAAXHPEAUfpsent@@@Z 0000000140095af0 f i monster.obj
 0001:00094db0       ?growbuf@?$vector@PEAUmonster@game@@@@QEAAXH@Z 0000000140095db0 f i monster.obj
 0001:00094e50       ?maymove@physent@@QEBA_NXZ 0000000140095e50 f i monster.obj
 0001:00094ec0       ??0movable@game@@QEAA@AEBUentity@@@Z 0000000140095ec0 f i movable.obj
 0001:000950b0       ?deletecontents@?$vector@PEAUmovable@game@@@@QEAAXXZ 00000001400960b0 f i movable.obj
 0001:00095180       ?growbuf@?$vector@PEAUmovable@game@@@@QEAAXH@Z 0000000140096180 f i movable.obj
 0001:00095220       ??$htfind@$$BY0BAE@D@?$vector@PEBD@@QEAAHAEAY0BAE@$$CBD@Z 0000000140096220 f i render.obj
 0001:000952a0       ?show@scoreboardgui@game@@QEAAX_N@Z 00000001400962a0 f i scoreboard.obj
 0001:00095390       ?gui@scoreboardgui@game@@UEAAXAEAUg3d_gui@@_N@Z 0000000140096390 f i scoreboard.obj
 0001:000953d0       ?growbuf@?$vector@PEAUscoregroup@game@@@@QEAAXH@Z 00000001400963d0 f i scoreboard.obj
 0001:00095470       ??$access@$$BY0BAE@D@?$hashset@Uteaminfo@@@@QEAAPEAUteaminfo@@AEAY0BAE@$$CBD@Z 0000000140096470 f i scoreboard.obj
 0001:00095500       ?textf@g3d_gui@@QEAAHPEBDH0ZZ 0000000140096500 f i scoreboard.obj
 0001:00095560       ?titlef@g3d_gui@@QEAAHPEBDH0ZZ 0000000140096560 f i scoreboard.obj
 0001:000955c0       ?compare@teamscore@@SA_NAEBU1@0@Z 00000001400965c0 f i scoreboard.obj
 0001:00095600       ??0wpcache@ai@@QEAA@XZ     0000000140096600 f i waypoint.obj
 0001:00095680       ?build@wpcache@ai@@QEAAXHH@Z 0000000140096680 f i waypoint.obj
 0001:00095950       ?build@wpcache@ai@@QEAAXPEAHHAEBUvec@@1@Z 0000000140096950 f i waypoint.obj
 0001:000961c0       ?add@?$vector@Uwaypoint@ai@@@@QEAAAEAUwaypoint@ai@@AEBU23@@Z 00000001400971c0 f i waypoint.obj
 0001:00096250       ?upheap@?$vector@PEAUwaypoint@ai@@@@QEAAHH@Z 0000000140097250 f i waypoint.obj
 0001:000962d0       ?growbuf@?$vector@Uwaypoint@ai@@@@QEAAXH@Z 00000001400972d0 f i waypoint.obj
 0001:00096370       ?growbuf@?$vector@PEAUnode@wpcache@ai@@@@QEAAXH@Z 0000000140097370 f i waypoint.obj
 0001:00096410       ?growbuf@?$vector@PEAUwaypoint@ai@@@@QEAAXH@Z 0000000140097410 f i waypoint.obj
 0001:000964b0       ?downheap@?$vector@PEAUwaypoint@ai@@@@QEAAHH@Z 00000001400974b0 f i waypoint.obj
 0001:000965c0       ?add@avoidset@ai@@QEAAXPEAXMH@Z 00000001400975c0 f i waypoint.obj
 0001:00096670       ?remove@?$vector@PEAUbouncer@game@@@@QEAAPEAUbouncer@game@@H@Z 0000000140097670 f i weapon.obj
 0001:000966d0       ?add@?$vector@Uprojectile@game@@@@QEAAAEAUprojectile@game@@XZ 00000001400976d0 f i weapon.obj
 0001:00096770       ?remove@?$vector@Uprojectile@game@@@@QEAA?AUprojectile@game@@H@Z 0000000140097770 f i weapon.obj
 0001:00096870       ?growbuf@?$vector@Uhitmsg@game@@@@QEAAXH@Z 0000000140097870 f i weapon.obj
 0001:00096900       ?growbuf@?$vector@PEAUbouncer@game@@@@QEAAXH@Z 0000000140097900 f i weapon.obj
 0001:000969a0       ?growbuf@?$vector@Uprojectile@game@@@@QEAAXH@Z 00000001400979a0 f i weapon.obj
 0001:00096a30       ?hitpush@fpsent@@QEAAXHAEBUvec@@PEAU1@H@Z 0000000140097a30 f i weapon.obj
 0001:00096af0       ?getteamscore@captureservmode@server@@UEAAHPEBD@Z 0000000140097af0 f i server1.obj
 0001:00096af0       ?getteamscore@captureclientmode@game@@UEAAHPEBD@Z 0000000140097af0 f i client1.obj
 0001:00096b70       ?getteamscores@captureclientmode@game@@UEAAXAEAU?$vector@Uteamscore@@@@@Z 0000000140097b70 f i client1.obj
 0001:00096b70       ?getteamscores@captureservmode@server@@UEAAXAEAU?$vector@Uteamscore@@@@@Z 0000000140097b70 f i server1.obj
 0001:00096c10       ?findscore@captureclientmode@game@@QEAAAEAUscore@12@PEBD@Z 0000000140097c10 f i client1.obj
 0001:00096d30       ?disttoenemy@captureclientmode@game@@QEAAMAEAUbaseinfo@12@@Z 0000000140097d30 f i client1.obj
 0001:00096e00       ?replenishammo@captureclientmode@game@@QEAAXXZ 0000000140097e00 f i client1.obj
 0001:00096f60       ?receiveammo@captureclientmode@game@@QEAAXPEAUfpsent@@H@Z 0000000140097f60 f i client1.obj
 0001:00097020       ?checkitems@captureclientmode@game@@UEAAXPEAUfpsent@@@Z 0000000140098020 f i client1.obj
 0001:000972d0       ?rendertether@captureclientmode@game@@QEAAXPEAUfpsent@@@Z 00000001400982d0 f i client1.obj
 0001:00097970       ?preload@captureclientmode@game@@UEAAXXZ 0000000140098970 f i client1.obj
 0001:00097a60       ?rendergame@captureclientmode@game@@UEAAXXZ 0000000140098a60 f i client1.obj
 0001:00098330       ?drawblips@captureclientmode@game@@QEAAXPEAUfpsent@@MHHH_N@Z 0000000140099330 f i client1.obj
 0001:000989d0       ?respawnwait@captureclientmode@game@@UEAAHPEAUfpsent@@@Z 00000001400999d0 f i client1.obj
 0001:00098a30       ?clipconsole@captureclientmode@game@@UEAAHHH@Z 0000000140099a30 f i client1.obj
 0001:00098a30       ?clipconsole@ctfclientmode@game@@UEAAHHH@Z 0000000140099a30 f i client1.obj
 0001:00098a30       ?clipconsole@collectclientmode@game@@UEAAHHH@Z 0000000140099a30 f i client1.obj
 0001:00098a50       ?drawhud@captureclientmode@game@@UEAAXPEAUfpsent@@HH@Z 0000000140099a50 f i client1.obj
 0001:00099090       ?setup@captureclientmode@game@@UEAAXXZ 000000014009a090 f i client1.obj
 0001:00099360       ?senditems@captureclientmode@game@@UEAAXAEAUpacketbuf@@@Z 000000014009a360 f i client1.obj
 0001:00099450       ?updatebase@captureclientmode@game@@QEAAXHPEBD0HH@Z 000000014009a450 f i client1.obj
 0001:000998b0       ?setscore@captureclientmode@game@@QEAAXHPEBDH@Z 000000014009a8b0 f i client1.obj
 0001:00099a60       ?closesttoenemy@captureclientmode@game@@QEAAHPEBD_N1@Z 000000014009aa60 f i client1.obj
 0001:00099b80       ?pickteamspawn@captureclientmode@game@@QEAAHPEBD@Z 000000014009ab80 f i client1.obj
 0001:00099fe0       ?pickspawn@captureclientmode@game@@UEAAXPEAUfpsent@@@Z 000000014009afe0 f i client1.obj
 0001:0009a010       ?aifind@captureclientmode@game@@UEAAXPEAUfpsent@@AEAUaistate@ai@@AEAU?$vector@Uinterest@ai@@@@@Z 000000014009b010 f i client1.obj
 0001:0009a740       ?aidefend@captureclientmode@game@@UEAA_NPEAUfpsent@@AEAUaistate@ai@@@Z 000000014009b740 f i client1.obj
 0001:0009ad10       ?aipursue@captureclientmode@game@@UEAA_NPEAUfpsent@@AEAUaistate@ai@@@Z 000000014009bd10 f i client1.obj
 0001:0009ad30       ??_Ecaptureclientmode@game@@UEAAPEAXI@Z 000000014009bd30 f i * CIL library *:* CIL module *
 0001:0009ad30       ??_Gctfclientmode@game@@UEAAPEAXI@Z 000000014009bd30 f i client1.obj
 0001:0009ad30       ??_Ectfclientmode@game@@UEAAPEAXI@Z 000000014009bd30 f i * CIL library *:* CIL module *
 0001:0009ad30       ??_Gcaptureclientmode@game@@UEAAPEAXI@Z 000000014009bd30 f i client1.obj
 0001:0009ad70       ??1ctfclientmode@game@@UEAA@XZ 000000014009bd70 f i client1.obj
 0001:0009ad70       ??1captureclientmode@game@@UEAA@XZ 000000014009bd70 f i client1.obj
 0001:0009ade0       ?reset@flag@ctfclientmode@game@@QEAAXXZ 000000014009bde0 f i client1.obj
 0001:0009aea0       ?pos@flag@ctfclientmode@game@@QEAAAEBUvec@@XZ 000000014009bea0 f i client1.obj
 0001:0009aed0       ?returnflag@ctfclientmode@game@@QEAAXHH@Z 000000014009bed0 f i client1.obj
 0001:0009af50       ?getteamscore@ctfservmode@server@@UEAAHPEBD@Z 000000014009bf50 f i server1.obj
 0001:0009af50       ?getteamscore@ctfclientmode@game@@UEAAHPEBD@Z 000000014009bf50 f i client1.obj
 0001:0009afd0       ?getteamscores@ctfclientmode@game@@UEAAXAEAU?$vector@Uteamscore@@@@@Z 000000014009bfd0 f i client1.obj
 0001:0009afd0       ?getteamscores@ctfservmode@server@@UEAAXAEAU?$vector@Uteamscore@@@@@Z 000000014009bfd0 f i server1.obj
 0001:0009b070       ?preload@ctfclientmode@game@@UEAAXXZ 000000014009c070 f i client1.obj
 0001:0009b150       ?drawblip@ctfclientmode@game@@QEAAXPEAUfpsent@@MMMAEBUvec@@_N@Z 000000014009c150 f i client1.obj
 0001:0009b370       ?drawblip@ctfclientmode@game@@QEAAXPEAUfpsent@@MMMH_N@Z 000000014009c370 f i client1.obj
 0001:0009b5b0       ?drawhud@ctfclientmode@game@@UEAAXPEAUfpsent@@HH@Z 000000014009c5b0 f i client1.obj
 0001:0009bd70       ?removeplayer@ctfclientmode@game@@UEAAXPEAUfpsent@@@Z 000000014009cd70 f i client1.obj
 0001:0009be70       ?interpflagpos@ctfclientmode@game@@QEAA?AUvec@@AEAUflag@12@AEAM@Z 000000014009ce70 f i client1.obj
 0001:0009c070       ?rendergame@ctfclientmode@game@@UEAAXXZ 000000014009d070 f i client1.obj
 0001:0009c9f0       ?setup@ctfclientmode@game@@UEAAXXZ 000000014009d9f0 f i client1.obj
 0001:0009cd40       ?senditems@ctfclientmode@game@@UEAAXAEAUpacketbuf@@@Z 000000014009dd40 f i client1.obj
 0001:0009ceb0       ?parseflags@ctfclientmode@game@@QEAAXAEAU?$databuf@E@@_N@Z 000000014009deb0 f i client1.obj
 0001:0009d1a0       ?teamcolorflag@ctfclientmode@game@@QEAAPEBDAEAUflag@12@@Z 000000014009e1a0 f i client1.obj
 0001:0009d260       ?dropflag@ctfclientmode@game@@QEAAXPEAUfpsent@@HHAEBUvec@@@Z 000000014009e260 f i client1.obj
 0001:0009d420       ?flagexplosion@ctfclientmode@game@@QEAAXHHAEBUvec@@@Z 000000014009e420 f i client1.obj
 0001:0009d600       ?flageffect@ctfclientmode@game@@QEAAXHHAEBUvec@@0@Z 000000014009e600 f i client1.obj
 0001:0009d850       ?returnflag@ctfclientmode@game@@QEAAXPEAUfpsent@@HH@Z 000000014009e850 f i client1.obj
 0001:0009da00       ?spawnflag@ctfclientmode@game@@QEAAXAEAUflag@12@@Z 000000014009ea00 f i client1.obj
 0001:0009da50       ?resetflag@ctfclientmode@game@@QEAAXHHHHH@Z 000000014009ea50 f i client1.obj
 0001:0009dc40       ?scoreflag@ctfclientmode@game@@QEAAXPEAUfpsent@@HHHHHHHH@Z 000000014009ec40 f i client1.obj
 0001:0009e120       ?takeflag@ctfclientmode@game@@QEAAXPEAUfpsent@@HH@Z 000000014009f120 f i client1.obj
 0001:0009e2e0       ?checkitems@ctfclientmode@game@@UEAAXPEAUfpsent@@@Z 000000014009f2e0 f i client1.obj
 0001:0009e570       ?respawned@ctfclientmode@game@@UEAAXPEAUfpsent@@@Z 000000014009f570 f i client1.obj
 0001:0009e720       ?respawnwait@ctfclientmode@game@@UEAAHPEAUfpsent@@@Z 000000014009f720 f i client1.obj
 0001:0009e780       ?pickholdspawn@ctfclientmode@game@@QEAA_NPEAUfpsent@@@Z 000000014009f780 f i client1.obj
 0001:0009eca0       ?pickspawn@ctfclientmode@game@@UEAAXPEAUfpsent@@@Z 000000014009fca0 f i client1.obj
 0001:0009eda0       ?aihomerun@ctfclientmode@game@@QEAA_NPEAUfpsent@@AEAUaistate@ai@@@Z 000000014009fda0 f i client1.obj
 0001:0009f3d0       ?aicheck@ctfclientmode@game@@UEAA_NPEAUfpsent@@AEAUaistate@ai@@@Z 00000001400a03d0 f i client1.obj
 0001:0009f660       ?aifind@ctfclientmode@game@@UEAAXPEAUfpsent@@AEAUaistate@ai@@AEAU?$vector@Uinterest@ai@@@@@Z 00000001400a0660 f i client1.obj
 0001:000a0280       ?aidefend@ctfclientmode@game@@UEAA_NPEAUfpsent@@AEAUaistate@ai@@@Z 00000001400a1280 f i client1.obj
 0001:000a0b40       ?aipursue@ctfclientmode@game@@UEAA_NPEAUfpsent@@AEAUaistate@ai@@@Z 00000001400a1b40 f i client1.obj
 0001:000a0d00       ?getteamscore@collectservmode@server@@UEAAHPEBD@Z 00000001400a1d00 f i server1.obj
 0001:000a0d00       ?getteamscore@collectclientmode@game@@UEAAHPEBD@Z 00000001400a1d00 f i client1.obj
 0001:000a0d80       ?getteamscores@collectclientmode@game@@UEAAXAEAU?$vector@Uteamscore@@@@@Z 00000001400a1d80 f i client1.obj
 0001:000a0d80       ?getteamscores@collectservmode@server@@UEAAXAEAU?$vector@Uteamscore@@@@@Z 00000001400a1d80 f i server1.obj
 0001:000a0e20       ?preload@collectclientmode@game@@UEAAXXZ 00000001400a1e20 f i client1.obj
 0001:000a0ee0       ?drawblip@collectclientmode@game@@QEAAXPEAUfpsent@@MMMAEBUvec@@M@Z 00000001400a1ee0 f i client1.obj
 0001:000a10c0       ?drawbaseblip@collectclientmode@game@@QEAAXPEAUfpsent@@MMMH@Z 00000001400a20c0 f i client1.obj
 0001:000a11f0       ?drawhud@collectclientmode@game@@UEAAXPEAUfpsent@@HH@Z 00000001400a21f0 f i client1.obj
 0001:000a1710       ?rendergame@collectclientmode@game@@UEAAXXZ 00000001400a2710 f i client1.obj
 0001:000a1f40       ?setup@collectclientmode@game@@UEAAXXZ 00000001400a2f40 f i client1.obj
 0001:000a2140       ?senditems@collectclientmode@game@@UEAAXAEAUpacketbuf@@@Z 00000001400a3140 f i client1.obj
 0001:000a2200       ?movetoken@collectclientmode@game@@QEAA?AUvec@@AEBU3@H@Z 00000001400a3200 f i client1.obj
 0001:000a24d0       ?parsetokens@collectclientmode@game@@QEAAXAEAU?$databuf@E@@_N@Z 00000001400a34d0 f i client1.obj
 0001:000a26a0       ?baseexplosion@collectclientmode@game@@QEAAXHHAEBUvec@@@Z 00000001400a36a0 f i client1.obj
 0001:000a2850       ?baseeffect@collectclientmode@game@@QEAAXHHAEBUvec@@0_N1@Z 00000001400a3850 f i client1.obj
 0001:000a2990       ?expiretoken@collectclientmode@game@@QEAAXH@Z 00000001400a3990 f i client1.obj
 0001:000a2a90       ?taketoken@collectclientmode@game@@QEAAXPEAUfpsent@@HH@Z 00000001400a3a90 f i client1.obj
 0001:000a2c50       ?droptoken@collectclientmode@game@@QEAAPEAUtoken@12@PEAUfpsent@@HAEBUvec@@HHH@Z 00000001400a3c50 f i client1.obj
 0001:000a3080       ?stealtoken@collectclientmode@game@@QEAAXPEAUfpsent@@HAEBUvec@@HHHHHH@Z 00000001400a4080 f i client1.obj
 0001:000a33b0       ?deposittokens@collectclientmode@game@@QEAAXPEAUfpsent@@HHHHH@Z 00000001400a43b0 f i client1.obj
 0001:000a36c0       ?checkitems@collectclientmode@game@@UEAAXPEAUfpsent@@@Z 00000001400a46c0 f i client1.obj
 0001:000a3aa0       ?respawnwait@collectclientmode@game@@UEAAHPEAUfpsent@@@Z 00000001400a4aa0 f i client1.obj
 0001:000a3ad0       ?pickspawn@collectclientmode@game@@UEAAXPEAUfpsent@@@Z 00000001400a4ad0 f i client1.obj
 0001:000a3b60       ?aicheck@collectclientmode@game@@UEAA_NPEAUfpsent@@AEAUaistate@ai@@@Z 00000001400a4b60 f i client1.obj
 0001:000a4390       ?aifind@collectclientmode@game@@UEAAXPEAUfpsent@@AEAUaistate@ai@@AEAU?$vector@Uinterest@ai@@@@@Z 00000001400a5390 f i client1.obj
 0001:000a46f0       ?aipursue@collectclientmode@game@@UEAA_NPEAUfpsent@@AEAUaistate@ai@@@Z 00000001400a56f0 f i client1.obj
 0001:000a4810       ??1collectclientmode@game@@UEAA@XZ 00000001400a5810 f i client1.obj
 0001:000a4880       ??_Ecollectclientmode@game@@UEAAPEAXI@Z 00000001400a5880 f i * CIL library *:* CIL module *
 0001:000a4880       ??_Gcollectclientmode@game@@UEAAPEAXI@Z 00000001400a5880 f i client1.obj
 0001:000a48c0       ?add@?$vector@Ubaseinfo@captureclientmode@game@@@@QEAAAEAUbaseinfo@captureclientmode@game@@XZ 00000001400a58c0 f i client1.obj
 0001:000a4980       ?add@?$vector@Uholdspawn@ctfclientmode@game@@@@QEAAAEAUholdspawn@ctfclientmode@game@@XZ 00000001400a5980 f i client1.obj
 0001:000a4a10       ?add@?$vector@Uflag@ctfclientmode@game@@@@QEAAAEAUflag@ctfclientmode@game@@XZ 00000001400a5a10 f i client1.obj
 0001:000a4a90       ?add@?$vector@Ubase@collectclientmode@game@@@@QEAAAEAUbase@collectclientmode@game@@XZ 00000001400a5a90 f i client1.obj
 0001:000a4b40       ?add@?$vector@Utoken@collectclientmode@game@@@@QEAAAEAUtoken@collectclientmode@game@@XZ 00000001400a5b40 f i client1.obj
 0001:000a4be0       ?growbuf@?$vector@Ubaseinfo@captureclientmode@game@@@@QEAAXH@Z 00000001400a5be0 f i client1.obj
 0001:000a4c80       ?growbuf@?$vector@Uflag@ctfclientmode@game@@@@QEAAXH@Z 00000001400a5c80 f i client1.obj
 0001:000a4d10       ?growbuf@?$vector@Ubase@collectclientmode@game@@@@QEAAXH@Z 00000001400a5d10 f i client1.obj
 0001:000a4db0       ?growbuf@?$vector@Utoken@collectclientmode@game@@@@QEAAXH@Z 00000001400a5db0 f i client1.obj
 0001:000a4e40       ?growbuf@?$vector@PEAUauthkey@game@@@@QEAAXH@Z 00000001400a5e40 f i client1.obj
 0001:000a4ee0       ?validate@selinfo@@QEAA_NXZ 00000001400a5ee0 f i client1.obj
 0001:000a5010       ??_Eclientmode@game@@UEAAPEAXI@Z 00000001400a6010 f i * CIL library *:* CIL module *
 0001:000a5010       ??_Gclientmode@game@@UEAAPEAXI@Z 00000001400a6010 f i client1.obj
 0001:000a5040       ?pickspawn@clientmode@game@@UEAAXPEAUfpsent@@@Z 00000001400a6040 f i client1.obj
 0001:000a5280       ??1clientmode@game@@UEAA@XZ 00000001400a6280 f i client1.obj
 0001:000a5290       ??1gameevent@server@@UEAA@XZ 00000001400a6290 f i server1.obj
 0001:000a52a0       ??_Ggameevent@server@@UEAAPEAXI@Z 00000001400a62a0 f i server1.obj
 0001:000a52a0       ??_Egameevent@server@@UEAAPEAXI@Z 00000001400a62a0 f i * CIL library *:* CIL module *
 0001:000a52d0       ?reset@gamestate@server@@QEAAXXZ 00000001400a62d0 f i server1.obj
 0001:000a53a0       ?respawn@gamestate@server@@QEAAXXZ 00000001400a63a0 f i server1.obj
 0001:000a5420       ?restore@savedscore@server@@QEAAXAEAUgamestate@2@@Z 00000001400a6420 f i server1.obj
 0001:000a54a0       ??0clientinfo@server@@QEAA@XZ 00000001400a64a0 f i server1.obj
 0001:000a5590       ??1clientinfo@server@@QEAA@XZ 00000001400a6590 f i server1.obj
 0001:000a56f0       ?addevent@clientinfo@server@@QEAAXPEAUgameevent@2@@Z 00000001400a66f0 f i server1.obj
 0001:000a5770       ?scheduleexceeded@clientinfo@server@@QEAAXXZ 00000001400a6770 f i server1.obj
 0001:000a57f0       ?setexceeded@clientinfo@server@@QEAAXXZ 00000001400a67f0 f i server1.obj
 0001:000a5880       ?setpushed@clientinfo@server@@QEAAXXZ 00000001400a6880 f i server1.obj
 0001:000a5910       ?mapchange@clientinfo@server@@QEAAXXZ 00000001400a6910 f i server1.obj
 0001:000a59b0       ?reassign@clientinfo@server@@QEAAXXZ 00000001400a69b0 f i server1.obj
 0001:000a5ad0       ?cleanauth@clientinfo@server@@QEAAX_N@Z 00000001400a6ad0 f i server1.obj
 0001:000a5b40       ?reset@clientinfo@server@@QEAAXXZ 00000001400a6b40 f i server1.obj
 0001:000a5c10       ?geteventmillis@clientinfo@server@@QEAAHHH@Z 00000001400a6c10 f i server1.obj
 0001:000a5c60       ??1servmode@server@@UEAA@XZ 00000001400a6c60 f i server1.obj
 0001:000a5c70       ?fragvalue@servmode@server@@UEAAHPEAUclientinfo@2@0@Z 00000001400a6c70 f i server1.obj
 0001:000a5ce0       ??_Gservmode@server@@UEAAPEAXI@Z 00000001400a6ce0 f i server1.obj
 0001:000a5ce0       ??_Eservmode@server@@UEAAPEAXI@Z 00000001400a6ce0 f i * CIL library *:* CIL module *
 0001:000a5d10       ?enter@baseinfo@captureservmode@server@@QEAA_NPEBD@Z 00000001400a6d10 f i server1.obj
 0001:000a5e30       ?leave@baseinfo@captureservmode@server@@QEAA_NPEBD@Z 00000001400a6e30 f i server1.obj
 0001:000a5ec0       ?occupy@baseinfo@captureservmode@server@@QEAAHPEBDH@Z 00000001400a6ec0 f i server1.obj
 0001:000a6020       ?findscore@captureservmode@server@@QEAAAEAUscore@12@PEBD@Z 00000001400a7020 f i server1.obj
 0001:000a6120       ?addbase@captureservmode@server@@QEAAXHAEBUvec@@@Z 00000001400a7120 f i server1.obj
 0001:000a6380       ?cleanup@captureservmode@server@@UEAAXXZ 00000001400a7380 f i server1.obj
 0001:000a63b0       ?setup@captureservmode@server@@UEAAXXZ 00000001400a73b0 f i server1.obj
 0001:000a64a0       ?newmap@captureservmode@server@@UEAAXXZ 00000001400a74a0 f i server1.obj
 0001:000a64d0       ?stealbase@captureservmode@server@@QEAAXHPEBD@Z 00000001400a74d0 f i server1.obj
 0001:000a66b0       ?replenishammo@captureservmode@server@@QEAAXPEAUclientinfo@2@@Z 00000001400a76b0 f i server1.obj
 0001:000a68a0       ?movebases@captureservmode@server@@QEAAXPEBDAEBUvec@@_N12@Z 00000001400a78a0 f i server1.obj
 0001:000a6a80       ?leavebases@captureservmode@server@@QEAAXPEBDAEBUvec@@@Z 00000001400a7a80 f i server1.obj
 0001:000a6ba0       ?enterbases@captureservmode@server@@QEAAXPEBDAEBUvec@@@Z 00000001400a7ba0 f i server1.obj
 0001:000a6cc0       ?regenowners@captureservmode@server@@QEAAXAEAUbaseinfo@12@H@Z 00000001400a7cc0 f i server1.obj
 0001:000a6f70       ?update@captureservmode@server@@UEAAXXZ 00000001400a7f70 f i server1.obj
 0001:000a7200       ?sendbaseinfo@captureservmode@server@@QEAAXH@Z 00000001400a8200 f i server1.obj
 0001:000a7270       ?sendbases@captureservmode@server@@QEAAXXZ 00000001400a8270 f i server1.obj
 0001:000a7350       ?initclient@captureservmode@server@@UEAAXPEAUclientinfo@2@AEAUpacketbuf@@_N@Z 00000001400a8350 f i server1.obj
 0001:000a74f0       ?endcheck@captureservmode@server@@QEAAXXZ 00000001400a84f0 f i server1.obj
 0001:000a75f0       ?entergame@captureservmode@server@@UEAAXPEAUclientinfo@2@@Z 00000001400a85f0 f i server1.obj
 0001:000a7620       ?spawned@captureservmode@server@@UEAAXPEAUclientinfo@2@@Z 00000001400a8620 f i server1.obj
 0001:000a7650       ?leavegame@captureservmode@server@@UEAAXPEAUclientinfo@2@_N@Z 00000001400a8650 f i server1.obj
 0001:000a7680       ?died@captureservmode@server@@UEAAXPEAUclientinfo@2@0@Z 00000001400a8680 f i server1.obj
 0001:000a76b0       ?canspawn@captureservmode@server@@UEAA_NPEAUclientinfo@2@_N@Z 00000001400a86b0 f i server1.obj
 0001:000a7700       ?moved@captureservmode@server@@UEAAXPEAUclientinfo@2@AEBUvec@@_N12@Z 00000001400a8700 f i server1.obj
 0001:000a7720       ?changeteam@captureservmode@server@@UEAAXPEAUclientinfo@2@PEBD1@Z 00000001400a8720 f i server1.obj
 0001:000a7780       ?parsebases@captureservmode@server@@QEAAXAEAU?$databuf@E@@_N@Z 00000001400a8780 f i server1.obj
 0001:000a78e0       ?extinfoteam@captureservmode@server@@UEAA_NPEBDAEAU?$databuf@E@@@Z 00000001400a88e0 f i server1.obj
 0001:000a79e0       ??_Gctfservmode@server@@UEAAPEAXI@Z 00000001400a89e0 f i server1.obj
 0001:000a79e0       ??_Ectfservmode@server@@UEAAPEAXI@Z 00000001400a89e0 f i * CIL library *:* CIL module *
 0001:000a79e0       ??_Gcaptureservmode@server@@UEAAPEAXI@Z 00000001400a89e0 f i server1.obj
 0001:000a79e0       ??_Ecaptureservmode@server@@UEAAPEAXI@Z 00000001400a89e0 f i * CIL library *:* CIL module *
 0001:000a7a20       ??1captureservmode@server@@UEAA@XZ 00000001400a8a20 f i server1.obj
 0001:000a7a20       ??1ctfservmode@server@@UEAA@XZ 00000001400a8a20 f i server1.obj
 0001:000a7a90       ?addflag@ctfservmode@server@@QEAA_NHAEBUvec@@HH@Z 00000001400a8a90 f i server1.obj
 0001:000a7b70       ?addholdspawn@ctfservmode@server@@QEAA_NAEBUvec@@@Z 00000001400a8b70 f i server1.obj
 0001:000a7c00       ?cleanup@ctfservmode@server@@UEAAXXZ 00000001400a8c00 f i server1.obj
 0001:000a7c30       ?setupholdspawns@ctfservmode@server@@QEAAXXZ 00000001400a8c30 f i server1.obj
 0001:000a7d30       ?setup@ctfservmode@server@@UEAAXXZ 00000001400a8d30 f i server1.obj
 0001:000a7eb0       ?newmap@ctfservmode@server@@UEAAXXZ 00000001400a8eb0 f i server1.obj
 0001:000a7ee0       ?dropflag@ctfservmode@server@@QEAAXPEAUclientinfo@2@0@Z 00000001400a8ee0 f i server1.obj
 0001:000a81f0       ?leavegame@ctfservmode@server@@UEAAXPEAUclientinfo@2@_N@Z 00000001400a91f0 f i server1.obj
 0001:000a8260       ?died@ctfservmode@server@@UEAAXPEAUclientinfo@2@0@Z 00000001400a9260 f i server1.obj
 0001:000a8330       ?canspawn@ctfservmode@server@@UEAA_NPEAUclientinfo@2@_N@Z 00000001400a9330 f i server1.obj
 0001:000a8390       ?canchangeteam@collectservmode@server@@UEAA_NPEAUclientinfo@2@PEBD1@Z 00000001400a9390 f i server1.obj
 0001:000a8390       ?canchangeteam@ctfservmode@server@@UEAA_NPEAUclientinfo@2@PEBD1@Z 00000001400a9390 f i server1.obj
 0001:000a8400       ?changeteam@ctfservmode@server@@UEAAXPEAUclientinfo@2@PEBD1@Z 00000001400a9400 f i server1.obj
 0001:000a8410       ?spawnflag@ctfservmode@server@@QEAAXH@Z 00000001400a9410 f i server1.obj
 0001:000a8580       ?scoreflag@ctfservmode@server@@QEAAXPEAUclientinfo@2@HH@Z 00000001400a9580 f i server1.obj
 0001:000a8860       ?takeflag@ctfservmode@server@@QEAAXPEAUclientinfo@2@HH@Z 00000001400a9860 f i server1.obj
 0001:000a8c00       ?update@ctfservmode@server@@UEAAXXZ 00000001400a9c00 f i server1.obj
 0001:000a8ed0       ?initclient@ctfservmode@server@@UEAAXPEAUclientinfo@2@AEAUpacketbuf@@_N@Z 00000001400a9ed0 f i server1.obj
 0001:000a9010       ?parseflags@ctfservmode@server@@QEAAXAEAU?$databuf@E@@_N@Z 00000001400aa010 f i server1.obj
 0001:000a9220       ?addbase@collectservmode@server@@QEAA_NHAEBUvec@@H@Z 00000001400aa220 f i server1.obj
 0001:000a9330       ?droptoken@collectservmode@server@@QEAAAEAUtoken@12@AEBUvec@@HHHH@Z 00000001400aa330 f i server1.obj
 0001:000a93c0       ?cleanup@collectservmode@server@@UEAAXXZ 00000001400aa3c0 f i server1.obj
 0001:000a9410       ?setup@collectservmode@server@@UEAAXXZ 00000001400aa410 f i server1.obj
 0001:000a94e0       ?newmap@collectservmode@server@@UEAAXXZ 00000001400aa4e0 f i server1.obj
 0001:000a9520       ?droptokens@collectservmode@server@@QEAAXPEAUclientinfo@2@_N@Z 00000001400aa520 f i server1.obj
 0001:000a9930       ?leavegame@collectservmode@server@@UEAAXPEAUclientinfo@2@_N@Z 00000001400aa930 f i server1.obj
 0001:000a9c00       ?died@collectservmode@server@@UEAAXPEAUclientinfo@2@0@Z 00000001400aac00 f i server1.obj
 0001:000a9c90       ?canspawn@collectservmode@server@@UEAA_NPEAUclientinfo@2@_N@Z 00000001400aac90 f i server1.obj
 0001:000a9cc0       ?deposittokens@collectservmode@server@@QEAAXPEAUclientinfo@2@H@Z 00000001400aacc0 f i server1.obj
 0001:000aa020       ?taketoken@collectservmode@server@@QEAAXPEAUclientinfo@2@H@Z 00000001400ab020 f i server1.obj
 0001:000aa160       ?update@collectservmode@server@@UEAAXXZ 00000001400ab160 f i server1.obj
 0001:000aa330       ?initclient@collectservmode@server@@UEAAXPEAUclientinfo@2@AEAUpacketbuf@@_N@Z 00000001400ab330 f i server1.obj
 0001:000aa4b0       ?parsebases@collectservmode@server@@QEAAXAEAU?$databuf@E@@_N@Z 00000001400ab4b0 f i server1.obj
 0001:000aa5b0       ??_Ecollectservmode@server@@UEAAPEAXI@Z 00000001400ab5b0 f i * CIL library *:* CIL module *
 0001:000aa5b0       ??_Gcollectservmode@server@@UEAAPEAXI@Z 00000001400ab5b0 f i server1.obj
 0001:000aa5f0       ??1collectservmode@server@@UEAA@XZ 00000001400ab5f0 f i server1.obj
 0001:000aa660       ??1userinfo@server@@QEAA@XZ 00000001400ab660 f i server1.obj
 0001:000aa6a0       ??0msgfilter@server@@QEAA@HZZ 00000001400ab6a0 f i server1.obj
 0001:000aa700       ?compare@crcinfo@server@@SA_NAEBU12@0@Z 00000001400ab700 f i server1.obj
 0001:000aa710       ??_Etimedevent@server@@UEAAPEAXI@Z 00000001400ab710 f i * CIL library *:* CIL module *
 0001:000aa710       ??_Epickupevent@server@@UEAAPEAXI@Z 00000001400ab710 f i * CIL library *:* CIL module *
 0001:000aa710       ??_Gtimedevent@server@@UEAAPEAXI@Z 00000001400ab710 f i server1.obj
 0001:000aa710       ??_Esuicideevent@server@@UEAAPEAXI@Z 00000001400ab710 f i * CIL library *:* CIL module *
 0001:000aa710       ??_Gsuicideevent@server@@UEAAPEAXI@Z 00000001400ab710 f i server1.obj
 0001:000aa710       ??_Gpickupevent@server@@UEAAPEAXI@Z 00000001400ab710 f i server1.obj
 0001:000aa750       ??_Gshotevent@server@@UEAAPEAXI@Z 00000001400ab750 f i server1.obj
 0001:000aa750       ??_Eshotevent@server@@UEAAPEAXI@Z 00000001400ab750 f i * CIL library *:* CIL module *
 0001:000aa7c0       ??1timedevent@server@@UEAA@XZ 00000001400ab7c0 f i server1.obj
 0001:000aa7e0       ??_Eexplodeevent@server@@UEAAPEAXI@Z 00000001400ab7e0 f i * CIL library *:* CIL module *
 0001:000aa7e0       ??_Gexplodeevent@server@@UEAAPEAXI@Z 00000001400ab7e0 f i server1.obj
 0001:000aa850       ?add@?$vector@Uhitinfo@server@@@@QEAAAEAUhitinfo@server@@XZ 00000001400ab850 f i server1.obj
 0001:000aa8a0       ?remove@?$vector@Uneedfile@server@@@@QEAA?AUneedfile@server@@H@Z 00000001400ab8a0 f i server1.obj
 0001:000aa9e0       ?removeobj@?$vector@I@@QEAAXAEBI@Z 00000001400ab9e0 f i server1.obj
 0001:000aaa70       ?insert@?$vector@Uban@server@@@@QEAAAEAUban@server@@HAEBU23@@Z 00000001400aba70 f i server1.obj
 0001:000aab60       ?remove@?$vector@Udemofile@server@@@@QEAAXHH@Z 00000001400abb60 f i server1.obj
 0001:000aac40       ?remove@?$vector@Udemofile@server@@@@QEAA?AUdemofile@server@@H@Z 00000001400abc40 f i server1.obj
 0001:000aad90       ?add@?$vector@Userver_entity@server@@@@QEAAAEAUserver_entity@server@@AEBU23@@Z 00000001400abd90 f i server1.obj
 0001:000aae10       ?add@?$vector@Ubaseinfo@captureservmode@server@@@@QEAAAEAUbaseinfo@captureservmode@server@@XZ 00000001400abe10 f i server1.obj
 0001:000aae90       ?add@?$vector@Uflag@ctfservmode@server@@@@QEAAAEAUflag@ctfservmode@server@@XZ 00000001400abe90 f i server1.obj
 0001:000aaf30       ?add@?$vector@Utoken@collectservmode@server@@@@QEAAAEAUtoken@collectservmode@server@@XZ 00000001400abf30 f i server1.obj
 0001:000aafb0       ??0?$hashset@Uuserinfo@server@@@@QEAA@H@Z 00000001400abfb0 f i server1.obj
 0001:000ab030       ?clear@?$hashset@Uuserinfo@server@@@@QEAAXXZ 00000001400ac030 f i server1.obj
 0001:000ab0f0       ?remove@?$vector@Uservcmd@server@@@@QEAA?AUservcmd@server@@H@Z 00000001400ac0f0 f i server1.obj
 0001:000ab250       ?growbuf@?$vector@Uhitinfo@server@@@@QEAAXH@Z 00000001400ac250 f i server1.obj
 0001:000ab2e0       ?growbuf@?$vector@Uneedfile@server@@@@QEAAXH@Z 00000001400ac2e0 f i server1.obj
 0001:000ab380       ?growbuf@?$vector@Uban@server@@@@QEAAXH@Z 00000001400ac380 f i server1.obj
 0001:000ab420       ?growbuf@?$vector@Umaprotation@server@@@@QEAAXH@Z 00000001400ac420 f i server1.obj
 0001:000ab4c0       ?growbuf@?$vector@Udemofile@server@@@@QEAAXH@Z 00000001400ac4c0 f i server1.obj
 0001:000ab560       ?growbuf@?$vector@Uteamkillkick@server@@@@QEAAXH@Z 00000001400ac560 f i server1.obj
 0001:000ab600       ?growbuf@?$vector@Uteamkillinfo@server@@@@QEAAXH@Z 00000001400ac600 f i server1.obj
 0001:000ab6a0       ?growbuf@?$vector@Userver_entity@server@@@@QEAAXH@Z 00000001400ac6a0 f i server1.obj
 0001:000ab740       ?growbuf@?$vector@Usavedscore@server@@@@QEAAXH@Z 00000001400ac740 f i server1.obj
 0001:000ab7e0       ?growbuf@?$vector@Uon_shutdown@server@@@@QEAAXH@Z 00000001400ac7e0 f i server1.obj
 0001:000ab880       ?growbuf@?$vector@Uon_scoreflag@server@@@@QEAAXH@Z 00000001400ac880 f i server1.obj
 0001:000ab920       ?growbuf@?$vector@Ubaseinfo@captureservmode@server@@@@QEAAXH@Z 00000001400ac920 f i server1.obj
 0001:000ab9c0       ?deletechunks@?$hashset@Uuserinfo@server@@@@QEAAXXZ 00000001400ac9c0 f i server1.obj
 0001:000aba30       ?growbuf@?$vector@Uon_setmaster@server@@@@QEAAXH@Z 00000001400aca30 f i server1.obj
 0001:000abad0       ?growbuf@?$vector@Uon_kick@server@@@@QEAAXH@Z 00000001400acad0 f i server1.obj
 0001:000abb70       ?growbuf@?$vector@Uworldstate@server@@@@QEAAXH@Z 00000001400acb70 f i server1.obj
 0001:000abc10       ?growbuf@?$vector@Uon_changemap@server@@@@QEAAXH@Z 00000001400acc10 f i server1.obj
 0001:000abcb0       ?growbuf@?$vector@Uon_frag@server@@@@QEAAXH@Z 00000001400accb0 f i server1.obj
 0001:000abd50       ?growbuf@?$vector@Ugbaninfo@server@@@@QEAAXH@Z 00000001400acd50 f i server1.obj
 0001:000abdf0       ?growbuf@?$vector@Uservcmd@server@@@@QEAAXH@Z 00000001400acdf0 f i server1.obj
 0001:000abe90       ?growbuf@?$vector@Uon_connect@server@@@@QEAAXH@Z 00000001400ace90 f i server1.obj
 0001:000abf30       ?growbuf@?$vector@Uon_switchname@server@@@@QEAAXH@Z 00000001400acf30 f i server1.obj
 0001:000abfd0       ??1chain@?$hashset@Uuserinfo@server@@@@QEAA@XZ 00000001400acfd0 f i server1.obj
 0001:000ac020       ??$?AUuserkey@server@@@?$hashset@Uuserinfo@server@@@@QEAAAEAUuserinfo@server@@AEBUuserkey@2@@Z 00000001400ad020 f i server1.obj
 0001:000ac0e0       ??$sendstate@Upacketbuf@@@server@@YAXAEAUgamestate@0@AEAUpacketbuf@@@Z 00000001400ad0e0 f i server1.obj
 0001:000ac170       ??$access@Uuserkey@server@@@?$hashset@Uuserinfo@server@@@@QEAAPEAUuserinfo@server@@AEBUuserkey@2@@Z 00000001400ad170 f i server1.obj
 0001:000ac220       ??$sendstate@U?$vector@E@@@server@@YAXAEAUgamestate@0@AEAU?$vector@E@@@Z 00000001400ad220 f i server1.obj
 0001:000ac2b0       ?insert@?$hashset@Uuserinfo@server@@@@QEAAPEAUchain@1@I@Z 00000001400ad2b0 f i server1.obj
 0001:000ac3b0       ??0chain@?$hashset@Uuserinfo@server@@@@QEAA@XZ 00000001400ad3b0 f i server1.obj
 0001:000ac3da       __WSAFDIsSet               00000001400ad3da f   ws2_32:WS2_32.dll
 0001:000ac3e0       __onexitinit               00000001400ad3e0 f   LIBCMT:onexit.obj
 0001:000ac424       _onexit                    00000001400ad424 f   LIBCMT:onexit.obj
 0001:000ac530       atexit                     00000001400ad530 f   LIBCMT:onexit.obj
 0001:000ac548       _vsnprintf                 00000001400ad548 f   LIBCMT:vsnprint.obj
 0001:000ac560       _vsnprintf_l               00000001400ad560 f   LIBCMT:vsnprint.obj
 0001:000ac640       strncmp                    00000001400ad640 f   LIBCMT:strncmp.obj
 0001:000ac6c0       ??_L@YAXPEAX_KHP6AX0@Z2@Z  00000001400ad6c0 f   LIBCMT:ehvecctr.obj
 0001:000ac728       ??_M@YAXPEAX_KHP6AX0@Z@Z   00000001400ad728 f   LIBCMT:ehvecdtr.obj
 0001:000ac788       ?__ArrayUnwind@@YAXPEAX_KHP6AX0@Z@Z 00000001400ad788 f   LIBCMT:ehvecdtr.obj
 0001:000ac7f0       memmove                    00000001400ad7f0 f   LIBCMT:memcpy.obj
 0001:000ac7f0       memcpy                     00000001400ad7f0 f   LIBCMT:memcpy.obj
 0001:000acd58       strrchr                    00000001400add58 f   LIBCMT:strrchr.obj
 0001:000ace9c       strpbrk                    00000001400ade9c f   LIBCMT:strpbrk.obj
 0001:000acf40       _purecall                  00000001400adf40 f   LIBCMT:purevirt.obj
 0001:000acf6c       ??8type_info@@QEBA_NAEBV0@@Z 00000001400adf6c f   LIBCMT:typinfo.obj
 0001:000acf8c       ??_Etype_info@@UEAAPEAXI@Z 00000001400adf8c f i LIBCMT:typinfo.obj
 0001:000acf8c       ??_Gtype_info@@UEAAPEAXI@Z 00000001400adf8c f i LIBCMT:typinfo.obj
 0001:000acfc8       _get_printf_count_output   00000001400adfc8 f   LIBCMT:printf.obj
 0001:000acfe0       printf                     00000001400adfe0 f   LIBCMT:printf.obj
 0001:000ad08c       strstr                     00000001400ae08c f   LIBCMT:strstr.obj
 0001:000ad26c       remove                     00000001400ae26c f   LIBCMT:unlink.obj
 0001:000ad2b4       rename                     00000001400ae2b4 f   LIBCMT:rename.obj
 0001:000ad3fc       _fclose_nolock             00000001400ae3fc f   LIBCMT:fclose.obj
 0001:000ad478       fclose                     00000001400ae478 f   LIBCMT:fclose.obj
 0001:000ad4e0       _fsopen                    00000001400ae4e0 f   LIBCMT:fopen.obj
 0001:000ad5b8       fopen                      00000001400ae5b8 f   LIBCMT:fopen.obj
 0001:000ad5c4       setvbuf                    00000001400ae5c4 f   LIBCMT:setvbuf.obj
 0001:000ad6dc       _fwrite_nolock             00000001400ae6dc f   LIBCMT:fwrite.obj
 0001:000ad86c       fwrite                     00000001400ae86c f   LIBCMT:fwrite.obj
 0001:000ad8fc       ??0_LocaleUpdate@@QEAA@PEAUlocaleinfo_struct@@@Z 00000001400ae8fc f i LIBCMT:_ctype.obj
 0001:000ad9a4       isalpha                    00000001400ae9a4 f i LIBCMT:_ctype.obj
 0001:000ada24       isdigit                    00000001400aea24 f i LIBCMT:_ctype.obj
 0001:000adaa0       isspace                    00000001400aeaa0 f i LIBCMT:_ctype.obj
 0001:000adb1c       isxdigit                   00000001400aeb1c f i LIBCMT:_ctype.obj
 0001:000adb9c       memchr                     00000001400aeb9c f   LIBCMT:memchr.obj
 0001:000adbb8       __copy_path_to_wide_string 00000001400aebb8 f   LIBCMT:crt0dat.obj
 0001:000adcb8       __crtCorExitProcess        00000001400aecb8 f   LIBCMT:crt0dat.obj
 0001:000adcfc       __crtExitProcess           00000001400aecfc f   LIBCMT:crt0dat.obj
 0001:000add14       _amsg_exit                 00000001400aed14 f   LIBCMT:crt0dat.obj
 0001:000add3c       _c_exit                    00000001400aed3c f   LIBCMT:crt0dat.obj
 0001:000add4c       _cexit                     00000001400aed4c f   LIBCMT:crt0dat.obj
 0001:000add5c       _cinit                     00000001400aed5c f   LIBCMT:crt0dat.obj
 0001:000addf4       _exit                      00000001400aedf4 f   LIBCMT:crt0dat.obj
 0001:000ade00       _init_pointers             00000001400aee00 f   LIBCMT:crt0dat.obj
 0001:000adeac       _initterm_e                00000001400aeeac f   LIBCMT:crt0dat.obj
 0001:000adee8       _lockexit                  00000001400aeee8 f   LIBCMT:crt0dat.obj
 0001:000adef4       _unlockexit                00000001400aeef4 f   LIBCMT:crt0dat.obj
 0001:000ae098       exit                       00000001400af098 f   LIBCMT:crt0dat.obj
 0001:000ae0a4       atol                       00000001400af0a4 f   LIBCMT:atox.obj
 0001:000ae0a4       atoi                       00000001400af0a4 f   LIBCMT:atox.obj
 0001:000ae0b0       sscanf                     00000001400af0b0 f   LIBCMT:sscanf.obj
 0001:000ae190       _time64                    00000001400af190 f   LIBCMT:time64.obj
 0001:000ae1f0       _localtime64               00000001400af1f0 f   LIBCMT:loctim64.obj
 0001:000ae238       _localtime64_s             00000001400af238 f   LIBCMT:loctim64.obj
 0001:000ae544       _Strftime_l                00000001400af544 f   LIBCMT:strftime.obj
 0001:000ae6ec       strftime                   00000001400af6ec f   LIBCMT:strftime.obj
 0001:000ae708       _tolower_l                 00000001400af708 f   LIBCMT:tolower.obj
 0001:000ae85c       tolower                    00000001400af85c f   LIBCMT:tolower.obj
 0001:000ae87c       strchr                     00000001400af87c f   LIBCMT:strchr.obj
 0001:000ae908       _strtod_l                  00000001400af908 f   LIBCMT:strtod.obj
 0001:000aea5c       strtod                     00000001400afa5c f   LIBCMT:strtod.obj
 0001:000aea64       __ascii_stricmp            00000001400afa64 f   LIBCMT:stricmp.obj
 0001:000aeaa0       _stricmp                   00000001400afaa0 f   LIBCMT:stricmp.obj
 0001:000aeae8       _stricmp_l                 00000001400afae8 f   LIBCMT:stricmp.obj
 0001:000aedd8       strtol                     00000001400afdd8 f   LIBCMT:strtol.obj
 0001:000aee08       strtoul                    00000001400afe08 f   LIBCMT:strtol.obj
 0001:000aee3c       strspn                     00000001400afe3c f   LIBCMT:strspn.obj
 0001:000aef00       fputs                      00000001400aff00 f   LIBCMT:fputs.obj
 0001:000af02c       fprintf                    00000001400b002c f   LIBCMT:fprintf.obj
 0001:000af154       fputc                      00000001400b0154 f   LIBCMT:fputc.obj
 0001:000af264       strcspn                    00000001400b0264 f   LIBCMT:strcspn.obj
 0001:000af304       _atof_l                    00000001400b0304 f   LIBCMT:atof.obj
 0001:000af3c0       atof                       00000001400b03c0 f   LIBCMT:atof.obj
 0001:000af3c8       wcsncpy                    00000001400b03c8 f   LIBCMT:wcsncpy.obj
 0001:000af410       _toupper_l                 00000001400b0410 f   LIBCMT:toupper.obj
 0001:000af560       toupper                    00000001400b0560 f   LIBCMT:toupper.obj
 0001:000af580       _vscprintf                 00000001400b0580 f   LIBCMT:vsprintf.obj
 0001:000af598       _vscprintf_helper          00000001400b0598 f   LIBCMT:vsprintf.obj
 0001:000af628       feof                       00000001400b0628 f   LIBCMT:feoferr.obj
 0001:000af650       _ftelli64                  00000001400b0650 f   LIBCMT:ftelli64.obj
 0001:000af6ac       _ftelli64_nolock           00000001400b06ac f   LIBCMT:ftelli64.obj
 0001:000af9c0       _fseeki64                  00000001400b09c0 f   LIBCMT:fseeki64.obj
 0001:000afa34       _fseeki64_nolock           00000001400b0a34 f   LIBCMT:fseeki64.obj
 0001:000afae8       _fread_nolock_s            00000001400b0ae8 f   LIBCMT:fread.obj
 0001:000afd08       fread                      00000001400b0d08 f   LIBCMT:fread.obj
 0001:000afd28       fread_s                    00000001400b0d28 f   LIBCMT:fread.obj
 0001:000afdd0       _fflush_nolock             00000001400b0dd0 f   LIBCMT:fflush.obj
 0001:000afe1c       _flush                     00000001400b0e1c f   LIBCMT:fflush.obj
 0001:000afe98       _flushall                  00000001400b0e98 f   LIBCMT:fflush.obj
 0001:000afea4       fflush                     00000001400b0ea4 f   LIBCMT:fflush.obj
 0001:000affd0       fgetc                      00000001400b0fd0 f   LIBCMT:fgetc.obj
 0001:000b00d0       fgets                      00000001400b10d0 f   LIBCMT:fgets.obj
 0001:000b0230       vfprintf                   00000001400b1230 f   LIBCMT:vfprintf.obj
 0001:000b0254       vfprintf_helper            00000001400b1254 f   LIBCMT:vfprintf.obj
 0001:000b0394       malloc                     00000001400b1394 f   LIBCMT:malloc.obj
 0001:000b044c       _set_abort_behavior        00000001400b144c f   LIBCMT:abort.obj
 0001:000b0468       abort                      00000001400b1468 f   LIBCMT:abort.obj
 0001:000b04c0       free                       00000001400b14c0 f   LIBCMT:free.obj
 0001:000b0500       _fseek_nolock              00000001400b1500 f   LIBCMT:fseek.obj
 0001:000b05ac       fseek                      00000001400b15ac f   LIBCMT:fseek.obj
 0001:000b0620       _ftell_nolock              00000001400b1620 f   LIBCMT:ftell.obj
 0001:000b0934       ftell                      00000001400b1934 f   LIBCMT:ftell.obj
 0001:000b098c       _ctime64                   00000001400b198c f   LIBCMT:ctime64.obj
 0001:000b09f8       WinMainCRTStartup          00000001400b19f8 f   LIBCMT:wincrt0.obj
 0001:000b0be0       memset                     00000001400b1be0 f   LIBCMT:memset.obj
 0001:000b0e20       strlen                     00000001400b1e20 f   LIBCMT:strlen.obj
 0001:000b0ec8       _msize                     00000001400b1ec8 f   LIBCMT:msize.obj
 0001:000b0f04       _calloc_crt                00000001400b1f04 f   LIBCMT:crtheap.obj
 0001:000b0f84       _malloc_crt                00000001400b1f84 f   LIBCMT:crtheap.obj
 0001:000b1000       _realloc_crt               00000001400b2000 f   LIBCMT:crtheap.obj
 0001:000b1084       _recalloc_crt              00000001400b2084 f   LIBCMT:crtheap.obj
 0001:000b1108       __C_specific_handler       00000001400b2108 f   LIBCMT:chandler.obj
 0001:000b12ec       _call_reportfault          00000001400b22ec f   LIBCMT:invarg.obj
 0001:000b13e0       _initp_misc_invarg         00000001400b23e0 f   LIBCMT:invarg.obj
 0001:000b13e8       _invalid_parameter         00000001400b23e8 f   LIBCMT:invarg.obj
 0001:000b1450       _invalid_parameter_noinfo  00000001400b2450 f   LIBCMT:invarg.obj
 0001:000b1470       _invoke_watson             00000001400b2470 f   LIBCMT:invarg.obj
 0001:000b14ac       _flsbuf                    00000001400b24ac f   LIBCMT:_flsbuf.obj
 0001:000b1638       _output_l                  00000001400b2638 f   LIBCMT:output.obj
 0001:000b2178       __doserrno                 00000001400b3178 f   LIBCMT:dosmap.obj
 0001:000b2198       _dosmaperr                 00000001400b3198 f   LIBCMT:dosmap.obj
 0001:000b21e8       _errno                     00000001400b31e8 f   LIBCMT:dosmap.obj
 0001:000b2208       _get_errno_from_oserr      00000001400b3208 f   LIBCMT:dosmap.obj
 0001:000b2258       ?_inconsistency@@YAXXZ     00000001400b3258 f   LIBCMT:hooks.obj
 0001:000b2278       ?terminate@@YAXXZ          00000001400b3278 f   LIBCMT:hooks.obj
 0001:000b2298       _initp_eh_hooks            00000001400b3298 f   LIBCMT:hooks.obj
 0001:000b22b8       __isa_available_init       00000001400b32b8 f   LIBCMT:cpu_disp.obj
 0001:000b245c       __raise_securityfailure    00000001400b345c f   LIBCMT:gs_report.obj
 0001:000b24a8       __report_gsfailure         00000001400b34a8 f   LIBCMT:gs_report.obj
 0001:000b257c       __report_rangecheckfailure 00000001400b357c f   LIBCMT:gs_report.obj
 0001:000b2590       __report_securityfailure   00000001400b3590 f   LIBCMT:gs_report.obj
 0001:000b262c       __GSHandlerCheck           00000001400b362c f   LIBCMT:gshandler.obj
 0001:000b264c       __GSHandlerCheckCommon     00000001400b364c f   LIBCMT:gshandler.obj
 0001:000b26c0       __security_check_cookie    00000001400b36c0 f   LIBCMT:amdsecgs.obj
 0001:000b26e0       _initp_misc_purevirt       00000001400b36e0 f   LIBCMT:inithelp.obj
 0001:000b2700       strcmp                     00000001400b3700 f   LIBCMT:strcmp.obj
 0001:000b2768       ?_Type_info_dtor@type_info@@CAXPEAV1@@Z 00000001400b3768 f   LIBCMT:typname.obj
 0001:000b27d4       __initstdio                00000001400b37d4 f   LIBCMT:_file.obj
 0001:000b286c       __endstdio                 00000001400b386c f   LIBCMT:_file.obj
 0001:000b289c       __iob_func                 00000001400b389c f   LIBCMT:_file.obj
 0001:000b28a4       _lock_file                 00000001400b38a4 f   LIBCMT:_file.obj
 0001:000b290c       _lock_file2                00000001400b390c f   LIBCMT:_file.obj
 0001:000b2940       _unlock_file               00000001400b3940 f   LIBCMT:_file.obj
 0001:000b2990       _unlock_file2              00000001400b3990 f   LIBCMT:_file.obj
 0001:000b29b0       _ftbuf                     00000001400b39b0 f   LIBCMT:_sftbuf.obj
 0001:000b29e8       _stbuf                     00000001400b39e8 f   LIBCMT:_sftbuf.obj
 0001:000b2ab8       _wremove                   00000001400b3ab8 f   LIBCMT:wunlink.obj
 0001:000b2ae8       _wrename                   00000001400b3ae8 f   LIBCMT:wrename.obj
 0001:000b2b20       __crtCaptureCurrentContext 00000001400b3b20 f   LIBCMT:winapisupp.obj
 0001:000b2b90       __crtCapturePreviousContext 00000001400b3b90 f   LIBCMT:winapisupp.obj
 0001:000b2c04       __crtFlsAlloc              00000001400b3c04 f   LIBCMT:winapisupp.obj
 0001:000b2c20       __crtFlsFree               00000001400b3c20 f   LIBCMT:winapisupp.obj
 0001:000b2c3c       __crtFlsGetValue           00000001400b3c3c f   LIBCMT:winapisupp.obj
 0001:000b2c58       __crtFlsSetValue           00000001400b3c58 f   LIBCMT:winapisupp.obj
 0001:000b2c74       __crtGetShowWindowMode     00000001400b3c74 f   LIBCMT:winapisupp.obj
 0001:000b2ca0       __crtInitializeCriticalSectionEx 00000001400b3ca0 f   LIBCMT:winapisupp.obj
 0001:000b2ccc       __crtIsPackagedApp         00000001400b3ccc f   LIBCMT:winapisupp.obj
 0001:000b2d18       __crtLoadWinApiPointers    00000001400b3d18 f   LIBCMT:winapisupp.obj
 0001:000b3114       __crtSetUnhandledExceptionFilter 00000001400b4114 f   LIBCMT:winapisupp.obj
 0001:000b311c       __crtSleep                 00000001400b411c f   LIBCMT:winapisupp.obj
 0001:000b3124       __crtTerminateProcess      00000001400b4124 f   LIBCMT:winapisupp.obj
 0001:000b3144       __crtUnhandledException    00000001400b4144 f   LIBCMT:winapisupp.obj
 0001:000b3164       _fileno                    00000001400b4164 f   LIBCMT:fileno.obj
 0001:000b318c       _close                     00000001400b418c f   LIBCMT:close.obj
 0001:000b3250       _close_nolock              00000001400b4250 f   LIBCMT:close.obj
 0001:000b330c       _freebuf                   00000001400b430c f   LIBCMT:_freebuf.obj
 0001:000b3344       _getstream                 00000001400b4344 f   LIBCMT:stream.obj
 0001:000b347c       _openfile                  00000001400b447c f   LIBCMT:_open.obj
 0001:000b3750       _local_unwind              00000001400b4750 f   LIBCMT:jmpuwind.obj
 0001:000b3780       _NLG_Notify                00000001400b4780 f   LIBCMT:jmpuwind.obj
 0001:000b37a0       __NLG_Dispatch2            00000001400b47a0 f   LIBCMT:jmpuwind.obj
 0001:000b37b0       __NLG_Return2              00000001400b47b0 f   LIBCMT:jmpuwind.obj
 0001:000b37b4       _write                     00000001400b47b4 f   LIBCMT:write.obj
 0001:000b3898       _write_nolock              00000001400b4898 f   LIBCMT:write.obj
 0001:000b408c       __addlocaleref             00000001400b508c f   LIBCMT:localref.obj
 0001:000b4118       __freetlocinfo             00000001400b5118 f   LIBCMT:localref.obj
 0001:000b42b0       __removelocaleref          00000001400b52b0 f   LIBCMT:localref.obj
 0001:000b4354       __updatetlocinfo           00000001400b5354 f   LIBCMT:localref.obj
 0001:000b43cc       _updatetlocinfoEx_nolock   00000001400b53cc f   LIBCMT:localref.obj
 0001:000b4430       __initmbctable             00000001400b5430 f   LIBCMT:mbctype.obj
 0001:000b474c       __updatetmbcinfo           00000001400b574c f   LIBCMT:mbctype.obj
 0001:000b4808       _setmbcp                   00000001400b5808 f   LIBCMT:mbctype.obj
 0001:000b4a4c       _setmbcp_nolock            00000001400b5a4c f   LIBCMT:mbctype.obj
 0001:000b4cfc       _isctype_l                 00000001400b5cfc f   LIBCMT:isctype.obj
 0001:000b4dd8       _freefls                   00000001400b5dd8 f   LIBCMT:tidtable.obj
 0001:000b4f0c       _getptd                    00000001400b5f0c f   LIBCMT:tidtable.obj
 0001:000b4f30       _getptd_noexit             00000001400b5f30 f   LIBCMT:tidtable.obj
 0001:000b4fb4       _initptd                   00000001400b5fb4 f   LIBCMT:tidtable.obj
 0001:000b5078       _mtinit                    00000001400b6078 f   LIBCMT:tidtable.obj
 0001:000b50f8       _mtterm                    00000001400b60f8 f   LIBCMT:tidtable.obj
 0001:000b511c       _locterm                   00000001400b611c f   LIBCMT:wsetloca.obj
 0001:000b5164       _RTC_Initialize            00000001400b6164 f   LIBCMT:initsect.obj
 0001:000b519c       _RTC_Terminate             00000001400b619c f   LIBCMT:initsect.obj
 0001:000b51d4       _lock                      00000001400b61d4 f   LIBCMT:mlock.obj
 0001:000b5218       _mtdeletelocks             00000001400b6218 f   LIBCMT:mlock.obj
 0001:000b52a0       _mtinitlocknum             00000001400b62a0 f   LIBCMT:mlock.obj
 0001:000b5360       _mtinitlocks               00000001400b6360 f   LIBCMT:mlock.obj
 0001:000b53c4       _unlock                    00000001400b63c4 f   LIBCMT:mlock.obj
 0001:000b53dc       _FF_MSGBANNER              00000001400b63dc f   LIBCMT:crt0msg.obj
 0001:000b5420       _GET_RTERRMSG              00000001400b6420 f   LIBCMT:crt0msg.obj
 0001:000b5450       _NMSG_WRITE                00000001400b6450 f   LIBCMT:crt0msg.obj
 0001:000b56c0       _FindPESection             00000001400b66c0 f   LIBCMT:pesect.obj
 0001:000b5710       _IsNonwritableInCurrentImage 00000001400b6710 f   LIBCMT:pesect.obj
 0001:000b5760       _ValidateImageBase         00000001400b6760 f   LIBCMT:pesect.obj
 0001:000b5790       _initp_misc_cfltcvt_tab    00000001400b6790 f   LIBCMT:cmiscdat.obj
 0001:000b57cc       _callnewh                  00000001400b67cc f   LIBCMT:handler.obj
 0001:000b5800       _initp_heap_handler        00000001400b6800 f   LIBCMT:handler.obj
 0001:000b5808       __get_sigabrt              00000001400b6808 f   LIBCMT:winsig.obj
 0001:000b5818       _initp_misc_winsig         00000001400b6818 f   LIBCMT:winsig.obj
 0001:000b5838       raise                      00000001400b6838 f   LIBCMT:winsig.obj
 0001:000b5a6c       _initp_misc_rand_s         00000001400b6a6c f   LIBCMT:rand_s.obj
 0001:000b5b34       _input_l                   00000001400b6b34 f   LIBCMT:input.obj
 0001:000b6b1c       __daylight                 00000001400b7b1c f   LIBCMT:timeset.obj
 0001:000b6b24       __dstbias                  00000001400b7b24 f   LIBCMT:timeset.obj
 0001:000b6b2c       __timezone                 00000001400b7b2c f   LIBCMT:timeset.obj
 0001:000b6b34       __tzname                   00000001400b7b34 f   LIBCMT:timeset.obj
 0001:000b6b3c       _get_daylight              00000001400b7b3c f   LIBCMT:timeset.obj
 0001:000b6b6c       _get_dstbias               00000001400b7b6c f   LIBCMT:timeset.obj
 0001:000b6b9c       _get_timezone              00000001400b7b9c f   LIBCMT:timeset.obj
 0001:000b6bcc       _gmtime64_s                00000001400b7bcc f   LIBCMT:gmtime64.obj
 0001:000b6e9c       __tzset                    00000001400b7e9c f   LIBCMT:tzset.obj
 0001:000b6ed8       _isindst                   00000001400b7ed8 f   LIBCMT:tzset.obj
 0001:000b78e8       __getgmtimebuf             00000001400b88e8 f   LIBCMT:gmtime.obj
 0001:000b7930       strcpy_s                   00000001400b8930 f   LIBCMT:strcpy_s.obj
 0001:000b85d0       _Wcsftime_l                00000001400b95d0 f   LIBCMT:wcsftime.obj
 0001:000b8768       _isleadbyte_l              00000001400b9768 f i LIBCMT:_wctype.obj
 0001:000b87ac       isleadbyte                 00000001400b97ac f i LIBCMT:_wctype.obj
 0001:000b8ae0       __crtLCMapStringA          00000001400b9ae0 f   LIBCMT:a_map.obj
 0001:000b8b78       _fltin2                    00000001400b9b78 f   LIBCMT:cfin.obj
 0001:000b8c40       _fpmath                    00000001400b9c40 f   LIBCMT:fpinit.obj
 0001:000b8c48       _cfltcvt_init              00000001400b9c48 f   LIBCMT:fpinit.obj
 0001:000b8cd0       _ioinit                    00000001400b9cd0 f   LIBCMT:ioinit.obj
 0001:000b9000       __strgtold12_l             00000001400ba000 f   LIBCMT:strgtold.obj
 0001:000b9864       _lseeki64                  00000001400ba864 f   LIBCMT:lseeki64.obj
 0001:000b994c       _lseeki64_nolock           00000001400ba94c f   LIBCMT:lseeki64.obj
 0001:000b99f0       __chkstk                   00000001400ba9f0 f   LIBCMT:chkstk.obj
 0001:000b99f0       _alloca_probe              00000001400ba9f0 f   LIBCMT:chkstk.obj
 0001:000b9a40       _read                      00000001400baa40 f   LIBCMT:read.obj
 0001:000b9b5c       _read_nolock               00000001400bab5c f   LIBCMT:read.obj
 0001:000ba3cc       _filbuf                    00000001400bb3cc f   LIBCMT:_filbuf.obj
 0001:000ba510       memcpy_s                   00000001400bb510 f   LIBCMT:memcpy_s.obj
 0001:000ba598       _commit                    00000001400bb598 f   LIBCMT:commit.obj
 0001:000ba670       _heap_init                 00000001400bb670 f   LIBCMT:heapinit.obj
 0001:000ba690       _lseek                     00000001400bb690 f   LIBCMT:lseek.obj
 0001:000ba774       _lseek_nolock              00000001400bb774 f   LIBCMT:lseek.obj
 0001:000ba858       asctime                    00000001400bb858 f   LIBCMT:asctime.obj
 0001:000ba8d4       asctime_s                  00000001400bb8d4 f   LIBCMT:asctime.obj
 0001:000babb4       ?__CxxUnhandledExceptionFilter@@YAJPEAU_EXCEPTION_POINTERS@@@Z 00000001400bbbb4 f   LIBCMT:unhandld.obj
 0001:000babec       __CxxSetUnhandledExceptionFilter 00000001400bbbec f   LIBCMT:unhandld.obj
 0001:000bac04       _XcptFilter                00000001400bbc04 f   LIBCMT:winxfltr.obj
 0001:000badd0       _setargv                   00000001400bbdd0 f   LIBCMT:stdargv.obj
 0001:000bb08c       _setenvp                   00000001400bc08c f   LIBCMT:stdenvp.obj
 0001:000bb1c0       __set_app_type             00000001400bc1c0 f   LIBCMT:errmode.obj
 0001:000bb1c8       _set_error_mode            00000001400bc1c8 f   LIBCMT:errmode.obj
 0001:000bb208       __security_init_cookie     00000001400bc208 f   LIBCMT:gs_support.obj
 0001:000bb2b4       __crtGetEnvironmentStringsA 00000001400bc2b4 f   LIBCMT:a_env.obj
 0001:000bb3a8       _wincmdln                  00000001400bc3a8 f   LIBCMT:wincmdln.obj
 0001:000bb424       realloc                    00000001400bc424 f   LIBCMT:realloc.obj
 0001:000bb4f8       _recalloc                  00000001400bc4f8 f   LIBCMT:recalloc.obj
 0001:000bb580       _calloc_impl               00000001400bc580 f   LIBCMT:calloc_impl.obj
 0001:000bb61c       __crt_debugger_hook        00000001400bc61c f   LIBCMT:dbghook.obj
 0001:000bb624       _isatty                    00000001400bc624 f   LIBCMT:isatty.obj
 0001:000bb684       _getbuf                    00000001400bc684 f   LIBCMT:_getbuf.obj
 0001:000bb6d8       _wctomb_s_l                00000001400bc6d8 f   LIBCMT:wctomb.obj
 0001:000bb864       wctomb_s                   00000001400bc864 f   LIBCMT:wctomb.obj
 0001:000bb878       strncpy_s                  00000001400bc878 f   LIBCMT:strncpy_s.obj
 0001:000bb934       GetTableIndexFromLocaleName 00000001400bc934 f   LIBCMT:winapinls.obj
 0001:000bb9c0       __crtCompareStringEx       00000001400bc9c0 f   LIBCMT:winapinls.obj
 0001:000bba50       __crtDownlevelLocaleNameToLCID 00000001400bca50 f   LIBCMT:winapinls.obj
 0001:000bba84       __crtGetDateFormatEx       00000001400bca84 f   LIBCMT:winapinls.obj
 0001:000bbb00       __crtGetTimeFormatEx       00000001400bcb00 f   LIBCMT:winapinls.obj
 0001:000bbb78       __crtLCMapStringEx         00000001400bcb78 f   LIBCMT:winapinls.obj
 0001:000bbc08       __wcsnicmp_ascii           00000001400bcc08 f   LIBCMT:winapinls.obj
 0001:000bbc60       _fcloseall                 00000001400bcc60 f   LIBCMT:closeall.obj
 0001:000bbd08       __lock_fhandle             00000001400bcd08 f   LIBCMT:osfinfo.obj
 0001:000bbda0       _alloc_osfhnd              00000001400bcda0 f   LIBCMT:osfinfo.obj
 0001:000bbf98       _free_osfhnd               00000001400bcf98 f   LIBCMT:osfinfo.obj
 0001:000bc044       _get_osfhandle             00000001400bd044 f   LIBCMT:osfinfo.obj
 0001:000bc0b8       _set_osfhnd                00000001400bd0b8 f   LIBCMT:osfinfo.obj
 0001:000bc168       _unlock_fhandle            00000001400bd168 f   LIBCMT:osfinfo.obj
 0001:000bc194       _sopen_helper              00000001400bd194 f   LIBCMT:open.obj
 0001:000bc274       _sopen_nolock              00000001400bd274 f   LIBCMT:open.obj
 0001:000bc2fc       _sopen_s                   00000001400bd2fc f   LIBCMT:open.obj
 0001:000bc330       _mbsnbcmp                  00000001400bd330 f   LIBCMT:mbsnbcmp.obj
 0001:000bc338       _mbsnbcmp_l                00000001400bd338 f   LIBCMT:mbsnbcmp.obj
 0001:000bc464       _mbsnbicmp                 00000001400bd464 f   LIBCMT:mbsnbicm.obj
 0001:000bc46c       _mbsnbicmp_l               00000001400bd46c f   LIBCMT:mbsnbicm.obj
 0001:000bc61c       _mbtowc_l                  00000001400bd61c f   LIBCMT:mbtowc.obj
 0001:000bc770       mbtowc                     00000001400bd770 f   LIBCMT:mbtowc.obj
 0001:000bc778       _putwch_nolock             00000001400bd778 f   LIBCMT:putwch.obj
 0001:000bc7d4       __free_lconv_mon           00000001400bd7d4 f   LIBCMT:initmon.obj
 0001:000bc8e0       __free_lconv_num           00000001400bd8e0 f   LIBCMT:initnum.obj
 0001:000bc94c       __free_lc_time             00000001400bd94c f   LIBCMT:inittime.obj
 0001:000bcec0       __crtGetStringTypeA        00000001400bdec0 f   LIBCMT:a_str.obj
 0001:000bcf3c       ___lc_codepage_func        00000001400bdf3c f   LIBCMT:initctyp.obj
 0001:000bcf90       memcmp                     00000001400bdf90 f   LIBCMT:memcmp.obj
 0001:000bd058       wcscat_s                   00000001400be058 f   LIBCMT:wcscat_s.obj
 0001:000bd0e0       wcscpy_s                   00000001400be0e0 f   LIBCMT:wcscpy_s.obj
 0001:000bd14c       wcslen                     00000001400be14c f   LIBCMT:wcslen.obj
 0001:000bd168       wcsnlen                    00000001400be168 f   LIBCMT:wcslen_s.obj
 0001:000bd188       wcsncpy_s                  00000001400be188 f   LIBCMT:wcsncpy_s.obj
 0001:000bd254       __crtMessageBoxW           00000001400be254 f   LIBCMT:crtmboxw.obj
 0001:000bd4c8       _fptrap                    00000001400be4c8 f   LIBCMT:crt0fp.obj
 0001:000bd4d4       __crt_atoflt_l             00000001400be4d4 f   LIBCMT:atodbl.obj
 0001:000bd5a4       _atodbl_l                  00000001400be5a4 f   LIBCMT:atodbl.obj
 0001:000bd66c       _atoflt_l                  00000001400be66c f   LIBCMT:atodbl.obj
 0001:000bd674       _ungetc_nolock             00000001400be674 f   LIBCMT:ungetc.obj
 0001:000bd77c       _getenv_helper_nolock      00000001400be77c f   LIBCMT:getenv.obj
 0001:000bd820       _wcsicmp                   00000001400be820 f   LIBCMT:wcsicmp.obj
 0001:000bd8a4       _wcsicmp_l                 00000001400be8a4 f   LIBCMT:wcsicmp.obj
 0001:000bd994       _mbstowcs_l_helper         00000001400be994 f   LIBCMT:mbstowcs.obj
 0001:000bdb70       _mbstowcs_s_l              00000001400beb70 f   LIBCMT:mbstowcs.obj
 0001:000bdca0       iswctype                   00000001400beca0 f   LIBCMT:iswctype.obj
 0001:000bdd08       _ld12tod                   00000001400bed08 f   LIBCMT:intrncvt.obj
 0001:000be2c0       _ld12tof                   00000001400bf2c0 f   LIBCMT:intrncvt.obj
 0001:000be878       _cfltcvt                   00000001400bf878 f   LIBCMT:cvt.obj
 0001:000be89c       _cfltcvt_l                 00000001400bf89c f   LIBCMT:cvt.obj
 0001:000be91c       _cftoa_l                   00000001400bf91c f   LIBCMT:cvt.obj
 0001:000beec8       _cftoe_l                   00000001400bfec8 f   LIBCMT:cvt.obj
 0001:000bf124       _cftof_l                   00000001400c0124 f   LIBCMT:cvt.obj
 0001:000bf1f8       _cftog_l                   00000001400c01f8 f   LIBCMT:cvt.obj
 0001:000bf32c       _cropzeros                 00000001400c032c f   LIBCMT:cvt.obj
 0001:000bf334       _cropzeros_l               00000001400c0334 f   LIBCMT:cvt.obj
 0001:000bf3cc       _fassign                   00000001400c03cc f   LIBCMT:cvt.obj
 0001:000bf3d4       _fassign_l                 00000001400c03d4 f   LIBCMT:cvt.obj
 0001:000bf414       _forcdecpt                 00000001400c0414 f   LIBCMT:cvt.obj
 0001:000bf41c       _forcdecpt_l               00000001400c041c f   LIBCMT:cvt.obj
 0001:000bf49c       _positive                  00000001400c049c f   LIBCMT:cvt.obj
 0001:000bf4b0       __mtold12                  00000001400c04b0 f   LIBCMT:mantold.obj
 0001:000bf750       _ismbblead                 00000001400c0750 f   LIBCMT:ismbbyte.obj
 0001:000bf854       _wsopen_nolock             00000001400c0854 f   LIBCMT:wopen.obj
 0001:000c000c       __ascii_strnicmp           00000001400c100c f   LIBCMT:strnicmp.obj
 0001:000c0054       _strnicmp                  00000001400c1054 f   LIBCMT:strnicmp.obj
 0001:000c00a4       _strnicmp_l                00000001400c10a4 f   LIBCMT:strnicmp.obj
 0001:000c0180       __termconout               00000001400c1180 f   LIBCMT:initcon.obj
 0001:000c01a0       __initconout               00000001400c11a0 f   LIBCMT:initcon.obj
 0001:000c01dc       __wtomb_environ            00000001400c11dc f   LIBCMT:wtombenv.obj
 0001:000c02d0       _mbsnbicoll                00000001400c12d0 f   LIBCMT:mbsnbico.obj
 0001:000c02d8       _mbsnbicoll_l              00000001400c12d8 f   LIBCMT:mbsnbico.obj
 0001:000c03d8       _towlower_l                00000001400c13d8 f   LIBCMT:towlower.obj
 0001:000c04a4       _fptostr                   00000001400c14a4 f   LIBCMT:_fptostr.obj
 0001:000c0570       __dtold                    00000001400c1570 f   LIBCMT:cfout.obj
 0001:000c0640       _fltout2                   00000001400c1640 f   LIBCMT:cfout.obj
 0001:000c06f8       _chsize_nolock             00000001400c16f8 f   LIBCMT:chsize.obj
 0001:000c0890       _get_fmode                 00000001400c1890 f   LIBCMT:setmode.obj
 0001:000c08c0       _setmode_nolock            00000001400c18c0 f   LIBCMT:setmode.obj
 0001:000c099c       __crtsetenv                00000001400c199c f   LIBCMT:setenv.obj
 0001:000c0d50       _strnicoll_l               00000001400c1d50 f   LIBCMT:strnicol.obj
 0001:000c11b8       __crtCompareStringA        00000001400c21b8 f   LIBCMT:a_cmp.obj
 0001:000c1244       __crtLCMapStringW          00000001400c2244 f   LIBCMT:w_map.obj
 0001:000c1290       $I10_OUTPUT                00000001400c2290 f   LIBCMT:x10fout.obj
 0001:000c1d68       _strdup                    00000001400c2d68 f   LIBCMT:strdup.obj
 0001:000c1dd8       _mbschr                    00000001400c2dd8 f   LIBCMT:mbschr.obj
 0001:000c1de0       _mbschr_l                  00000001400c2de0 f   LIBCMT:mbschr.obj
 0001:000c1e9e       IsProcessorFeaturePresent  00000001400c2e9e f   kernel32:KERNEL32.dll
 0001:000c1ea4       RtlUnwindEx                00000001400c2ea4 f   kernel32:KERNEL32.dll
 0001:000c1fa0       ?shouldsaveblendmap@@YAEXZ 00000001400c2fa0 f   blend.obj
 0001:000c1fc0       ?saveblendmap@@YAXPEAUstream@@@Z 00000001400c2fc0 f   blend.obj
 0001:000c1fe0       ?saveblendmap@@YAXPEAUstream@@EAEAUBlendMapNode@@@Z 00000001400c2fe0 f   blend.obj
 0001:000c20b0       ?loadblendmap@@YA_NPEAUstream@@H@Z 00000001400c30b0 f   blend.obj
 0001:000c20e0       ?loadblendmap@@YA_NPEAUstream@@AEAEAEAUBlendMapNode@@@Z 00000001400c30e0 f   blend.obj
 0001:000c2250       ?renderblendbrush@@YAXXZ   00000001400c3250 f   blend.obj
 0001:000c2410       ?run@?$_icmd_moveblendmap@$0DAN@@@SAXPEAH0@Z 00000001400c3410 f   blend.obj
 0001:000c24f0       ?run@?$_icmd_clearblendmap@$0CPO@@@SAXXZ 00000001400c34f0 f   blend.obj
 0001:000c2560       ?showblendmap@@YAXXZ       00000001400c3560 f   blend.obj
 0001:000c25f0       ?invertblendmap@@YAXXZ     00000001400c35f0 f   blend.obj
 0001:000c2680       ?invertblendmapsel@@YAXXZ  00000001400c3680 f   blend.obj
 0001:000c2790       ?clearblendmapsel@@YAXXZ   00000001400c3790 f   blend.obj
 0001:000c28b0       ?run@?$_icmd_paintblendmap@$0CMK@@@SAXPEAH@Z 00000001400c38b0 f   blend.obj
 0001:000c2900       ?trypaintblendmap@@YAXXZ   00000001400c3900 f   blend.obj
 0001:000c2970       ?stoppaintblendmap@@YAXXZ  00000001400c3970 f   blend.obj
 0001:000c2990       ?paintblendmap@@YAX_N@Z    00000001400c3990 f   blend.obj
 0001:000c2b30       ?rotateblendbrush@@YAXPEAH@Z 00000001400c3b30 f   blend.obj
 0001:000c2c40       ?canpaintblendmap@@YA_N_N00@Z 00000001400c3c40 f   blend.obj
 0001:000c2d00       ?curblendbrush@@YAXXZ      00000001400c3d00 f   blend.obj
 0001:000c2d20       ?getblendbrushname@@YAXPEAH@Z 00000001400c3d20 f   blend.obj
 0001:000c2d70       ?setblendbrush@@YAXPEBD@Z  00000001400c3d70 f   blend.obj
 0001:000c2de0       ?nextblendbrush@@YAXPEAH@Z 00000001400c3de0 f   blend.obj
 0001:000c2e40       ?addblendbrush@@YAXPEBD0@Z 00000001400c3e40 f   blend.obj
 0001:000c3110       ?delblendbrush@@YAXPEBD@Z  00000001400c4110 f   blend.obj
 0001:000c32a0       ?clearblendbrushes@@YAXXZ  00000001400c42a0 f   blend.obj
 0001:000c3350       ?cleanupblendmap@@YAXXZ    00000001400c4350 f   blend.obj
 0001:000c33d0       ?moveblendmap@@YAXHH@Z     00000001400c43d0 f   blend.obj
 0001:000c34b0       ?moveblendmap@@YAXEAEAUBlendMapNode@@HHHHH@Z 00000001400c44b0 f   blend.obj
 0001:000c3610       ?shrinkblendmap@@YAXH@Z    00000001400c4610 f   blend.obj
 0001:000c3630       ?enlargeblendmap@@YAXXZ    00000001400c4630 f   blend.obj
 0001:000c36b0       ?resetblendmap@@YAXXZ      00000001400c46b0 f   blend.obj
 0001:000c3760       ?blitblendmap@@YAXPEAEHHHHH@Z 00000001400c4760 f   blend.obj
 0001:000c3f50       ?var_blendpaintmode@@YAXXZ 00000001400c4f50 f   blend.obj
 0001:000c3f70       ?optimizeblendmap@@YAXXZ   00000001400c4f70 f   blend.obj
 0001:000c4120       ?invertblendmap@@YAXHHHH@Z 00000001400c5120 f   blend.obj
 0001:000c4460       ?fillblendmap@@YAXHHHHE@Z  00000001400c5460 f   blend.obj
 0001:000c48a0       ?lookupblendmap@@YAEPEAUBlendMapCache@@AEBUvec@@@Z 00000001400c58a0 f   blend.obj
 0001:000c4c00       ?setblendmaporigin@@YA_NPEAUBlendMapCache@@AEBUivec@@H@Z 00000001400c5c00 f   blend.obj
 0001:000c4dc0       ?freeblendmapcache@@YAXAEAPEAUBlendMapCache@@@Z 00000001400c5dc0 f   blend.obj
 0001:000c4df0       ?newblendmapcache@@YAPEAUBlendMapCache@@XZ 00000001400c5df0 f   blend.obj
 0001:000c4e30       ?shrink@BlendMapBranch@@QEAAEAEAUBlendMapNode@@H@Z 00000001400c5e30 f   blend.obj
 0001:000c4e60       ?splitsolid@BlendMapNode@@QEAAXAEAEE@Z 00000001400c5e60 f   blend.obj
 0001:000c4f00       ?cleanup@BlendMapNode@@QEAAXH@Z 00000001400c5f00 f   blend.obj
 0001:000c4fb0       ?importcube@@YAXPEAD@Z     00000001400c5fb0 f   cubeloader.obj
 0001:000c5230       ?dumplms@@YAXXZ            00000001400c6230 f   lightmap.obj
 0001:000c53c0       ?brightestlight@@YAPEAUentity@@AEBUvec@@0@Z 00000001400c63c0 f   lightmap.obj
 0001:000c57c0       ?lightreaching@@YAXAEBUvec@@AEAU1@1_NPEAUextentity@@M@Z 00000001400c67c0 f   lightmap.obj
 0001:000c64c0       ?initlights@@YAXXZ         00000001400c74c0 f   lightmap.obj
 0001:000c6550       ?lightents@@YAX_N@Z        00000001400c7550 f   lightmap.obj
 0001:000c66b0       ?lightent@@YAXAEAUextentity@@M@Z 00000001400c76b0 f   lightmap.obj
 0001:000c6770       ?genlightmaptexs@@YAXHH@Z  00000001400c7770 f   lightmap.obj
 0001:000c6d50       ?var_batchlightmaps@@YAXXZ 00000001400c7d50 f   lightmap.obj
 0001:000c6d70       ?var_roundlightmaptex@@YAXXZ 00000001400c7d70 f   lightmap.obj
 0001:000c6f50       ?genreservedlightmaptexs@@YAXXZ 00000001400c7f50 f   lightmap.obj
 0001:000c7930       ?var_convertlms@@YAXXZ     00000001400c8930 f   lightmap.obj
 0001:000c7b30       ?fixrotatedlightmaps@@YAXXZ 00000001400c8b30 f   lightmap.obj
 0001:000c7bb0       ?fixrotatedlightmaps@@YAXAEAUcube@@AEBUivec@@H@Z 00000001400c8bb0 f   lightmap.obj
 0001:000c8020       ?fixlightmapnormals@@YAXXZ 00000001400c9020 f   lightmap.obj
 0001:000c8210       ?var_fullbrightlevel@@YAXXZ 00000001400c9210 f   lightmap.obj
 0001:000c8220       ?var_fullbright@@YAXXZ     00000001400c9220 f   lightmap.obj
 0001:000c8250       ?setfullbrightlevel@@YAXH@Z 00000001400c9250 f   lightmap.obj
 0001:000c8410       ?clearlightmaps@@YAXXZ     00000001400c9410 f   lightmap.obj
 0001:000c84b0       ?patchlight@@YAXPEAH@Z     00000001400c94b0 f   lightmap.obj
 0001:000c89d0       ?calclight@@YAXPEAH@Z      00000001400c99d0 f   lightmap.obj
 0001:000c9290       ?setlightmapquality@@YA_NH@Z 00000001400ca290 f   lightmap.obj
 0001:000c9320       ?setupthread@lightmapworker@@QEAA_NXZ 00000001400ca320 f   lightmap.obj
 0001:000c9380       ?reset@lightmapworker@@QEAAXXZ 00000001400ca380 f   lightmap.obj
 0001:000c93e0       ?cleanupthread@lightmapworker@@QEAAXXZ 00000001400ca3e0 f   lightmap.obj
 0001:000c9430       ??1lightmapworker@@QEAA@XZ 00000001400ca430 f   lightmap.obj
 0001:000c9510       ??0lightmapworker@@QEAA@XZ 00000001400ca510 f   lightmap.obj
 0001:000c9660       ?resetlightmaps@@YAX_N@Z   00000001400ca660 f   lightmap.obj
 0001:000c9710       ?cleanuplightmaps@@YAXXZ   00000001400ca710 f   lightmap.obj
 0001:000cad70       ?work@lightmapworker@@SAHPEAX@Z 00000001400cbd70 f   lightmap.obj
 0001:000ce720       ?checklightcache@@YAAEBU?$vector@H@@HH@Z 00000001400cf720 f   lightmap.obj
 0001:000ce8e0       ?clearlightcache@@YAXH@Z   00000001400cf8e0 f   lightmap.obj
 0001:000cea50       ?var_lightcachesize@@YAXXZ 00000001400cfa50 f   lightmap.obj
 0001:000d3880       ?copy@LightMap@@QEAAXGGPEAEGG@Z 00000001400d4880 f   lightmap.obj
 0001:000d3940       ?insert@LightMap@@QEAA_NAEAG0PEAEGG@Z 00000001400d4940 f   lightmap.obj
 0001:000d39d0       ?insert@PackNode@@QEAA_NAEAG0GG@Z 00000001400d49d0 f   lightmap.obj
 0001:000d3ca0       ?show_calclight_progress@@YAXXZ 00000001400d4ca0 f   lightmap.obj
 0001:000d3f90       ?check_calclight_canceled@@YAXXZ 00000001400d4f90 f   lightmap.obj
 0001:000d4000       ?setsurface@@YAXAEAUcube@@HAEBUsurfaceinfo@@PEBUvertinfo@@H@Z 00000001400d5000 f   lightmap.obj
 0001:000d4350       ?setsurfaces@@YAXAEAUcube@@PEBUsurfaceinfo@@PEBUvertinfo@@H@Z 00000001400d5350 f   lightmap.obj
 0001:000d4400       ?brightencube@@YAXAEAUcube@@@Z 00000001400d5400 f   lightmap.obj
 0001:000d4460       ?setupsunlight@@YAXXZ      00000001400d5460 f   lightmap.obj
 0001:000d4600       ?setsunlightdir@@YAXXZ     00000001400d5600 f   lightmap.obj
 0001:000d4770       ?var_sunlightpitch@@YAXXZ  00000001400d5770 f   lightmap.obj
 0001:000d4780       ?var_sunlightyaw@@YAXXZ    00000001400d5780 f   lightmap.obj
 0001:000d4790       ?var_sunlightscale@@YAXXZ  00000001400d5790 f   lightmap.obj
 0001:000d47a0       ?var_sunlight@@YAXXZ       00000001400d57a0 f   lightmap.obj
 0001:000d47f0       ?var_skylight@@YAXXZ       00000001400d57f0 f   lightmap.obj
 0001:000d4840       ?var_ambient@@YAXXZ        00000001400d5840 f   lightmap.obj
 0001:000d4890       ?clearlights@@YAXXZ        00000001400d5890 f   lightmap.obj
 0001:000d4970       ?previewblends@@YAXAEBUivec@@0@Z 00000001400d5970 f   lightmap.obj
 0001:000d4b30       ?updatelerpbounds@@YAXMPEBUlerpvert@@HAEAUlerpbounds@@1@Z 00000001400d5b30 f   normal.obj
 0001:000d4c20       ?setlerpstep@@YAXMAEAUlerpbounds@@@Z 00000001400d5c20 f   normal.obj
 0001:000d4e60       ?addnormals@@YAXAEAUcube@@AEBUivec@@H@Z 00000001400d5e60 f   normal.obj
 0001:000d5fd0       ?show_addnormals_progress@@YAXXZ 00000001400d6fd0 f   normal.obj
 0001:000d66f0       ?initlerpbounds@@YAXMMPEBUlerpvert@@HAEAUlerpbounds@@1@Z 00000001400d76f0 f   normal.obj
 0001:000d69d0       ?lerpnormal@@YAXMMPEBUlerpvert@@HAEAUlerpbounds@@1AEAUvec@@2@Z 00000001400d79d0 f   normal.obj
 0001:000d6d90       ?calclerpverts@@YAXPEBUvec2@@PEBUvec@@PEAUlerpvert@@AEAH@Z 00000001400d7d90 f   normal.obj
 0001:000d6ec0       ?findnormal@@YAXAEBUvec@@0AEAU1@@Z 00000001400d7ec0 f   normal.obj
 0001:000d6f40       ?calcnormals@@YAX_N@Z      00000001400d7f40 f   normal.obj
 0001:000d7020       ?clearnormals@@YAXXZ       00000001400d8020 f   normal.obj
 0001:000d76d0       ?calcmerges@@YAXXZ         00000001400d86d0 f   octa.obj
 0001:000d77e0       ?genmerges@@YAXPEAUcube@@AEBUivec@@H@Z 00000001400d87e0 f   octa.obj
 0001:000d7da0       ?mergepolys@@YAXHAEBUivec@@0HAEAU?$vector@Upoly@@@@@Z 00000001400d8da0 f   octa.obj
 0001:000d81f0       ?addmerges@@YAXHAEBUivec@@0HAEAU?$vector@Upoly@@@@@Z 00000001400d91f0 f   octa.obj
 0001:000d8300       ?addmerge@@YAXAEAUcube@@HAEBUivec@@1HAEAUpoly@@@Z 00000001400d9300 f   octa.obj
 0001:000d8610       ?mergepolys@@YA_NHAEAU?$hashset@Uplink@@@@AEAU?$vector@PEAUplink@@@@HAEAUpoly@@2AEBUpedge@@@Z 00000001400d9610 f   octa.obj
 0001:000d8ae0       ?genpoly@@YA_NAEAUcube@@HAEBUivec@@HHAEAU2@AEAHAEAUpoly@@@Z 00000001400d9ae0 f   octa.obj
 0001:000d9310       ?clippoly@@YA_NAEAUpoly@@AEBUfacebounds@@@Z 00000001400da310 f   octa.obj
 0001:000d9760       ?mincubeface@@YA_NAEBUcube@@HAEBUivec@@HAEAUfacebounds@@@Z 00000001400da760 f   octa.obj
 0001:000d98a0       ?mincubeface@@YAXAEBUcube@@HAEBUivec@@HAEBUfacebounds@@AEAU3@GG@Z 00000001400da8a0 f   octa.obj
 0001:000d9d40       ?mergefaces@@YAHHPEAUfacebounds@@H@Z 00000001400dad40 f   octa.obj
 0001:000d9f80       ?genclipplanes@@YAXAEBUcube@@HHHHAEAUclipplanes@@_N@Z 00000001400daf80 f   octa.obj
 0001:000da660       ?calcvert@@YAXAEBUcube@@HHHHAEAUvec@@H_N@Z 00000001400db660 f   octa.obj
 0001:000da6f0       ?classifyface@@YAHAEBUcube@@HHHHH@Z 00000001400db6f0 f   octa.obj
 0001:000daad0       ?visibleface@@YA_NAEBUcube@@HHHHHGGG@Z 00000001400dbad0 f   octa.obj
 0001:000db270       ?collapsedface@@YA_NAEBUcube@@H@Z 00000001400dc270 f   octa.obj
 0001:000dc460       ?faceedges@@YAIAEBUcube@@H@Z 00000001400dd460 f   octa.obj
 0001:000dc520       ?faceconvexity@@YAHAEBUcube@@H@Z 00000001400dd520 f   octa.obj
 0001:000dc640       ?faceconvexity@@YAHQEBUivec@@AEAH@Z 00000001400dd640 f   octa.obj
 0001:000dc780       ?notouchingface@@YA_NAEBUcube@@H@Z 00000001400dd780 f   octa.obj
 0001:000dc7c0       ?touchingface@@YA_NAEBUcube@@H@Z 00000001400dd7c0 f   octa.obj
 0001:000dc800       ?collideface@@YA_NAEBUcube@@H@Z 00000001400dd800 f   octa.obj
 0001:000dc8b0       ?edgespan2vectorcube@@YAXAEAUcube@@@Z 00000001400dd8b0 f   octa.obj
 0001:000ddd20       ?genvertp@@YAXAEAUcube@@AEAUivec@@11AEAUplane@@_N@Z 00000001400ded20 f   octa.obj
 0001:000ddf80       ?remip_@@YAXXZ             00000001400def80 f   octa.obj
 0001:000ddfa0       ?remip@@YA_NAEAUcube@@HHHH@Z 00000001400defa0 f   octa.obj
 0001:000de610       ?visibleorient@@YAHAEBUcube@@H@Z 00000001400df610 f   octa.obj
 0001:000de6d0       ?crushededge@@YA_NEH@Z     00000001400df6d0 f   octa.obj
 0001:000de6f0       ?subdividecube@@YA_NAEAUcube@@_N1@Z 00000001400df6f0 f   octa.obj
 0001:000df070       ?forcemip@@YAXAEAUcube@@_N@Z 00000001400e0070 f   octa.obj
 0001:000df2a0       ?getmippedtexture@@YAHAEBUcube@@H@Z 00000001400e02a0 f   octa.obj
 0001:000df400       ?neighbourcube@@YAAEBUcube@@AEBU1@HHHHHAEAUivec@@AEAH@Z 00000001400e0400 f   octa.obj
 0001:000df5c0       ?lookupmaterial@@YAHAEBUvec@@@Z 00000001400e05c0 f   octa.obj
 0001:000df690       ?validatec@@YAXPEAUcube@@H@Z 00000001400e0690 f   octa.obj
 0001:000df7a0       ?isvalidcube@@YA_NAEBUcube@@@Z 00000001400e07a0 f   octa.obj
 0001:000df9a0       ?printcube@@YAXXZ          00000001400e09a0 f   octa.obj
 0001:000dfa60       ?optiface@@YAXPEAEAEAUcube@@@Z 00000001400e0a60 f   octa.obj
 0001:000dfc00       ?setcubevector@@YAXAEAUcube@@HHHHAEBUivec@@@Z 00000001400e0c00 f   octa.obj
 0001:000dfcf0       ?getcubevector@@YAXAEAUcube@@HHHHAEAUivec@@@Z 00000001400e0cf0 f   octa.obj
 0001:000dfdb0       ?discardchildren@@YAXAEAUcube@@_NH@Z 00000001400e0db0 f   octa.obj
 0001:000dfed0       ?freecubeext@@YAXAEAUcube@@@Z 00000001400e0ed0 f   octa.obj
 0001:000dff00       ?familysize@@YAHAEBUcube@@@Z 00000001400e0f00 f   octa.obj
 0001:000dff70       ?newcubeext@@YAPEAUcubeext@@AEAUcube@@H_N@Z 00000001400e0f70 f   octa.obj
 0001:000e0030       ?growcubeext@@YAPEAUcubeext@@PEAU1@H@Z 00000001400e1030 f   octa.obj
 0001:000e00c0       ?setcubeext@@YAXAEAUcube@@PEAUcubeext@@@Z 00000001400e10c0 f   octa.obj
 0001:000e00e0       ?calcmergedsize@@YAHHAEBUivec@@HPEBUvertinfo@@H@Z 00000001400e10e0 f   octa.obj
 0001:000e0280       ?flataxisface@@YA_NAEBUcube@@H@Z 00000001400e1280 f   octa.obj
 0001:000e02c0       ?faceconvexity@@YAHPEBUvertinfo@@HH@Z 00000001400e12c0 f   octa.obj
 0001:000e0440       ?genfaceverts@@YAXAEBUcube@@HQEAUivec@@@Z 00000001400e1440 f   octa.obj
 0001:000e07e0       ?faceconvexity@@YAHQEBUivec@@@Z 00000001400e17e0 f   octa.obj
 0001:000e08a0       ?visibletris@@YAHAEBUcube@@HHHHHGG@Z 00000001400e18a0 f   octa.obj
 0001:000e0f20       ?invalidatemerges@@YAXAEAUcube@@AEBUivec@@H_N@Z 00000001400e1f20 f   octa.obj
 0001:000e0f70       ?lookupcube@@YAAEAUcube@@HHHHAEAUivec@@AEAH@Z 00000001400e1f70 f   octa.obj
 0001:000e1130       ?mpremip@@YAX_N@Z          00000001400e2130 f   octa.obj
 0001:000e1250       ?freeocta@@YAXPEAUcube@@@Z 00000001400e2250 f   octa.obj
 0001:000e1360       ?newcubes@@YAPEAUcube@@IH@Z 00000001400e2360 f   octa.obj
 0001:000e1f30       ?rendertexturepanel@@YAXHH@Z 00000001400e2f30 f   octaedit.obj
 0001:000e27a0       ?showtexgui@@YAXPEAH@Z     00000001400e37a0 f   octaedit.obj
 0001:000e27f0       ?g3d_texturemenu@@YAXXZ    00000001400e37f0 f   octaedit.obj
 0001:000e2800       ?editmat@@YAXPEAD0@Z       00000001400e3800 f   octaedit.obj
 0001:000e2910       ?mpeditmat@@YAXHHAEAUselinfo@@_N@Z 00000001400e3910 f   octaedit.obj
 0001:000e2d70       ?setmat@@YAXAEAUcube@@GGGGH@Z 00000001400e3d70 f   octaedit.obj
 0001:000e2ea0       ?rotate@@YAXPEAH@Z         00000001400e3ea0 f   octaedit.obj
 0001:000e2ee0       ?mprotate@@YAXHAEAUselinfo@@_N@Z 00000001400e3ee0 f   octaedit.obj
 0001:000e37e0       ?flip@@YAXXZ               00000001400e47e0 f   octaedit.obj
 0001:000e3810       ?mpflip@@YAXAEAUselinfo@@_N@Z 00000001400e4810 f   octaedit.obj
 0001:000e3db0       ?rotatecube@@YAXAEAUcube@@H@Z 00000001400e4db0 f   octaedit.obj
 0001:000e4070       ?rotatequad@@YAXAEAUcube@@000@Z 00000001400e5070 f   octaedit.obj
 0001:000e40e0       ?flipcube@@YAXAEAUcube@@H@Z 00000001400e50e0 f   octaedit.obj
 0001:000e44d0       ?mflip@@YAII@Z             00000001400e54d0 f   octaedit.obj
 0001:000e4500       ?rflip@@YAII@Z             00000001400e5500 f   octaedit.obj
 0001:000e4510       ?cflip@@YAII@Z             00000001400e5510 f   octaedit.obj
 0001:000e4530       ?dflip@@YAII@Z             00000001400e5530 f   octaedit.obj
 0001:000e4560       ?run@?$_icmd_replacesel@$0HLG@@@SAXXZ 00000001400e5560 f   octaedit.obj
 0001:000e45c0       ?run@?$_icmd_replace@$0HLF@@@SAXXZ 00000001400e55c0 f   octaedit.obj
 0001:000e4750       ?replace@@YAX_N@Z          00000001400e5750 f   octaedit.obj
 0001:000e47b0       ?mpreplacetex@@YAXHH_NAEAUselinfo@@0@Z 00000001400e57b0 f   octaedit.obj
 0001:000e4bf0       ?replacetexcube@@YAXAEAUcube@@HH@Z 00000001400e5bf0 f   octaedit.obj
 0001:000e4c80       ?run@?$_icmd_getreptex@$0HJH@@@SAXXZ 00000001400e5c80 f   octaedit.obj
 0001:000e4ce0       ?gettexname@@YAXPEAH0@Z    00000001400e5ce0 f   octaedit.obj
 0001:000e4d90       ?getseltex@@YAXXZ          00000001400e5d90 f   octaedit.obj
 0001:000e4e20       ?getcurtex@@YAXXZ          00000001400e5e20 f   octaedit.obj
 0001:000e4e90       ?gettex@@YAXXZ             00000001400e5e90 f   octaedit.obj
 0001:000e5140       ?edittex_@@YAXPEAH@Z       00000001400e6140 f   octaedit.obj
 0001:000e5250       ?edittex@@YAXH_N@Z         00000001400e6250 f   octaedit.obj
 0001:000e52c0       ?compactmruvslots@@YAXXZ   00000001400e62c0 f   octaedit.obj
 0001:000e5420       ?filltexlist@@YAXXZ        00000001400e6420 f   octaedit.obj
 0001:000e5620       ?mpedittex@@YAXHHAEAUselinfo@@_N@Z 00000001400e6620 f   octaedit.obj
 0001:000e5bf0       ?vshaderparam@@YAXPEBDPEAM111@Z 00000001400e6bf0 f   octaedit.obj
 0001:000e5df0       ?vreset@@YAXXZ             00000001400e6df0 f   octaedit.obj
 0001:000e5eb0       ?vcolor@@YAXPEAM00@Z       00000001400e6eb0 f   octaedit.obj
 0001:000e6010       ?valpha@@YAXPEAM0@Z        00000001400e7010 f   octaedit.obj
 0001:000e6140       ?vlayer@@YAXPEAH@Z         00000001400e7140 f   octaedit.obj
 0001:000e6240       ?vscale@@YAXPEAM@Z         00000001400e7240 f   octaedit.obj
 0001:000e6360       ?vscroll@@YAXPEAM0@Z       00000001400e7360 f   octaedit.obj
 0001:000e6470       ?voffset@@YAXPEAH0@Z       00000001400e7470 f   octaedit.obj
 0001:000e6590       ?vrotate@@YAXPEAH@Z        00000001400e7590 f   octaedit.obj
 0001:000e6690       ?vdelta@@YAXPEAD@Z         00000001400e7690 f   octaedit.obj
 0001:000e6700       ?mpeditvslot@@YAXAEAUVSlot@@HAEAUselinfo@@_N@Z 00000001400e7700 f   octaedit.obj
 0001:000e6d00       ?edittexcube@@YAXAEAUcube@@HHAEA_N@Z 00000001400e7d00 f   octaedit.obj
 0001:000e71b0       ?tofronttex@@YAXXZ         00000001400e81b0 f   octaedit.obj
 0001:000e7340       ?delcube@@YAXXZ            00000001400e8340 f   octaedit.obj
 0001:000e7370       ?mpdelcube@@YAXAEAUselinfo@@_N@Z 00000001400e8370 f   octaedit.obj
 0001:000e7700       ?pushsel@@YAXPEAH@Z        00000001400e8700 f   octaedit.obj
 0001:000e77c0       ?editface@@YAXPEAH0@Z      00000001400e87c0 f   octaedit.obj
 0001:000e7870       ?mpeditface@@YAXHHAEAUselinfo@@_N@Z 00000001400e8870 f   octaedit.obj
 0001:000e80f0       ?linkedpush@@YAXAEAUcube@@HHHHH@Z 00000001400e90f0 f   octaedit.obj
 0001:000e82d0       ?pushedge@@YAXAEAEHH@Z     00000001400e92d0 f   octaedit.obj
 0001:000e8390       ?bounded@@YAHH@Z           00000001400e9390 f   octaedit.obj
 0001:000e83b0       ?edithmap@@YAXHH@Z         00000001400e93b0 f   octaedit.obj
 0001:000e8400       ?run@hmap@@YAXHH@Z         00000001400e9400 f   octaedit.obj
 0001:000e8950       ?rippleandset@hmap@@YAXXZ  00000001400e9950 f   octaedit.obj
 0001:000e89c0       ?smooth@hmap@@YAXXZ        00000001400e99c0 f   octaedit.obj
 0001:000e8af0       ?paint@hmap@@YAXXZ         00000001400e9af0 f   octaedit.obj
 0001:000e8ba0       ?ripple@hmap@@YAXHHH_N@Z   00000001400e9ba0 f   octaedit.obj
 0001:000e93c0       ?select@hmap@@YAXHHH@Z     00000001400ea3c0 f   octaedit.obj
 0001:000e98f0       ?addpoint@hmap@@YAXHHHH@Z  00000001400ea8f0 f   octaedit.obj
 0001:000e9930       ?pushside@hmap@@YAXAEAUcube@@HHHH@Z 00000001400ea930 f   octaedit.obj
 0001:000e9af0       ?getface@hmap@@YAIPEAUcube@@H@Z 00000001400eaaf0 f   octaedit.obj
 0001:000e9b40       ?getcube@hmap@@YAPEAUcube@@Uivec@@H@Z 00000001400eab40 f   octaedit.obj
 0001:000e9cd0       ?run@?$_icmd_hmapselect@$0EGJ@@@SAXXZ 00000001400eacd0 f   octaedit.obj
 0001:000e9de0       ?hmapcancel@@YAXXZ         00000001400eade0 f   octaedit.obj
 0001:000e9e00       ?brushvert@@YAXPEAH00@Z    00000001400eae00 f   octaedit.obj
 0001:000e9f30       ?clearbrush@@YAXXZ         00000001400eaf30 f   octaedit.obj
 0001:000e9f80       ?compacteditvslots@@YAXXZ  00000001400eaf80 f   octaedit.obj
 0001:000ea090       ?paste@@YAXXZ              00000001400eb090 f   octaedit.obj
 0001:000ea0d0       ?pastehilite@@YAXXZ        00000001400eb0d0 f   octaedit.obj
 0001:000ea170       ?copy@@YAXXZ               00000001400eb170 f   octaedit.obj
 0001:000ea1b0       ?mppaste@@YAXAEAPEAUeditinfo@@AEAUselinfo@@_N@Z 00000001400eb1b0 f   octaedit.obj
 0001:000ea2e0       ?mpcopy@@YAXAEAPEAUeditinfo@@AEAUselinfo@@_N@Z 00000001400eb2e0 f   octaedit.obj
 0001:000ea5d0       ?pasteprefab@@YAXPEAD@Z    00000001400eb5d0 f   octaedit.obj
 0001:000ea910       ?pasteblock@@YAXAEAUblock3@@AEAUselinfo@@_N@Z 00000001400eb910 f   octaedit.obj
 0001:000eace0       ?saveprefab@@YAXPEAD@Z     00000001400ebce0 f   octaedit.obj
 0001:000eb0f0       ?delprefab@@YAXPEAD@Z      00000001400ec0f0 f   octaedit.obj
 0001:000eb160       ?freeeditinfo@@YAXAEAPEAUeditinfo@@@Z 00000001400ec160 f   octaedit.obj
 0001:000eb1b0       ?unpackeditinfo@@YA_NAEAPEAUeditinfo@@PEBEHH@Z 00000001400ec1b0 f   octaedit.obj
 0001:000eb320       ?packeditinfo@@YA_NPEAUeditinfo@@AEAHAEAPEAE1@Z 00000001400ec320 f   octaedit.obj
 0001:000eb510       ?editredo@@YAXXZ           00000001400ec510 f   octaedit.obj
 0001:000eb530       ?editundo@@YAXXZ           00000001400ec530 f   octaedit.obj
 0001:000eb550       ?swapundo@@YAXAEAUundolist@@0PEBD@Z 00000001400ec550 f   octaedit.obj
 0001:000eb8b0       ?makeundo@@YAXXZ           00000001400ec8b0 f   octaedit.obj
 0001:000eb9b0       ?makeundoex@@YAXAEAUselinfo@@@Z 00000001400ec9b0 f   octaedit.obj
 0001:000eba00       ?addundo@@YAXPEAUundoblock@@@Z 00000001400eca00 f   octaedit.obj
 0001:000eba80       ?newundocube@@YAPEAUundoblock@@AEAUselinfo@@@Z 00000001400eca80 f   octaedit.obj
 0001:000ebb70       ?clearundos@@YAXXZ         00000001400ecb70 f   octaedit.obj
 0001:000ebb80       ?pruneundos@@YAXH@Z        00000001400ecb80 f   octaedit.obj
 0001:000ebd10       ?pasteundo@@YAXPEAUundoblock@@@Z 00000001400ecd10 f   octaedit.obj
 0001:000ec040       ?freeundo@@YAXPEAUundoblock@@@Z 00000001400ed040 f   octaedit.obj
 0001:000ec070       ?selgridmap@@YAXAEAUselinfo@@PEAH@Z 00000001400ed070 f   octaedit.obj
 0001:000ec270       ?freeblock@@YAXPEAUblock3@@_N@Z 00000001400ed270 f   octaedit.obj
 0001:000ec3b0       ?blockcopy@@YAPEAUblock3@@AEBU1@H@Z 00000001400ed3b0 f   octaedit.obj
 0001:000ec430       ?blockcopy@@YAXAEBUblock3@@HPEAU1@@Z 00000001400ed430 f   octaedit.obj
 0001:000ec7d0       ?changed@@YAXAEBUblock3@@_N@Z 00000001400ed7d0 f   octaedit.obj
 0001:000ec8b0       ?readychanges@@YAXAEBUivec@@0PEAUcube@@0H@Z 00000001400ed8b0 f   octaedit.obj
 0001:000eca90       ?tryedit@@YAXXZ            00000001400eda90 f   octaedit.obj
 0001:000ecac0       ?rendereditcursor@@YAXXZ   00000001400edac0 f   octaedit.obj
 0001:000edec0       ?editmoveplane@@YA_NAEBUvec@@0HMAEAU1@1_N@Z 00000001400eeec0 f   octaedit.obj
 0001:000ee060       ?updateselection@@YAXXZ    00000001400ef060 f   octaedit.obj
 0001:000ee110       ?normalizelookupcube@@YAXHHH@Z 00000001400ef110 f   octaedit.obj
 0001:000ee1b0       ?countselchild@@YAXPEAUcube@@AEBUivec@@H@Z 00000001400ef1b0 f   octaedit.obj
 0001:000ee380       ?run@?$_icmd_havesel@$0OK@@@SAXXZ 00000001400ef380 f   octaedit.obj
 0001:000ee3b0       ?blockcube@@YAAEAUcube@@HHHAEBUblock3@@H@Z 00000001400ef3b0 f   octaedit.obj
 0001:000ee490       ?run@?$_icmd_selswap@$0NE@@@SAXXZ 00000001400ef490 f   octaedit.obj
 0001:000ee520       ?run@?$_icmd_selrestore@$0ND@@@SAXXZ 00000001400ef520 f   octaedit.obj
 0001:000ee580       ?run@?$_icmd_selsave@$0NC@@@SAXXZ 00000001400ef580 f   octaedit.obj
 0001:000ee5e0       ?run@?$_icmd_selmoved@$0NB@@@SAXXZ 00000001400ef5e0 f   octaedit.obj
 0001:000ee650       ?run@?$_icmd_edittoggle@$0MK@@@SAXXZ 00000001400ef650 f   octaedit.obj
 0001:000ee660       ?selextend@@YAXXZ          00000001400ef660 f   octaedit.obj
 0001:000ee720       ?run@?$_icmd_setface@$0LH@@@SAXPEAH@Z 00000001400ef720 f   octaedit.obj
 0001:000ee7a0       ?reorient@@YAXXZ           00000001400ef7a0 f   octaedit.obj
 0001:000ee810       ?toggleedit@@YAX_N@Z       00000001400ef810 f   octaedit.obj
 0001:000ee950       ?cancelsel@@YAXXZ          00000001400ef950 f   octaedit.obj
 0001:000ee990       ?cubecancel@@YAXXZ         00000001400ef990 f   octaedit.obj
 0001:000ee9d0       ?forcenextundo@@YAXXZ      00000001400ef9d0 f   octaedit.obj
 0001:000ee9f0       ?var_hmapedit@@YAXXZ       00000001400ef9f0 f   octaedit.obj
 0001:000eea10       ?var_gridpower@@YAXXZ      00000001400efa10 f   octaedit.obj
 0001:000eea80       ?run@?$_icmd_moving@$0FN@@@SAXPEAH@Z 00000001400efa80 f   octaedit.obj
 0001:000eeb40       ?var_dragging@@YAXXZ       00000001400efb40 f   octaedit.obj
 0001:000eebb0       ?boxsgrid@@YAXHUvec@@0H@Z  00000001400efbb0 f   octaedit.obj
 0001:000eedc0       ?boxs3D@@YAXAEBUvec@@U1@H@Z 00000001400efdc0 f   octaedit.obj
 0001:000eee40       ?boxs@@YAXHUvec@@AEBU1@@Z  00000001400efe40 f   octaedit.obj
 0001:000eef50       ?commitchanges@@YAX_N@Z    00000001400eff50 f   octaedit.obj
 0001:000ef030       ?noedit@@YA_N_N0@Z         00000001400f0030 f   octaedit.obj
 0001:000ef860       ?recalc@@YAXXZ             00000001400f0860 f   octarender.obj
 0001:000ef870       ?precachetextures@@YAXXZ   00000001400f0870 f   octarender.obj
 0001:000efb20       ?findtjoints@@YAXHAEBUedgegroup@@@Z 00000001400f0b20 f   octarender.obj
 0001:000efcb0       ?addtjoint@@YAXAEBUedgegroup@@AEBUcubeedge@@H@Z 00000001400f0cb0 f   octarender.obj
 0001:000efdf0       ?updateva@@YAHPEAUcube@@HHHHH@Z 00000001400f0df0 f   octarender.obj
 0001:000f04b0       ?var_vacubesize@@YAXXZ     00000001400f14b0 f   octarender.obj
 0001:000f04c0       ?var_vafacemin@@YAXXZ      00000001400f14c0 f   octarender.obj
 0001:000f04d0       ?var_vafacemax@@YAXXZ      00000001400f14d0 f   octarender.obj
 0001:000f0620       ?setva@@YAXAEAUcube@@HHHHH@Z 00000001400f1620 f   octarender.obj
 0001:000f0a80       ?calcmatbb@@YAXHHHHAEAUivec@@0@Z 00000001400f1a80 f   octarender.obj
 0001:000f0bd0       ?calcgeombb@@YAXHHHHAEAUivec@@0@Z 00000001400f1bd0 f   octarender.obj
 0001:000f0d50       ?rendercube@@YAXAEAUcube@@HHHHHAEAH@Z 00000001400f1d50 f   octarender.obj
 0001:000f10e0       ?addmergedverts@@YAXHAEBUivec@@@Z 00000001400f20e0 f   octarender.obj
 0001:000f1580       ?findmergedfaces@@YAHAEAUcube@@AEBUivec@@HHH@Z 00000001400f2580 f   octarender.obj
 0001:000f16c0       ?genmergedfaces@@YAHAEAUcube@@AEBUivec@@HH@Z 00000001400f26c0 f   octarender.obj
 0001:000f1b80       ?updatevabb@@YAXPEAUvtxarray@@_N@Z 00000001400f2b80 f   octarender.obj
 0001:000f1f90       ?clearvas@@YAXPEAUcube@@@Z 00000001400f2f90 f   octarender.obj
 0001:000f2180       ?newva@@YAPEAUvtxarray@@HHHH@Z 00000001400f3180 f   octarender.obj
 0001:000f23d0       ?addskyverts@@YAXAEBUivec@@H@Z 00000001400f33d0 f   octarender.obj
 0001:000f2c20       ?genskyfaces@@YAXAEAUcube@@AEBUivec@@H@Z 00000001400f3c20 f   octarender.obj
 0001:000f2eb0       ?minskyface@@YAXAEAUcube@@HAEBUivec@@HAEAUfacebounds@@@Z 00000001400f3eb0 f   octarender.obj
 0001:000f3230       ?gencubeverts@@YAXAEAUcube@@HHHHH@Z 00000001400f4230 f   octarender.obj
 0001:000f3c40       ?gencubeedges@@YAXPEAUcube@@HHHH@Z 00000001400f4c40 f   octarender.obj
 0001:000f3d90       ?gencubeedges@@YAXAEAUcube@@HHHH@Z 00000001400f4d90 f   octarender.obj
 0001:000f4650       ?addcubeverts@@YAXAEAUVSlot@@HHPEAUvec@@HGGPEAUvertinfo@@HHGH_NH@Z 00000001400f5650 f   octarender.obj
 0001:000f50d0       ?decodenormal@@YA?AUvec@@G@Z 00000001400f60d0 f   octarender.obj
 0001:000f52d0       ?addgrasstri@@YAXHPEAUvertex@@HGG@Z 00000001400f62d0 f   octarender.obj
 0001:000f5bb0       ?addtris@@YAXAEBUsortkey@@HPEAUvertex@@PEAHHHHH@Z 00000001400f6bb0 f   octarender.obj
 0001:000f6500       ?var_filltjoints@@YAXXZ    00000001400f7500 f   octarender.obj
 0001:000f6510       ?calcshadowmask@@YAHPEAUvec@@H@Z 00000001400f7510 f   octarender.obj
 0001:000f6bb0       ?addvbo@@YAPEAEPEAUvtxarray@@HHH@Z 00000001400f7bb0 f   octarender.obj
 0001:000f6c70       ?flushvbo@@YAXH@Z          00000001400f7c70 f   octarender.obj
 0001:000f6d20       ?readva@@YA_NPEAUvtxarray@@AEAPEAGAEAPEAE@Z 00000001400f7d20 f   octarender.obj
 0001:000f6e90       ?genvbo@@YAXHPEAXHPEAPEAUvtxarray@@H@Z 00000001400f7e90 f   octarender.obj
 0001:000f7060       ?destroyvbo@@YAXI@Z        00000001400f8060 f   octarender.obj
 0001:000f7160       ?var_vbosize@@YAXXZ        00000001400f8160 f   octarender.obj
 0001:000f7170       ?octarender@@YAXXZ         00000001400f8170 f   octarender.obj
 0001:000f72f0       ?updatevabbs@@YAX_N@Z      00000001400f82f0 f   octarender.obj
 0001:000f7350       ?reduceslope@@YAXAEAUivec@@@Z 00000001400f8350 f   octarender.obj
 0001:000f7430       ?findtjoints@@YAXXZ        00000001400f8430 f   octarender.obj
 0001:000f7550       ?encodenormal@@YAGAEBUvec@@@Z 00000001400f8550 f   octarender.obj
 0001:000f7610       ?destroyva@@YAXPEAUvtxarray@@_N@Z 00000001400f8610 f   octarender.obj
 0001:000f7840       ?allchanged@@YAX_N@Z       00000001400f8840 f   octarender.obj
 0001:000fc7f0       ?run@?$_icmd_attack@$0HMD@@@SAXPEAH@Z 00000001400fd7f0 f   physics.obj
 0001:000fc820       ?run@?$_icmd_jump@$0HMC@@@SAXPEAH@Z 00000001400fd820 f   physics.obj
 0001:000fc880       ?run@?$_icmd_right@$0HMA@@@SAXPEAH@Z 00000001400fd880 f   physics.obj
 0001:000fc8c0       ?run@?$_icmd_left@$0HLP@@@SAXPEAH@Z 00000001400fd8c0 f   physics.obj
 0001:000fc900       ?run@?$_icmd_forward@$0HLO@@@SAXPEAH@Z 00000001400fd900 f   physics.obj
 0001:000fc940       ?run@?$_icmd_backward@$0HLN@@@SAXPEAH@Z 00000001400fd940 f   physics.obj
 0001:000fc980       ?moveplatform@@YA_NPEAUphysent@@AEBUvec@@@Z 00000001400fd980 f   physics.obj
 0001:000fd9d0       ?platformcollide@@YA_NPEAUphysent@@0AEBUvec@@M@Z 00000001400fe9d0 f   physics.obj
 0001:000fda70       ?updatephysstate@@YAXPEAUphysent@@@Z 00000001400fea70 f   physics.obj
 0001:000fdc20       ?bounce@@YA_NPEAUphysent@@MMM@Z 00000001400fec20 f   physics.obj
 0001:000fdd70       ?moveplayer@@YAXPEAUphysent@@H_N@Z 00000001400fed70 f   physics.obj
 0001:000fde60       ?interppos@@YAXPEAUphysent@@@Z 00000001400fee60 f   physics.obj
 0001:000fdf10       ?physicsframe@@YAXXZ       00000001400fef10 f   physics.obj
 0001:000fdfc0       ?moveplayer@@YA_NPEAUphysent@@H_NH@Z 00000001400fefc0 f   physics.obj
 0001:000fe4f0       ?modifygravity@@YAXPEAUphysent@@_NH@Z 00000001400ff4f0 f   physics.obj
 0001:000fe700       ?modifyvelocity@@YAXPEAUphysent@@_N11H@Z 00000001400ff700 f   physics.obj
 0001:000feaf0       ?vectoyawpitch@@YAXAEBUvec@@AEAM1@Z 00000001400ffaf0 f   physics.obj
 0001:000feb90       ?vecfromyawpitch@@YAXMMHHAEAUvec@@@Z 00000001400ffb90 f   physics.obj
 0001:000fece0       ?phystest@@YAXXZ           00000001400ffce0 f   physics.obj
 0001:000fee70       ?dropheight@@YAMAEAUentity@@@Z 00000001400ffe70 f   physics.obj
 0001:000feef0       ?droptofloor@@YA_NAEAUvec@@MM@Z 00000001400ffef0 f   physics.obj
 0001:000ff1c0       ?movecamera@@YA_NPEAUphysent@@AEBUvec@@MM@Z 00000001401001c0 f   physics.obj
 0001:000ff410       ?avoidcollision@@YAXPEAUphysent@@AEBUvec@@0M@Z 0000000140100410 f   physics.obj
 0001:000ff620       ?bounce@@YA_NPEAUphysent@@MMMM@Z 0000000140100620 f   physics.obj
 0001:000ffa00       ?move@@YA_NPEAUphysent@@AEAUvec@@@Z 0000000140100a00 f   physics.obj
 0001:000ffeb0       ?findfloor@@YA_NPEAUphysent@@_NAEBUvec@@AEA_NAEAU2@@Z 0000000140100eb0 f   physics.obj
 0001:00100170       ?landing@@YAXPEAUphysent@@AEAUvec@@AEBU2@_N@Z 0000000140101170 f   physics.obj
 0001:001001e0       ?falling@@YAXPEAUphysent@@AEAUvec@@AEBU2@@Z 00000001401011e0 f   physics.obj
 0001:001002d0       ?trystepdown@@YA_NPEAUphysent@@AEAUvec@@_N@Z 00000001401012d0 f   physics.obj
 0001:001003f0       ?trystepdown@@YA_NPEAUphysent@@AEAUvec@@MMM_N@Z 00000001401013f0 f   physics.obj
 0001:001007e0       ?trystepup@@YA_NPEAUphysent@@AEAUvec@@AEBU2@M2@Z 00000001401017e0 f   physics.obj
 0001:00100e00       ?switchfloor@@YAXPEAUphysent@@AEAUvec@@AEBU2@@Z 0000000140101e00 f   physics.obj
 0001:001010a0       ?slideagainst@@YAXPEAUphysent@@AEAUvec@@AEBU2@_N3@Z 00000001401020a0 f   physics.obj
 0001:00101260       ?recalcdir@@YAXPEAUphysent@@AEBUvec@@AEAU2@@Z 0000000140102260 f   physics.obj
 0001:00101330       ?collide@@YA_NPEAUphysent@@AEBUvec@@M_N@Z 0000000140102330 f   physics.obj
 0001:00101ad0       ?mmcollide@@YA_NPEAUphysent@@AEBUvec@@AEAUoctaentities@@@Z 0000000140102ad0 f   physics.obj
 0001:00101cf0       ?rotatebb@@YAXAEAUvec@@0H@Z 0000000140102cf0 f   physics.obj
 0001:00101de0       ?plcollide@@YA_NPEAUphysent@@AEBUvec@@@Z 0000000140102de0 f   physics.obj
 0001:00102100       ?overlapsdynent@@YA_NAEBUvec@@M@Z 0000000140103100 f   physics.obj
 0001:00102280       ?updatedynentcache@@YAXPEAUphysent@@@Z 0000000140103280 f   physics.obj
 0001:00102400       ?checkdynentcache@@YAAEBU?$vector@PEAUphysent@@@@HH@Z 0000000140103400 f   physics.obj
 0001:00102600       ?var_dynentsize@@YAXXZ     0000000140103600 f   physics.obj
 0001:00102650       ?cleardynentcache@@YAXXZ   0000000140103650 f   physics.obj
 0001:001026a0       ?ellipsecollide@@YA_NPEAUphysent@@AEBUvec@@11MMMMM@Z 00000001401036a0 f   physics.obj
 0001:00102b10       ?ellipseboxcollide@@YA_NPEAUphysent@@AEBUvec@@11MMMMM@Z 0000000140103b10 f   physics.obj
 0001:00103070       ?rayfloor@@YAMAEBUvec@@AEAU1@HM@Z 0000000140104070 f   physics.obj
 0001:00103120       ?raycubelos@@YA_NAEBUvec@@0AEAU1@@Z 0000000140104120 f   physics.obj
 0001:00103260       ?raycubepos@@YAMAEBUvec@@0AEAU1@MHH@Z 0000000140104260 f   physics.obj
 0001:00103310       ?raycube@@YAMAEBUvec@@0MHHPEAUextentity@@@Z 0000000140104310 f   physics.obj
 0001:00104b30       ?entinmap@@YA_NPEAUdynent@@_N@Z 0000000140105b30 f   physics.obj
 0001:00104e60       ?rayent@@YAMAEBUvec@@0MHHAEAH1@Z 0000000140105e60 f   physics.obj
 0001:00104f70       ?resetclipplanes@@YAXXZ    0000000140105f70 f   physics.obj
 0001:00104fb0       ?pointincube@@YA_NAEBUclipplanes@@AEBUvec@@@Z 0000000140105fb0 f   physics.obj
 0001:00105070       ?shadowray@@YAMPEAUShadowRayCache@@AEBUvec@@1MHPEAUextentity@@@Z 0000000140106070 f   physics.obj
 0001:00105970       ?shadowray@@YAMAEBUvec@@0MHPEAUextentity@@@Z 0000000140106970 f   physics.obj
 0001:00106270       ?newshadowraycache@@YAPEAUShadowRayCache@@XZ 0000000140107270 f   physics.obj
 0001:001062b0       ?freeshadowraycache@@YAXAEAPEAUShadowRayCache@@@Z 00000001401072b0 f   physics.obj
 0001:001062e0       ?resetshadowraycache@@YAXPEAUShadowRayCache@@@Z 00000001401072e0 f   physics.obj
 0001:00106320       ?dropenttofloor@@YAXPEAUentity@@@Z 0000000140107320 f   physics.obj
 0001:001064d0       ?getnumviewcells@@YAHXZ    00000001401074d0 f   pvs.obj
 0001:001064e0       ?loadpvs@@YAXPEAUstream@@H@Z 00000001401074e0 f   pvs.obj
 0001:001066e0       ?loadviewcells@@YAPEAUviewcellnode@@PEAUstream@@@Z 00000001401076e0 f   pvs.obj
 0001:001067d0       ?savepvs@@YAXPEAUstream@@@Z 00000001401077d0 f   pvs.obj
 0001:00106950       ?saveviewcells@@YAXPEAUstream@@AEAUviewcellnode@@@Z 0000000140107950 f   pvs.obj
 0001:001069d0       ?waterpvsoccluded@@YA_NH@Z 00000001401079d0 f   pvs.obj
 0001:00106a50       ?pvsoccludedsphere@@YA_NAEBUvec@@M@Z 0000000140107a50 f   pvs.obj
 0001:00106b20       ?pvsoccluded@@YA_NAEBUivec@@0@Z 0000000140107b20 f   pvs.obj
 0001:00106ef0       ?pvsstats@@YAXXZ           0000000140107ef0 f   pvs.obj
 0001:00106f40       ?genpvs@@YAXPEAH@Z         0000000140107f40 f   pvs.obj
 0001:001074e0       ?testpvs@@YAXPEAH@Z        00000001401084e0 f   pvs.obj
 0001:00107c00       ?clearpvs@@YAXXZ           0000000140108c00 f   pvs.obj
 0001:00107c70       ?setviewcell@@YAXAEBUvec@@@Z 0000000140108c70 f   pvs.obj
 0001:00107d50       ?var_lockpvs@@YAXXZ        0000000140108d50 f   pvs.obj
 0001:00108e70       ?getworldsize@@YAHXZ       0000000140109e70 f   world.obj
 0001:00108e80       ?mpeditent@@YAXHAEBUvec@@HHHHHH_N@Z 0000000140109e80 f   world.obj
 0001:00109030       ?mapname@@YAXXZ            000000014010a030 f   world.obj
 0001:001090b0       ?mapenlarge@@YAXXZ         000000014010a0b0 f   world.obj
 0001:001090f0       ?newmap@@YAXPEAH@Z         000000014010a0f0 f   world.obj
 0001:00109180       ?shrinkmap@@YAXXZ          000000014010a180 f   world.obj
 0001:00109440       ?enlargemap@@YA_N_N@Z      000000014010a440 f   world.obj
 0001:00109640       ?resetmap@@YAXXZ           000000014010a640 f   world.obj
 0001:00109890       ?splitocta@@YAXPEAUcube@@H@Z 000000014010a890 f   world.obj
 0001:00109900       ?findplayerspawn@@YAXPEAUdynent@@HH@Z 000000014010a900 f   world.obj
 0001:00109b00       ?findentity@@YAHHHHH@Z     000000014010ab00 f   world.obj
 0001:00109bd0       ?entattr@@YAXPEAH00@Z      000000014010abd0 f   world.obj
 0001:0010a090       ?enttype@@YAXPEADPEAH@Z    000000014010b090 f   world.obj
 0001:0010a490       ?run@?$_icmd_entindex@$0EBH@@@SAXXZ 000000014010b490 f   world.obj
 0001:0010a4b0       ?run@?$_icmd_entget@$0EBG@@@SAXXZ 000000014010b4b0 f   world.obj
 0001:0010a5e0       ?run@?$_icmd_insel@$0EBF@@@SAXXZ 000000014010b5e0 f   world.obj
 0001:0010a620       ?run@?$_icmd_entloop@$0EBE@@@SAXPEAI@Z 000000014010b620 f   world.obj
 0001:0010a900       ?run@?$_icmd_entselect@$0EBD@@@SAXPEAI@Z 000000014010b900 f   world.obj
 0001:0010a9d0       ?run@?$_icmd_enthavesel@$0EBC@@@SAXXZ 000000014010b9d0 f   world.obj
 0001:0010aa40       ?nearestent@@YAXXZ         000000014010ba40 f   world.obj
 0001:0010ab80       ?printent@@YAXAEAUextentity@@PEAD@Z 000000014010bb80 f   world.obj
 0001:0010ac10       ?entset@@YAXPEADPEAH1111@Z 000000014010bc10 f   world.obj
 0001:0010b100       ?entpaste@@YAXXZ           000000014010c100 f   world.obj
 0001:0010b4f0       ?entcopy@@YAXXZ            000000014010c4f0 f   world.obj
 0001:0010b620       ?newent@@YAXPEADPEAH1111@Z 000000014010c620 f   world.obj
 0001:0010b6c0       ?newentity@@YAXHHHHHH@Z    000000014010c6c0 f   world.obj
 0001:0010b830       ?newentity@@YAPEAUextentity@@_NAEBUvec@@HHHHHHAEAH@Z 000000014010c830 f   world.obj
 0001:0010bbd0       ?attachent@@YAXXZ          000000014010cbd0 f   world.obj
 0001:0010bfe0       ?dropent@@YAXXZ            000000014010cfe0 f   world.obj
 0001:0010c3f0       ?dropentity@@YA_NAEAUentity@@H@Z 000000014010d3f0 f   world.obj
 0001:0010c790       ?findtype@@YAHPEAD@Z       000000014010d790 f   world.obj
 0001:0010c810       ?delent@@YAXXZ             000000014010d810 f   world.obj
 0001:0010cb90       ?entautoview@@YAXPEAH@Z    000000014010db90 f   world.obj
 0001:0010ccf0       ?entpush@@YAXPEAH@Z        000000014010dcf0 f   world.obj
 0001:0010d300       ?run@?$_icmd_entmoving@$0DAB@@@SAXPEAH@Z 000000014010e300 f   world.obj
 0001:0010d3c0       ?run@?$_icmd_enttoggle@$0CPD@@@SAXXZ 000000014010e3c0 f   world.obj
 0001:0010d450       ?run@?$_icmd_entadd@$0CON@@@SAXXZ 000000014010e450 f   world.obj
 0001:0010d4e0       ?enttoggle@@YA_NH@Z        000000014010e4e0 f   world.obj
 0001:0010d590       ?renderentradius@@YAXAEAUextentity@@_N@Z 000000014010e590 f   world.obj
 0001:0010d920       ?renderentcone@@YAXAEBUextentity@@AEBUvec@@MM@Z 000000014010e920 f   world.obj
 0001:0010dc60       ?renderentarrow@@YAXAEBUextentity@@AEBUvec@@M@Z 000000014010ec60 f   world.obj
 0001:0010df60       ?renderentattachment@@YAXAEBUextentity@@@Z 000000014010ef60 f   world.obj
 0001:0010dfb0       ?renderentsphere@@YAXAEBUextentity@@M@Z 000000014010efb0 f   world.obj
 0001:0010e0d0       ?renderentring@@YAXAEBUextentity@@MH@Z 000000014010f0d0 f   world.obj
 0001:0010e1b0       ?entrotate@@YAXPEAH@Z      000000014010f1b0 f   world.obj
 0001:0010e630       ?entflip@@YAXXZ            000000014010f630 f   world.obj
 0001:0010e920       ?getselpos@@YA?AUvec@@XZ   000000014010f920 f   world.obj
 0001:0010e9c0       ?attachentities@@YAXXZ     000000014010f9c0 f   world.obj
 0001:0010ed00       ?attachentity@@YAXAEAUextentity@@@Z 000000014010fd00 f   world.obj
 0001:0010ee10       ?detachentity@@YAXAEAUextentity@@@Z 000000014010fe10 f   world.obj
 0001:0010ee30       ?makeundoent@@YAXXZ        000000014010fe30 f   world.obj
 0001:0010ee80       ?newundoent@@YAPEAUundoblock@@XZ 000000014010fe80 f   world.obj
 0001:0010ef40       ?entadd@@YAXH@Z            000000014010ff40 f   world.obj
 0001:0010efb0       ?noentedit@@YA_NXZ         000000014010ffb0 f   world.obj
 0001:0010eff0       ?var_entediting@@YAXXZ     000000014010fff0 f   world.obj
 0001:0010f020       ?entname@@YAPEADAEAUentity@@@Z 0000000140110020 f   world.obj
 0001:0010f0a0       ?findents@@YAXHH_NAEBUvec@@1AEAU?$vector@H@@@Z 00000001401100a0 f   world.obj
 0001:0010fb50       ?modifyoctaentity@@YAXHHAEAUextentity@@PEAUcube@@AEBUivec@@H22HPEAUvtxarray@@@Z 0000000140110b50 f   world.obj
 0001:001101b0       ?getentboundingbox@@YA_NAEBUextentity@@AEAUivec@@1@Z 00000001401111b0 f   world.obj
 0001:001105e0       ?entselectionbox@@YAXAEBUentity@@AEAUvec@@1@Z 00000001401115e0 f   world.obj
 0001:00110890       ?pointinsel@@YA_NAEBUselinfo@@AEBUvec@@@Z 0000000140111890 f   world.obj
 0001:00110930       ?entcancel@@YAXXZ          0000000140111930 f   world.obj
 0001:00110950       ?haveselent@@YA_NXZ        0000000140111950 f   world.obj
 0001:00110970       ?entdrag@@YAXAEBUvec@@@Z   0000000140111970 f   world.obj
 0001:00110db0       ?hoveringonent@@YA_NHH@Z   0000000140111db0 f   world.obj
 0001:00110e50       ?renderentselection@@YAXAEBUvec@@0_N@Z 0000000140111e50 f   world.obj
 0001:00111970       ?pasteundoents@@YAXPEAUundoblock@@@Z 0000000140112970 f   world.obj
 0001:00111b50       ?copyundoents@@YAPEAUundoblock@@PEAU1@@Z 0000000140112b50 f   world.obj
 0001:00111d40       ?freeoctaentities@@YAXAEAUcube@@@Z 0000000140112d40 f   world.obj
 0001:00111e40       ?emptymap@@YA_NH_NPEBD0@Z  0000000140112e40 f   world.obj
 0001:001122b0       ?entitiesinoctanodes@@YAXXZ 00000001401132b0 f   world.obj
 0001:00112560       ?startmap@@YAXPEBD@Z       0000000140113560 f   world.obj
 0001:00112b20       ?writeobj@@YAXPEAD@Z       0000000140113b20 f   worldio.obj
 0001:00113be0       ?savemap@@YAXPEAD@Z        0000000140114be0 f   worldio.obj
 0001:00113bf0       ?savecurrentmap@@YAXXZ     0000000140114bf0 f   worldio.obj
 0001:00113c10       ?load_world@@YA_NPEBD0@Z   0000000140114c10 f   worldio.obj
 0001:00114e70       ?getmapcrc@@YAIXZ          0000000140115e70 f   worldio.obj
 0001:00114e80       ?save_world@@YA_NPEBD_N@Z  0000000140115e80 f   worldio.obj
 0001:00115730       ?loadvslots@@YAXPEAUstream@@H@Z 0000000140116730 f   worldio.obj
 0001:001159e0       ?loadvslot@@YAXPEAUstream@@AEAUVSlot@@H@Z 00000001401169e0 f   worldio.obj
 0001:00115db0       ?savevslots@@YAXPEAUstream@@H@Z 0000000140116db0 f   worldio.obj
 0001:00115f30       ?savevslot@@YAXPEAUstream@@AEAUVSlot@@H@Z 0000000140116f30 f   worldio.obj
 0001:001161e0       ?loadchildren@@YAPEAUcube@@PEAUstream@@AEBUivec@@HAEA_N@Z 00000001401171e0 f   worldio.obj
 0001:001162a0       ?loadc@@YAXPEAUstream@@AEAUcube@@AEBUivec@@HAEA_N@Z 00000001401172a0 f   worldio.obj
 0001:001173e0       ?convertoldsurfaces@@YAXAEAUcube@@AEBUivec@@HPEAUsurfacecompat@@HPEAUnormalscompat@@HPEAUmergecompat@@H@Z 00000001401183e0 f   worldio.obj
 0001:00118280       ?savec@@YAXPEAUcube@@AEBUivec@@HPEAUstream@@_N@Z 0000000140119280 f   worldio.obj
 0001:00118e40       ?backup@@YAXPEAD0@Z        0000000140119e40 f   worldio.obj
 0001:00118ed0       ?mapcfgname@@YAXXZ         0000000140119ed0 f   worldio.obj
 0001:00118fc0       ?setmapfilenames@@YAXPEBD0@Z 0000000140119fc0 f   worldio.obj
 0001:00119100       ?loadents@@YA_NPEBDAEAU?$vector@Uentity@@@@PEAI@Z 000000014011a100 f   worldio.obj
 0001:00119740       ?getmapfilenames@@YAXPEBD0PEAD11@Z 000000014011a740 f   worldio.obj
 0001:00119910       ?cutogz@@YAXPEAD@Z         000000014011a910 f   worldio.obj
 0001:00119940       ?clearmapcrc@@YAXXZ        000000014011a940 f   worldio.obj
 0001:00119950       ?gets2c@@YAXXZ             000000014011a950 f   client.obj
 0001:00119bc0       ?clientkeepalive@@YAXXZ    000000014011abc0 f   client.obj
 0001:00119be0       ?localservertoclient@@YAXHPEAU_ENetPacket@@@Z 000000014011abe0 f   client.obj
 0001:00119c90       ?neterr@@YAXPEBD_N@Z       000000014011ac90 f   client.obj
 0001:00119ca0       ?flushclient@@YAXXZ        000000014011aca0 f   client.obj
 0001:00119cc0       ?sendclientpacket@@YAXPEAU_ENetPacket@@H@Z 000000014011acc0 f   client.obj
 0001:00119cf0       ?run@?$_icmd_localdisconnect@$0LI@@@SAXXZ 000000014011acf0 f   client.obj
 0001:00119d10       ?run@?$_icmd_localconnect@$0LH@@@SAXXZ 000000014011ad10 f   client.obj
 0001:00119d90       ?run@?$_icmd_disconnect@$0LG@@@SAXPEAH@Z 000000014011ad90 f   client.obj
 0001:00119db0       ?run@?$_icmd_lanconnect@$0LE@@@SAXPEAHPEAD@Z 000000014011adb0 f   client.obj
 0001:00119dd0       ?run@?$_icmd_connect@$0LD@@@SAXPEADPEAH0@Z 000000014011add0 f   client.obj
 0001:00119de0       ?trydisconnect@@YAX_N@Z    000000014011ade0 f   client.obj
 0001:00119e60       ?disconnect@@YAX_N0@Z      000000014011ae60 f   client.obj
 0001:00119f30       ?reconnect@@YAXPEBD@Z      000000014011af30 f   client.obj
 0001:00119f70       ?connectserv@@YAXPEBDH0@Z  000000014011af70 f   client.obj
 0001:0011a200       ?abortconnect@@YAXXZ       000000014011b200 f   client.obj
 0001:0011a270       ?run@?$_icmd_connectedport@$0DM@@@SAXXZ 000000014011b270 f   client.obj
 0001:0011a2c0       ?run@?$_icmd_connectedip@$0DG@@@SAXXZ 000000014011b2c0 f   client.obj
 0001:0011a320       ?connectedpeer@@YAPEBU_ENetAddress@@XZ 000000014011b320 f   client.obj
 0001:0011a340       ?run@?$_icmd_isconnected@$0CK@@@SAXPEAH0@Z 000000014011b340 f   client.obj
 0001:0011a390       ?throttle@@YAXXZ           000000014011b390 f   client.obj
 0001:0011a3c0       ?var_throttle_decel@@YAXXZ 000000014011b3c0 f   client.obj
 0001:0011a3f0       ?var_throttle_accel@@YAXXZ 000000014011b3f0 f   client.obj
 0001:0011a420       ?var_throttle_interval@@YAXXZ 000000014011b420 f   client.obj
 0001:0011a450       ?var_rate@@YAXXZ           000000014011b450 f   client.obj
 0001:0011a480       ?setrate@@YAXH@Z           000000014011b480 f   client.obj
 0001:0011a4b0       ?isconnected@@YA_N_N0@Z    000000014011b4b0 f   client.obj
 0001:0011a4f0       ?multiplayer@@YA_N_N@Z     000000014011b4f0 f   client.obj
 0001:0011a5f0       ?serveroption@@YA_NPEAD@Z  000000014011b5f0 f   server.obj
 0001:0011a6e0       ?stoplistenserver@@YAXXZ   000000014011b6e0 f   server.obj
 0001:0011a740       ?startlistenserver@@YAXPEAH@Z 000000014011b740 f   server.obj
 0001:0011a7c0       ?initserver@@YAX_N0@Z      000000014011b7c0 f   server.obj
 0001:0011a980       ?setuplistenserver@@YA_N_N@Z 000000014011b980 f   server.obj
 0001:0011abd0       ?servererror@@YA_N_NPEBD@Z 000000014011bbd0 f   server.obj
 0001:0011ac10       ?rundedicatedserver@@YAXXZ 000000014011bc10 f   server.obj
 0001:0011acd0       ?isdedicatedserver@@YA_NXZ 000000014011bcd0 f   server.obj
 0001:0011ace0       ?logoutfv@@YAXPEBDPEAD@Z   000000014011bce0 f   server.obj
 0001:0011ae10       WinMain                    000000014011be10 f   server.obj
 0001:0011b8c0       ?flushserver@@YAX_N@Z      000000014011c8c0 f   server.obj
 0001:0011b8f0       ?serverslice@@YAX_NI@Z     000000014011c8f0 f   server.obj
 0001:0011bd10       ?updatetime@@YAXXZ         000000014011cd10 f   server.obj
 0001:0011bd60       ?updatemasterserver@@YAXXZ 000000014011cd60 f   server.obj
 0001:0011bdd0       ?var_serverport@@YAXXZ     000000014011cdd0 f   server.obj
 0001:0011bdf0       ?checkserversockets@@YAXXZ 000000014011cdf0 f   server.obj
 0001:0011c270       ?sendserverinforeply@@YAXAEAU?$databuf@E@@@Z 000000014011d270 f   server.obj
 0001:0011c2b0       ?flushmasterinput@@YAXXZ   000000014011d2b0 f   server.obj
 0001:0011c350       ?flushmasteroutput@@YAXXZ  000000014011d350 f   server.obj
 0001:0011c410       ?processmasterinput@@YAXXZ 000000014011d410 f   server.obj
 0001:0011c5a0       ?requestmasterf@@YA_NPEBDZZ 000000014011d5a0 f   server.obj
 0001:0011c5f0       ?requestmaster@@YA_NPEBD@Z 000000014011d5f0 f   server.obj
 0001:0011c6b0       ?connectmaster@@YA_K_N@Z   000000014011d6b0 f   server.obj
 0001:0011c7f0       ?var_masterport@@YAXXZ     000000014011d7f0 f   server.obj
 0001:0011c800       ?var_mastername@@YAXXZ     000000014011d800 f   server.obj
 0001:0011c810       ?disconnectmaster@@YAXXZ   000000014011d810 f   server.obj
 0001:0011c880       ?process@@YAXPEAU_ENetPacket@@HH@Z 000000014011d880 f   server.obj
 0001:0011c920       ?kicknonlocalclients@@YAXH@Z 000000014011d920 f   server.obj
 0001:0011ca70       ?disconnect_client@@YAXHH@Z 000000014011da70 f   server.obj
 0001:0011cba0       ?sendfile@@YAPEAU_ENetPacket@@HHPEAUstream@@PEBDZZ 000000014011dba0 f   server.obj
 0001:0011ce40       ?sendf@@YAPEAU_ENetPacket@@HHPEBDZZ 000000014011de40 f   server.obj
 0001:0011d1c0       ?sendpacket@@YAXHHPEAU_ENetPacket@@H@Z 000000014011e1c0 f   server.obj
 0001:0011d300       ?getclienthostname@@YAPEBDH@Z 000000014011e300 f   server.obj
 0001:0011d330       ?getclientip@@YAIH@Z       000000014011e330 f   server.obj
 0001:0011d360       ?getclientpeer@@YAPEAU_ENetPeer@@H@Z 000000014011e360 f   server.obj
 0001:0011d390       ?getclientinfo@@YAPEAXH@Z  000000014011e390 f   server.obj
 0001:0011d3c0       ?getservermtu@@YAHXZ       000000014011e3c0 f   server.obj
 0001:0011d3e0       ?var_maxdupclients@@YAXXZ  000000014011e3e0 f   server.obj
 0001:0011d410       ?var_maxclients@@YAXXZ     000000014011e410 f   server.obj
 0001:0011d430       ?cleanupserver@@YAXXZ      000000014011e430 f   server.obj
 0001:0011d4a0       ?delclient@@YAXPEAUclient@@@Z 000000014011e4a0 f   server.obj
 0001:0011d530       ?addclient@@YAAEAUclient@@H@Z 000000014011e530 f   server.obj
 0001:0011d8a0       ?logoutf@@YAXPEBDZZ        000000014011e8a0 f   server.obj
 0001:0011d8d0       ?setlogfile@@YAXPEBD@Z     000000014011e8d0 f   server.obj
 0001:0011d960       ?getlogfile@@YAPEAU_iobuf@@XZ 000000014011e960 f   server.obj
 0001:0011d970       ?closelogfile@@YAXXZ       000000014011e970 f   server.obj
 0001:0011d9a0       ?hasnonlocalclients@@YA_NXZ 000000014011e9a0 f   server.obj
 0001:0011d9c0       ?localdisconnect@@YAX_N@Z  000000014011e9c0 f   server.obj
 0001:0011da90       ?localconnect@@YAXXZ       000000014011ea90 f   server.obj
 0001:0011daf0       ?localclienttoserver@@YAXHPEAU_ENetPacket@@@Z 000000014011eaf0 f   server.obj
 0001:0011dbd0       ?disconnectreason@@YAPEBDH@Z 000000014011ebd0 f   server.obj
 0001:0011dc70       ?haslocalclients@@YA_NXZ   000000014011ec70 f   server.obj
 0001:0011e040       ?writeservercfg@@YAXXZ     000000014011f040 f   serverbrowser.obj
 0001:0011e2f0       ?run@?$_icmd_clearservers@$0CIE@@@SAXPEAH@Z 000000014011f2f0 f   serverbrowser.obj
 0001:0011e310       ?run@?$_icmd_keepserver@$0CID@@@SAXPEBDPEAH0@Z 000000014011f310 f   serverbrowser.obj
 0001:0011e330       ?run@?$_icmd_addserver@$0CIC@@@SAXPEBDPEAH0@Z 000000014011f330 f   serverbrowser.obj
 0001:0011e350       ?initservers@@YAXXZ        000000014011f350 f   serverbrowser.obj
 0001:0011e380       ?updatefrommaster@@YAXXZ   000000014011f380 f   serverbrowser.obj
 0001:0011e400       ?retrieveservers@@YAXAEAU?$vector@D@@@Z 000000014011f400 f   serverbrowser.obj
 0001:0011e6b0       ?clearservers@@YAX_N@Z     000000014011f6b0 f   serverbrowser.obj
 0001:0011e790       ?connectselected@@YAXXZ    000000014011f790 f   serverbrowser.obj
 0001:0011e7d0       ?showservers@@YAPEBDPEAUg3d_gui@@PEAIHH@Z 000000014011f7d0 f   serverbrowser.obj
 0001:0011ea60       ?refreshservers@@YAXXZ     000000014011fa60 f   serverbrowser.obj
 0001:0011eb70       ?sortservers@@YAXXZ        000000014011fb70 f   serverbrowser.obj
 0001:0011eba0       ?checkpings@@YAXXZ         000000014011fba0 f   serverbrowser.obj
 0001:0011ef30       ?checkresolver@@YAXXZ      000000014011ff30 f   serverbrowser.obj
 0001:0011f050       ?pingservers@@YAXXZ        0000000140120050 f   serverbrowser.obj
 0001:0011f3f0       ?resolvercheck@@YA_NPEAPEBDPEAU_ENetAddress@@@Z 00000001401203f0 f   serverbrowser.obj
 0001:0011f520       ?resolverquery@@YAXPEBD@Z  0000000140120520 f   serverbrowser.obj
 0001:0011f650       ?resolverclear@@YAXXZ      0000000140120650 f   serverbrowser.obj
 0001:0011f740       ?resolverstop@@YAXAEAUresolverthread@@@Z 0000000140120740 f   serverbrowser.obj
 0001:0011f7a0       ?resolverinit@@YAXXZ       00000001401207a0 f   serverbrowser.obj
 0001:0011f870       ?resolverloop@@YAHPEAX@Z   0000000140120870 f   serverbrowser.obj
 0001:0011fa00       ?connectwithtimeout@@YAH_KPEBDAEBU_ENetAddress@@@Z 0000000140120a00 f   serverbrowser.obj
 0001:0011fba0       ?addserver@@YAXPEBDH0_N@Z  0000000140120ba0 f   serverbrowser.obj
 0001:0011fd30       ?resolverwait@@YA_NPEBDPEAU_ENetAddress@@@Z 0000000140120d30 f   serverbrowser.obj
 0001:00121020       ?consolebox@@YAXHHHH@Z     0000000140122020 f   3dgui.obj
 0001:001211d0       ?g3d_render@@YAXXZ         00000001401221d0 f   3dgui.obj
 0001:00121620       ?g3d_limitscale@@YAXM@Z    0000000140122620 f   3dgui.obj
 0001:00121630       ?g3d_movecursor@@YA_NHH@Z  0000000140122630 f   3dgui.obj
 0001:00121710       ?g3d_resetcursor@@YAXXZ    0000000140122710 f   3dgui.obj
 0001:00121730       ?g3d_cursorpos@@YAXAEAM0@Z 0000000140122730 f   3dgui.obj
 0001:00121770       ?menukey@@YA_NH_NH@Z       0000000140122770 f   3dgui.obj
 0001:00121ea0       ?run@?$_icmd_textexec@$0CPN@@@SAXPEAH@Z 0000000140122ea0 f   3dgui.obj
 0001:00121f20       ?run@?$_icmd_textcurrentline@$0CPH@@@SAXXZ 0000000140122f20 f   3dgui.obj
 0001:00121f80       ?run@?$_icmd_textclear@$0CPG@@@SAXXZ 0000000140122f80 f   3dgui.obj
 0001:00121fc0       ?run@?$_icmd_textselectall@$0CPF@@@SAXXZ 0000000140122fc0 f   3dgui.obj
 0001:00122010       ?run@?$_icmd_textmark@$0CPE@@@SAXPEAH@Z 0000000140123010 f   3dgui.obj
 0001:001220a0       ?run@?$_icmd_textpaste@$0CPA@@@SAXXZ 00000001401230a0 f   3dgui.obj
 0001:00122110       ?run@?$_icmd_textcopy@$0COP@@@SAXXZ 0000000140123110 f   3dgui.obj
 0001:00122180       ?run@?$_icmd_textinit@$0COL@@@SAXPEAD00@Z 0000000140123180 f   3dgui.obj
 0001:001222a0       ?run@?$_icmd_textload@$0COB@@@SAXPEAD@Z 00000001401232a0 f   3dgui.obj
 0001:00122360       ?run@?$_icmd_textsave@$0CNJ@@@SAXPEAD@Z 0000000140123360 f   3dgui.obj
 0001:001223f0       ?run@?$_icmd_textmode@$0CNF@@@SAXPEAH@Z 00000001401233f0 f   3dgui.obj
 0001:00122440       ?run@?$_icmd_textprev@$0CNB@@@SAXXZ 0000000140123440 f   3dgui.obj
 0001:00122490       ?run@?$_icmd_textfocus@$0CNA@@@SAXPEADPEAH@Z 0000000140123490 f   3dgui.obj
 0001:00122500       ?run@?$_icmd_textshow@$0CMM@@@SAXXZ 0000000140123500 f   3dgui.obj
 0001:00122590       ?run@?$_icmd_textlist@$0CMG@@@SAXXZ 0000000140123590 f   3dgui.obj
 0001:00122be0       ?g3d_windowhit@@YA_N_N0@Z  0000000140123be0 f   3dgui.obj
 0001:00122c90       ?g3d_addgui@@YAXPEAUg3d_callback@@AEAUvec@@H@Z 0000000140123c90 f   3dgui.obj
 0001:00122ee0       ??0BIH@@QEAA@PEAU?$vector@Utri@BIH@@@@@Z 0000000140123ee0 f   bih.obj
 0001:00123360       ?build@BIH@@QEAAXAEAU?$vector@UBIHNode@@@@PEAGHAEBUvec@@2H@Z 0000000140124360 f   bih.obj
 0001:00124070       ?triintersect@BIH@@SA_NAEAUtri@1@AEBUvec@@1MAEAMHPEAU21@@Z 0000000140125070 f   bih.obj
 0001:00124440       ?mmintersect@@YA_NAEBUextentity@@AEBUvec@@1MHAEAM@Z 0000000140125440 f   bih.obj
 0001:001247e0       ?flushblobs@@YAXXZ         00000001401257e0 f   blob.obj
 0001:00124870       ?renderblob@@YAXHAEBUvec@@MM@Z 0000000140125870 f   blob.obj
 0001:001248e0       ?initblobs@@YAXH@Z         00000001401258e0 f   blob.obj
 0001:00124960       ?var_blobdyntris@@YAXXZ    0000000140125960 f   blob.obj
 0001:00124990       ?var_blobstattris@@YAXXZ   0000000140125990 f   blob.obj
 0001:001249c0       ?var_blobmargin@@YAXXZ     00000001401259c0 f   blob.obj
 0001:001249e0       ?var_blobfadehigh@@YAXXZ   00000001401259e0 f   blob.obj
 0001:00124a00       ?var_blobfadelow@@YAXXZ    0000000140125a00 f   blob.obj
 0001:00124a20       ?var_blobheight@@YAXXZ     0000000140125a20 f   blob.obj
 0001:00124a40       ?var_blobintensity@@YAXXZ  0000000140125a40 f   blob.obj
 0001:00124a60       ?resetblobs@@YAXXZ         0000000140125a60 f   blob.obj
 0001:00124b10       ?adddecal@@YAXHAEBUvec@@0MAEBUbvec@@H@Z 0000000140125b10 f   decal.obj
 0001:00124bd0       ?renderdecals@@YAX_N@Z     0000000140125bd0 f   decal.obj
 0001:00124cf0       ?initdecals@@YAXXZ         0000000140125cf0 f   decal.obj
 0001:00124e00       ?var_maxdecaltris@@YAXXZ   0000000140125e00 f   decal.obj
 0001:00124e10       ?cleardecals@@YAXXZ        0000000140125e10 f   decal.obj
 0001:00124ea0       ?setdynlights@@YAHPEAUvtxarray@@@Z 0000000140125ea0 f   dynlight.obj
 0001:00125450       ?calcdynlightmask@@YAXPEAUvtxarray@@@Z 0000000140126450 f   dynlight.obj
 0001:001255a0       ?dynlightreaching@@YAXAEBUvec@@AEAU1@1_N@Z 00000001401265a0 f   dynlight.obj
 0001:00125a30       ?getdynlight@@YA_NHAEAUvec@@AEAM0@Z 0000000140126a30 f   dynlight.obj
 0001:00125a80       ?finddynlights@@YAHXZ      0000000140126a80 f   dynlight.obj
 0001:00125ef0       ?updatedynlights@@YAXXZ    0000000140126ef0 f   dynlight.obj
 0001:00125f80       ?removetrackeddynlights@@YAXPEAUphysent@@@Z 0000000140126f80 f   dynlight.obj
 0001:00126080       ?cleardynlights@@YAXXZ     0000000140127080 f   dynlight.obj
 0001:00126170       ?adddynlight@@YAXAEBUvec@@M0HHHM0PEAUphysent@@@Z 0000000140127170 f   dynlight.obj
 0001:00126390       ?addglare@@YAXXZ           0000000140127390 f   glare.obj
 0001:00126640       ?drawglaretex@@YAXXZ       0000000140127640 f   glare.obj
 0001:001266a0       ?viewglaretex@@YAXXZ       00000001401276a0 f   glare.obj
 0001:001266d0       ?var_glaresize@@YAXXZ      00000001401276d0 f   glare.obj
 0001:001266e0       ?cleanupglare@@YAXXZ       00000001401276e0 f   glare.obj
 0001:00126c50       ?rendergrass@@YAXXZ        0000000140127c50 f   grass.obj
 0001:00127070       ?generategrass@@YAXXZ      0000000140128070 f   grass.obj
 0001:00128740       ?var_grasscolour@@YAXXZ    0000000140129740 f   grass.obj
 0001:00129120       ?rendermaterials@@YAXXZ    000000014012a120 f   material.obj
 0001:0012a6e0       ?var_waterfallenv@@YAXXZ   000000014012b6e0 f   material.obj
 0001:0012c1c0       ?getglasscolor@@YAAEBUbvec@@H@Z 000000014012d1c0 f   material.obj
 0001:0012c200       ?var_glass4colour@@YAXXZ   000000014012d200 f   material.obj
 0001:0012c250       ?var_glass3colour@@YAXXZ   000000014012d250 f   material.obj
 0001:0012c2a0       ?var_glass2colour@@YAXXZ   000000014012d2a0 f   material.obj
 0001:0012c2f0       ?var_glasscolour@@YAXXZ    000000014012d2f0 f   material.obj
 0001:0012c340       ?rendermatgrid@@YAXAEAU?$vector@PEAUmaterialsurface@@@@@Z 000000014012d340 f   material.obj
 0001:0012c560       ?sortmaterials@@YAXAEAU?$vector@PEAUmaterialsurface@@@@@Z 000000014012d560 f   material.obj
 0001:0012cae0       ?var_optmats@@YAXXZ        000000014012dae0 f   material.obj
 0001:0012ce90       ?visiblematerial@@YAHAEBUcube@@HHHHHG@Z 000000014012de90 f   material.obj
 0001:0012cfc0       ?getmaterialdesc@@YAPEBDHPEBD@Z 000000014012dfc0 f   material.obj
 0001:0012d160       ?findmaterialname@@YAPEBDH@Z 000000014012e160 f   material.obj
 0001:0012df40       ?optimizematsurfs@@YAHPEAUmaterialsurface@@H@Z 000000014012ef40 f   material.obj
 0001:0012e250       ?genmatsurfs@@YAXAEBUcube@@HHHHAEAU?$vector@Umaterialsurface@@@@@Z 000000014012f250 f   material.obj
 0001:0012e3e0       ?setupmaterials@@YAXHH@Z   000000014012f3e0 f   material.obj
 0001:0012f5f0       ?findmaterial@@YAHPEBD@Z   00000001401305f0 f   material.obj
 0001:0012f800       ?gl_drawhud@@YAXHH@Z       0000000140130800 f   rendergl.obj
 0001:00130470       ?drawcrosshair@@YAXHH@Z    0000000140131470 f   rendergl.obj
 0001:00130830       ?writecrosshairs@@YAXPEAUstream@@@Z 0000000140131830 f   rendergl.obj
 0001:00130ab0       ?run@?$_icmd_getcrosshair@$0ION@@@SAXPEAH@Z 0000000140131ab0 f   rendergl.obj
 0001:00130b30       ?loadcrosshair_@@YAXPEBDPEAH@Z 0000000140131b30 f   rendergl.obj
 0001:00130b40       ?loadcrosshair@@YAXPEBDH@Z 0000000140131b40 f   rendergl.obj
 0001:00130bd0       ?drawdamagescreen@@YAXHH@Z 0000000140131bd0 f   rendergl.obj
 0001:00130dc0       ?damageblend@@YAXH@Z       0000000140131dc0 f   rendergl.obj
 0001:00130e20       ?var_damagescreen@@YAXXZ   0000000140131e20 f   rendergl.obj
 0001:00130e40       ?drawdamagecompass@@YAXHH@Z 0000000140131e40 f   rendergl.obj
 0001:001310f0       ?damagecompass@@YAXHAEBUvec@@@Z 00000001401320f0 f   rendergl.obj
 0001:00131280       ?gl_drawmainmenu@@YAXHH@Z  0000000140132280 f   rendergl.obj
 0001:00131390       ?gl_drawframe@@YAXHH@Z     0000000140132390 f   rendergl.obj
 0001:00131c80       ?addmotionblur@@YAXXZ      0000000140132c80 f   rendergl.obj
 0001:00132040       ?var_motionblur@@YAXXZ     0000000140133040 f   rendergl.obj
 0001:001320a0       ?drawminimap@@YAXXZ        00000001401330a0 f   rendergl.obj
 0001:00132b20       ?clipminimap@@YAXAEAUivec@@0PEAUcube@@HHHH@Z 0000000140133b20 f   rendergl.obj
 0001:00132c60       ?bindminimap@@YAXXZ        0000000140133c60 f   rendergl.obj
 0001:00132c80       ?var_minimapsize@@YAXXZ    0000000140133c80 f   rendergl.obj
 0001:00132ca0       ?var_minimapcolour@@YAXXZ  0000000140133ca0 f   rendergl.obj
 0001:00132ce0       ?drawcubemap@@YAXHAEBUvec@@MMAEBUcubemapside@@@Z 0000000140133ce0 f   rendergl.obj
 0001:001331b0       ?drawreflection@@YAXM_NHAEBUbvec@@@Z 00000001401341b0 f   rendergl.obj
 0001:00133f20       ?rendergame@@YAX_N@Z       0000000140134f20 f   rendergl.obj
 0001:00133f50       ?drawfogoverlay@@YAXHMH@Z  0000000140134f50 f   rendergl.obj
 0001:00134850       ?var_fogcolour@@YAXXZ      0000000140135850 f   rendergl.obj
 0001:00134890       ?setenvmatrix@@YAXXZ       0000000140135890 f   rendergl.obj
 0001:00134900       ?popscissor@@YAXXZ         0000000140135900 f   rendergl.obj
 0001:00134970       ?pushscissor@@YAHMMMM@Z    0000000140135970 f   rendergl.obj
 0001:00134c80       ?calcspherescissor@@YAXAEBUvec@@MAEAM111@Z 0000000140135c80 f   rendergl.obj
 0001:00135040       ?popprojection@@YAXXZ      0000000140136040 f   rendergl.obj
 0001:001350b0       ?pushprojection@@YAXAEBUglmatrixf@@@Z 00000001401360b0 f   rendergl.obj
 0001:00135130       ?calcavatarpos@@YA?AUvec@@AEBU1@M@Z 0000000140136130 f   rendergl.obj
 0001:001353b0       ?project@@YAXMMH_N00M@Z    00000001401363b0 f   rendergl.obj
 0001:00135500       ?readmatrices@@YAXXZ       0000000140136500 f   rendergl.obj
 0001:00135580       ?recomputecamera@@YAXXZ    0000000140136580 f   rendergl.obj
 0001:00135f80       ?mousemove@@YAXHH@Z        0000000140136f80 f   rendergl.obj
 0001:00136120       ?fixcamerarange@@YAXXZ     0000000140137120 f   rendergl.obj
 0001:001361a0       ?isthirdperson@@YA_NXZ     00000001401371a0 f   rendergl.obj
 0001:001361d0       ?computezoom@@YAXXZ        00000001401371d0 f   rendergl.obj
 0001:00136300       ?disablezoom@@YAXXZ        0000000140137300 f   rendergl.obj
 0001:00136320       ?transplayer@@YAXXZ        0000000140137320 f   rendergl.obj
 0001:001363d0       ?findorientation@@YAXXZ    00000001401373d0 f   rendergl.obj
 0001:00136720       ?run@?$_icmd_getcampos@$0DEF@@@SAXXZ 0000000140137720 f   rendergl.obj
 0001:00136800       ?run@?$_icmd_getcamroll@$0DEA@@@SAXXZ 0000000140137800 f   rendergl.obj
 0001:00136830       ?run@?$_icmd_getcampitch@$0DDP@@@SAXXZ 0000000140137830 f   rendergl.obj
 0001:00136860       ?run@?$_icmd_getcamyaw@$0DDO@@@SAXXZ 0000000140137860 f   rendergl.obj
 0001:00136ab0       ?cleanupgl@@YAXXZ          0000000140137ab0 f   rendergl.obj
 0001:00136b30       ?gl_init@@YAXHHHHH@Z       0000000140137b30 f   rendergl.obj
 0001:00136d50       ?glext@@YAXPEAD@Z          0000000140137d50 f   rendergl.obj
 0001:00136da0       ?gl_checkextensions@@YAXXZ 0000000140137da0 f   rendergl.obj
 0001:001389d0       ?hasext@@YA_NPEBD0@Z       00000001401399d0 f   rendergl.obj
 0001:00138b00       ?getprocaddress@@YAPEAXPEBD@Z 0000000140139b00 f   rendergl.obj
 0001:00138b10       ?cleanupmotionblur@@YAXXZ  0000000140139b10 f   rendergl.obj
 0001:00138b60       ?clearminimap@@YAXXZ       0000000140139b60 f   rendergl.obj
 0001:00138ba0       ?defattrib@varray@@YAXHHI@Z 0000000140139ba0 f   rendergl.obj
 0001:00138cb0       ?begin@varray@@YAXI@Z      0000000140139cb0 f   rendergl.obj
 0001:00138cc0       ?end@varray@@YAHXZ         0000000140139cc0 f   rendergl.obj
 0001:00138ea0       ?enable@varray@@YAXXZ      0000000140139ea0 f   rendergl.obj
 0001:00138ed0       ?disable@varray@@YAXXZ     0000000140139ed0 f   rendergl.obj
 0001:00138f70       ?drawglare@@YAXXZ          0000000140139f70 f   rendergl.obj
 0001:001392c0       ?start@modelpreview@@YAX_N@Z 000000014013a2c0 f   rendergl.obj
 0001:001395d0       ?end@modelpreview@@YAXXZ   000000014013a5d0 f   rendergl.obj
 0001:001396d0       ?drawtextures@@YAXXZ       000000014013a6d0 f   rendergl.obj
 0001:00139710       ?enablepolygonoffset@@YAXI@Z 000000014013a710 f   rendergl.obj
 0001:001397f0       ?disablepolygonoffset@@YAXI@Z 000000014013a7f0 f   rendergl.obj
 0001:00139890       ?invalidatepostfx@@YAXXZ   000000014013a890 f   rendergl.obj
 0001:0013a870       ?setbbfrommodel@@YAXPEAUdynent@@PEBD@Z 000000014013b870 f   rendermodel.obj
 0001:0013a970       ?renderclient@@YAXPEAUdynent@@PEBDPEAUmodelattach@@HHHHHM_N@Z 000000014013b970 f   rendermodel.obj
 0001:0013acf0       ?loadskin@@YAXPEBD0AEAPEAUTexture@@1@Z 000000014013bcf0 f   rendermodel.obj
 0001:0013af20       ?run@?$_icmd_findanims@$0DPC@@@SAXPEAD@Z 000000014013bf20 f   rendermodel.obj
 0001:0013b320       ?findanims@@YAXPEBDAEAU?$vector@H@@@Z 000000014013c320 f   rendermodel.obj
 0001:0013b3a0       ?matchanim@@YA_NPEBD0@Z    000000014013c3a0 f   rendermodel.obj
 0001:0013b470       ?abovemodel@@YAXAEAUvec@@PEBD@Z 000000014013c470 f   rendermodel.obj
 0001:0013b4b0       ?rendermodelquery@@YAXPEAUmodel@@PEAUdynent@@AEBUvec@@M@Z 000000014013c4b0 f   rendermodel.obj
 0001:0013b670       ?endmodelquery@@YAXXZ      000000014013c670 f   rendermodel.obj
 0001:0013b820       ?startmodelquery@@YAXPEAUoccludequery@@@Z 000000014013c820 f   rendermodel.obj
 0001:0013b830       ?endmodelbatches@@YAXXZ    000000014013c830 f   rendermodel.obj
 0001:0013bee0       ?renderbatchedmodel@@YAXPEAUmodel@@AEAUbatchedmodel@@@Z 000000014013cee0 f   rendermodel.obj
 0001:0013c080       ?addbatchedmodel@@YAAEAUmodelbatch@@PEAUmodel@@@Z 000000014013d080 f   rendermodel.obj
 0001:0013c190       ?startmodelbatches@@YAXXZ  000000014013d190 f   rendermodel.obj
 0001:0013c1b0       ?renderellipse@@YAXAEAUvec@@MMM@Z 000000014013d1b0 f   rendermodel.obj
 0001:0013c330       ?render3dbox@@YAXAEAUvec@@MMMM@Z 000000014013d330 f   rendermodel.obj
 0001:0013c610       ?render2dbox@@YAXAEAUvec@@MMM@Z 000000014013d610 f   rendermodel.obj
 0001:0013c6d0       ?modeloccluded@@YA_NAEBUvec@@M@Z 000000014013d6d0 f   rendermodel.obj
 0001:0013c7b0       ?clearmodel@@YAXPEAD@Z     000000014013d7b0 f   rendermodel.obj
 0001:0013c880       ?cleanupmodels@@YAXXZ      000000014013d880 f   rendermodel.obj
 0001:0013c8f0       ?clear_mdls@@YAXXZ         000000014013d8f0 f   rendermodel.obj
 0001:0013c970       ?preloadmodelshaders@@YAXXZ 000000014013d970 f   rendermodel.obj
 0001:0013ca00       ?preloadmodel@@YAXPEBD@Z   000000014013da00 f   rendermodel.obj
 0001:0013cb30       ?run@?$_icmd_nummapmodels@$0BGA@@@SAXXZ 000000014013db30 f   rendermodel.obj
 0001:0013cb50       ?run@?$_icmd_mapmodelname@$0BFP@@@SAXPEAH@Z 000000014013db50 f   rendermodel.obj
 0001:0013cba0       ?mapmodelname@@YAPEBDH@Z   000000014013dba0 f   rendermodel.obj
 0001:0013cbd0       ?getmminfo@@YAPEAUmapmodelinfo@@H@Z 000000014013dbd0 f   rendermodel.obj
 0001:0013cc00       ?mapmodelreset@@YAXPEAH@Z  000000014013dc00 f   rendermodel.obj
 0001:0013cc50       ?mapmodelcompat@@YAXPEAH00PEAD1@Z 000000014013dc50 f   rendermodel.obj
 0001:0013cc60       ?mmodel@@YAXPEAD@Z         000000014013dc60 f   rendermodel.obj
 0001:0013cd00       ?rdanimjoints@@YAXPEAH@Z   000000014013dd00 f   rendermodel.obj
 0001:0013ce10       ?rdlimitrot@@YAXPEAH0PEAM1111@Z 000000014013de10 f   rendermodel.obj
 0001:0013d000       ?rdlimitdist@@YAXPEAH0PEAM1@Z 000000014013e000 f   rendermodel.obj
 0001:0013d170       ?rdjoint@@YAXPEAH0000@Z    000000014013e170 f   rendermodel.obj
 0001:0013d310       ?rdtri@@YAXPEAH00@Z        000000014013e310 f   rendermodel.obj
 0001:0013d470       ?rdeye@@YAXPEAH@Z          000000014013e470 f   rendermodel.obj
 0001:0013d570       ?rdvert@@YAXPEAM000@Z      000000014013e570 f   rendermodel.obj
 0001:0013d720       ?mdlname@@YAXXZ            000000014013e720 f   rendermodel.obj
 0001:0013d770       ?mdlextendbb@@YAXPEAM00@Z  000000014013e770 f   rendermodel.obj
 0001:0013d7d0       ?mdlbb@@YAXPEAM00@Z        000000014013e7d0 f   rendermodel.obj
 0001:0013d810       ?mdlshadow@@YAXPEAH@Z      000000014013e810 f   rendermodel.obj
 0001:0013d840       ?mdlpitch@@YAXPEAM@Z       000000014013e840 f   rendermodel.obj
 0001:0013d870       ?mdlyaw@@YAXPEAM@Z         000000014013e870 f   rendermodel.obj
 0001:0013d8a0       ?mdltrans@@YAXPEAM00@Z     000000014013e8a0 f   rendermodel.obj
 0001:0013d900       ?mdlscale@@YAXPEAH@Z       000000014013e900 f   rendermodel.obj
 0001:0013d950       ?mdlspin@@YAXPEAM0@Z       000000014013e950 f   rendermodel.obj
 0001:0013d980       ?mdlshader@@YAXPEAD@Z      000000014013e980 f   rendermodel.obj
 0001:0013d9e0       ?mdlfullbright@@YAXPEAM@Z  000000014013e9e0 f   rendermodel.obj
 0001:0013da20       ?mdlenvmap@@YAXPEAM0PEAD@Z 000000014013ea20 f   rendermodel.obj
 0001:0013daa0       ?mdlglare@@YAXPEAM0@Z      000000014013eaa0 f   rendermodel.obj
 0001:0013dae0       ?mdlglow@@YAXPEAH0PEAM@Z   000000014013eae0 f   rendermodel.obj
 0001:0013db70       ?mdldepthoffset@@YAXPEAH@Z 000000014013eb70 f   rendermodel.obj
 0001:0013dba0       ?mdlalphadepth@@YAXPEAH@Z  000000014013eba0 f   rendermodel.obj
 0001:0013dbd0       ?mdlalphablend@@YAXPEAH@Z  000000014013ebd0 f   rendermodel.obj
 0001:0013dc10       ?mdlalphatest@@YAXPEAM@Z   000000014013ec10 f   rendermodel.obj
 0001:0013dc60       ?mdlambient@@YAXPEAH@Z     000000014013ec60 f   rendermodel.obj
 0001:0013dcc0       ?mdlspec@@YAXPEAH@Z        000000014013ecc0 f   rendermodel.obj
 0001:0013dd20       ?mdlellipsecollide@@YAXPEAH@Z 000000014013ed20 f   rendermodel.obj
 0001:0013dd50       ?mdlcollide@@YAXPEAH@Z     000000014013ed50 f   rendermodel.obj
 0001:0013dd80       ?mdlcullface@@YAXPEAH@Z    000000014013ed80 f   rendermodel.obj
 0001:0013e160       ?var_bumpmodels@@YAXXZ     000000014013f160 f   rendermodel.obj
 0001:0013e170       ?var_glowmodels@@YAXXZ     000000014013f170 f   rendermodel.obj
 0001:0013e180       ?var_envmapmodels@@YAXXZ   000000014013f180 f   rendermodel.obj
 0001:0013e190       ?var_lightmodels@@YAXXZ    000000014013f190 f   rendermodel.obj
 0001:0013e1a0       ?cleanragdoll@@YAXPEAUdynent@@@Z 000000014013f1a0 f   rendermodel.obj
 0001:0013e1e0       ?moveragdoll@@YAXPEAUdynent@@@Z 000000014013f1e0 f   rendermodel.obj
 0001:0013e3b0       ?move@ragdolldata@@QEAAXPEAUdynent@@M@Z 000000014013f3b0 f   rendermodel.obj
 0001:0013eaf0       ?constrain@ragdolldata@@QEAAXXZ 000000014013faf0 f   rendermodel.obj
 0001:0013eb50       ?updatepos@ragdolldata@@QEAAXXZ 000000014013fb50 f   rendermodel.obj
 0001:0013ee30       ?tryunstick@ragdolldata@@QEAAXM@Z 000000014013fe30 f   rendermodel.obj
 0001:0013f070       ?applyrotfriction@ragdolldata@@QEAAXM@Z 0000000140140070 f   rendermodel.obj
 0001:0013f320       ?calcrotfriction@ragdolldata@@QEAAXXZ 0000000140140320 f   rendermodel.obj
 0001:0013f580       ?constrainrot@ragdolldata@@QEAAXXZ 0000000140140580 f   rendermodel.obj
 0001:0013f700       ?constraindist@ragdolldata@@QEAAXXZ 0000000140140700 f   rendermodel.obj
 0001:0013fa30       ?rendermodel@@YAXPEAUentitylight@@PEBDHAEBUvec@@MMHPEAUdynent@@PEAUmodelattach@@HHM@Z 0000000140140a30 f   rendermodel.obj
 0001:001407b0       ?flushpreloadedmodels@@YAX_N@Z 00000001401417b0 f   rendermodel.obj
 0001:00140890       ?preloadusedmapmodels@@YAX_N0@Z 0000000140141890 f   rendermodel.obj
 0001:00140b20       ?loadmodel@@YAPEAUmodel@@PEBDH_N@Z 0000000140141b20 f   rendermodel.obj
 0001:00141230       ?updateparticles@@YAXXZ    0000000140142230 f   renderparticles.obj
 0001:00142070       ?regular_particle_flame@@YAXHAEBUvec@@MMHHMMMH@Z 0000000140143070 f   renderparticles.obj
 0001:00142360       ?regularshape@@YAXHHHHHHAEBUvec@@MHH@Z 0000000140143360 f   renderparticles.obj
 0001:00142fc0       ?particle_fireball@@YAXAEBUvec@@MHHHM@Z 0000000140143fc0 f   renderparticles.obj
 0001:001430f0       ?particle_flare@@YAXAEBUvec@@0HHHMPEAUphysent@@@Z 00000001401440f0 f   renderparticles.obj
 0001:00143150       ?particle_meter@@YAXAEBUvec@@MHHHHM@Z 0000000140144150 f   renderparticles.obj
 0001:001432b0       ?particle_icon@@YAXAEBUvec@@HHHHHMH@Z 00000001401442b0 f   renderparticles.obj
 0001:001433e0       ?particle_textcopy@@YAXAEBUvec@@PEBDHHHMH@Z 00000001401443e0 f   renderparticles.obj
 0001:00143500       ?particle_text@@YAXAEBUvec@@PEBDHHHMH@Z 0000000140144500 f   renderparticles.obj
 0001:00143600       ?particle_trail@@YAXHHAEBUvec@@0HMH@Z 0000000140144600 f   renderparticles.obj
 0001:001438f0       ?particle_splash@@YAXHHHAEBUvec@@HMHH@Z 00000001401448f0 f   renderparticles.obj
 0001:00143940       ?regular_particle_splash@@YAXHHHAEBUvec@@HMHHH@Z 0000000140144940 f   renderparticles.obj
 0001:001439d0       ?canaddparticles@@YA_NXZ   00000001401449d0 f   renderparticles.obj
 0001:00143df0       ?removetrackedparticles@@YAXPEAUphysent@@@Z 0000000140144df0 f   renderparticles.obj
 0001:00143e40       ?cleanupparticles@@YAXXZ   0000000140144e40 f   renderparticles.obj
 0001:00143e80       ?particleinit@@YAXXZ       0000000140144e80 f   renderparticles.obj
 0001:00143f50       ?var_fewparticles@@YAXXZ   0000000140144f50 f   renderparticles.obj
 0001:00143f60       ?var_maxparticles@@YAXXZ   0000000140144f60 f   renderparticles.obj
 0001:00146710       ?binddepthfxparams@@YAXMM_NPEAX@Z 0000000140147710 f   renderparticles.obj
 0001:00146c40       ?binddepthfxtex@@YA_NXZ    0000000140147c40 f   renderparticles.obj
 0001:00146e90       ?cleanupdepthfx@@YAXXZ     0000000140147e90 f   renderparticles.obj
 0001:00146f90       ?var_depthfxfilter@@YAXXZ  0000000140147f90 f   renderparticles.obj
 0001:00146fa0       ?var_depthfxrect@@YAXXZ    0000000140147fa0 f   renderparticles.obj
 0001:00146fb0       ?var_depthfxsize@@YAXXZ    0000000140147fb0 f   renderparticles.obj
 0001:00146fc0       ?var_fpdepthfx@@YAXXZ      0000000140147fc0 f   renderparticles.obj
 0001:00146fd0       ?addparticleemitters@@YAXXZ 0000000140147fd0 f   renderparticles.obj
 0001:00147150       ?finddepthfxranges@@YAXXZ  0000000140148150 f   renderparticles.obj
 0001:00147310       ?renderparticles@@YAX_N@Z  0000000140148310 f   renderparticles.obj
 0001:00147df0       ?drawdepthfxtex@@YAXXZ     0000000140148df0 f   renderparticles.obj
 0001:00147e70       ?viewdepthfxtex@@YAXXZ     0000000140148e70 f   renderparticles.obj
 0001:00147ea0       ?clearparticleemitters@@YAXXZ 0000000140148ea0 f   renderparticles.obj
 0001:00147ed0       ?printparticles@@YA_NAEAUextentity@@PEAD@Z 0000000140148ed0 f   renderparticles.obj
 0001:00148080       ?clearparticles@@YAXXZ     0000000140149080 f   renderparticles.obj
 0001:001480e0       ?seedparticles@@YAXXZ      00000001401490e0 f   renderparticles.obj
 0001:00148820       ?drawskyoutline@@YAXXZ     0000000140149820 f   rendersky.obj
 0001:00148980       ?drawskylimits@@YA_N_N@Z   0000000140149980 f   rendersky.obj
 0001:00148a10       ?cleanupsky@@YAXXZ         0000000140149a10 f   rendersky.obj
 0001:00148cb0       ?var_fogdomecolour@@YAXXZ  0000000140149cb0 f   rendersky.obj
 0001:00149f50       ?draw_env_overlay@@YAXHPEAUTexture@@MM@Z 000000014014af50 f   rendersky.obj
 0001:0014a2d0       ?draw_envbox@@YAXHMMHPEAPEAUTexture@@@Z 000000014014b2d0 f   rendersky.obj
 0001:0014a7d0       ?draw_envbox_face@@YAXMMHHHMMHHHMMHHHMMHHHI@Z 000000014014b7d0 f   rendersky.obj
 0001:0014a930       ?var_cloudlayer@@YAXXZ     000000014014b930 f   rendersky.obj
 0001:0014a960       ?var_cloudbox@@YAXXZ       000000014014b960 f   rendersky.obj
 0001:0014a980       ?var_skybox@@YAXXZ         000000014014b980 f   rendersky.obj
 0001:0014a9a0       ?loadskyoverlay@@YAPEAUTexture@@PEBD@Z 000000014014b9a0 f   rendersky.obj
 0001:0014ab00       ?loadsky@@YAXPEBDQEAPEAUTexture@@@Z 000000014014bb00 f   rendersky.obj
 0001:0014add0       ?drawskybox@@YAXH_N@Z      000000014014bdd0 f   rendersky.obj
 0001:0014b770       ?limitsky@@YA_NXZ          000000014014c770 f   rendersky.obj
 0001:0014b880       ?reloadfonts@@YAXXZ        000000014014c880 f   rendertext.obj
 0001:0014c010       ?tabify@@YAXPEBDPEAH@Z     000000014014d010 f   rendertext.obj
 0001:0014c140       ?popfont@@YA_NXZ           000000014014d140 f   rendertext.obj
 0001:0014c180       ?pushfont@@YAXXZ           000000014014d180 f   rendertext.obj
 0001:0014c1e0       ?setfont@@YA_NPEBD@Z       000000014014d1e0 f   rendertext.obj
 0001:0014c220       ?fontalias@@YAXPEBD0@Z     000000014014d220 f   rendertext.obj
 0001:0014c340       ?fontskip@@YAXPEAH@Z       000000014014d340 f   rendertext.obj
 0001:0014c3f0       ?fontchar@@YAXPEAH000000@Z 000000014014d3f0 f   rendertext.obj
 0001:0014c4f0       ?fonttex@@YAXPEAD@Z        000000014014d4f0 f   rendertext.obj
 0001:0014c5b0       ?fontscale@@YAXPEAH@Z      000000014014d5b0 f   rendertext.obj
 0001:0014c5d0       ?fontoffset@@YAXPEAD@Z     000000014014d5d0 f   rendertext.obj
 0001:0014c5f0       ?newfont@@YAXPEAD0PEAH1@Z  000000014014d5f0 f   rendertext.obj
 0001:0014c780       ?gettextres@@YAXAEAH0@Z    000000014014d780 f   rendertext.obj
 0001:0014c7e0       ?draw_textf@@YAXPEBDHHZZ   000000014014d7e0 f   rendertext.obj
 0001:0014c870       ?text_posf@@YAXPEBDHAEAM1H@Z 000000014014d870 f   rendertext.obj
 0001:0014cb70       ?text_visible@@YAHPEBDMMH@Z 000000014014db70 f   rendertext.obj
 0001:0014ce70       ?text_boundsf@@YAXPEBDAEAM1H@Z 000000014014de70 f   rendertext.obj
 0001:0014d0e0       ?draw_text@@YAXPEBDHHHHHHHH@Z 000000014014e0e0 f   rendertext.obj
 0001:0014d760       ?text_widthf@@YAMPEBD@Z    000000014014e760 f   rendertext.obj
 0001:0014d910       ?renderreflectedskyvas@@YAXAEAU?$vector@PEAUvtxarray@@@@H@Z 000000014014e910 f   renderva.obj
 0001:0014da80       ?renderskyva@@YAXPEAUvtxarray@@_N@Z 000000014014ea80 f   renderva.obj
 0001:0014dbb0       ?findreflectedvas@@YAXAEAU?$vector@PEAUvtxarray@@@@H@Z 000000014014ebb0 f   renderva.obj
 0001:0014e170       ?cleanupTMUs@@YAXAEAUrenderstate@@M_N@Z 000000014014f170 f   renderva.obj
 0001:0014e3c0       ?setupTMUs@@YAXAEAUrenderstate@@M_N@Z 000000014014f3c0 f   renderva.obj
 0001:0014ea00       ?setupcaustics@@YAXHMPEAM@Z 000000014014fa00 f   renderva.obj
 0001:0014f370       ?var_caustics@@YAXXZ       0000000140150370 f   renderva.obj
 0001:0014f380       ?cleanupva@@YAXXZ          0000000140150380 f   renderva.obj
 0001:0014f8e0       ?renderva@@YAXAEAUrenderstate@@PEAUvtxarray@@H_N2@Z 00000001401508e0 f   renderva.obj
 0001:0014fdb0       ?rendershadowmappass@@YAXAEAUrenderstate@@PEAUvtxarray@@@Z 0000000140150db0 f   renderva.obj
 0001:0014fed0       ?renderfoggedvas@@YAXAEAUrenderstate@@_N@Z 0000000140150ed0 f   renderva.obj
 0001:00150100       ?renderzpass@@YAXAEAUrenderstate@@PEAUvtxarray@@@Z 0000000140151100 f   renderva.obj
 0001:00152e20       ?renderquery@@YAXAEAUrenderstate@@PEAUoccludequery@@PEAUvtxarray@@_N@Z 0000000140153e20 f   renderva.obj
 0001:00152fa0       ?rendershadowmapreceivers@@YAXXZ 0000000140153fa0 f   renderva.obj
 0001:00153420       ?rendermapmodel@@YAXAEAUextentity@@@Z 0000000140154420 f   renderva.obj
 0001:00153510       ?findvisiblemms@@YAXAEBU?$vector@PEAUextentity@@@@@Z 0000000140154510 f   renderva.obj
 0001:001537c0       ?clearqueries@@YAXXZ       00000001401547c0 f   renderva.obj
 0001:00153860       ?flipqueries@@YAXXZ        0000000140154860 f   renderva.obj
 0001:00153960       ?restorevfcP@@YAXXZ        0000000140154960 f   renderva.obj
 0001:001539c0       ?savevfcP@@YAXXZ           00000001401549c0 f   renderva.obj
 0001:00153a10       ?setvfcP@@YAXMAEBUvec@@0@Z 0000000140154a10 f   renderva.obj
 0001:00153f10       ?calcvfcD@@YAXXZ           0000000140154f10 f   renderva.obj
 0001:00153fe0       ?findvisiblevas@@YAXAEAU?$vector@PEAUvtxarray@@@@_N@Z 0000000140154fe0 f   renderva.obj
 0001:00154110       ?sortvisiblevas@@YAXXZ     0000000140155110 f   renderva.obj
 0001:00154170       ?addvisibleva@@YAXPEAUvtxarray@@@Z 0000000140155170 f   renderva.obj
 0001:00154210       ?vadist@@YAMPEAUvtxarray@@AEBUvec@@@Z 0000000140155210 f   renderva.obj
 0001:00154230       ?isvisiblecube@@YAHAEBUivec@@H@Z 0000000140155230 f   renderva.obj
 0001:00154600       ?rendersky@@YA_N_N@Z       0000000140155600 f   renderva.obj
 0001:001547c0       ?renderdepthobstacles@@YAXAEBUvec@@0MPEAMH@Z 00000001401557c0 f   renderva.obj
 0001:00155060       ?bboccluded@@YA_NAEBUivec@@0@Z 0000000140156060 f   renderva.obj
 0001:001552b0       ?newquery@@YAPEAUoccludequery@@PEAX@Z 00000001401562b0 f   renderva.obj
 0001:00155340       ?drawbb@@YAXAEBUivec@@0AEBUvec@@@Z 0000000140156340 f   renderva.obj
 0001:00155750       ?checkquery@@YA_NPEAUoccludequery@@_N@Z 0000000140156750 f   renderva.obj
 0001:001557c0       ?rendergeom@@YAXM_N@Z      00000001401567c0 f   renderva.obj
 0001:00156b00       ?renderreflectedmapmodels@@YAXXZ 0000000140157b00 f   renderva.obj
 0001:00156cf0       ?renderalphageom@@YAX_N@Z  0000000140157cf0 f   renderva.obj
 0001:001579a0       ?renderreflectedgeom@@YAX_N0@Z 00000001401589a0 f   renderva.obj
 0001:00157a00       ?visiblecubes@@YAX_N@Z     0000000140158a00 f   renderva.obj
 0001:00157bb0       ?rendermapmodels@@YAXXZ    0000000140158bb0 f   renderva.obj
 0001:00157ed0       ?renderoutline@@YAXXZ      0000000140158ed0 f   renderva.obj
 0001:00158270       ?getnumqueries@@YAHXZ      0000000140159270 f   renderva.obj
 0001:00158290       ?loadcaustics@@YAX_N@Z     0000000140159290 f   renderva.obj
 0001:001583b0       ?isfoggedsphere@@YA_NMAEBUvec@@@Z 00000001401593b0 f   renderva.obj
 0001:001584a0       ?resetqueries@@YAXXZ       00000001401594a0 f   renderva.obj
 0001:001584e0       ?isvisiblesphere@@YAHMAEBUvec@@@Z 00000001401594e0 f   renderva.obj
 0001:001585b0       ?renderblendbrush@@YAXIMMMM@Z 00000001401595b0 f   renderva.obj
 0001:00159070       ?reloadshaders@@YAXXZ      000000014015a070 f   shader.obj
 0001:00159370       ?cleanupshaders@@YAXXZ     000000014015a370 f   shader.obj
 0001:00159730       ?committmufunc@@YAXI_NAEAUtmufunc@@1@Z 000000014015a730 f   shader.obj
 0001:001598a0       ?parsetmufunc@@YAXAEAUtmu@@AEAUtmufunc@@PEBD@Z 000000014015a8a0 f   shader.obj
 0001:00159b30       ?run@?$_icmd_setpostfx@$0IBA@@@SAXPEADPEAM111@Z 000000014015ab30 f   shader.obj
 0001:00159c20       ?run@?$_icmd_addpostfx@$0IAK@@@SAXPEADPEAH10PEAM222@Z 000000014015ac20 f   shader.obj
 0001:00159dd0       ?clearpostfx@@YAXXZ        000000014015add0 f   shader.obj
 0001:00159f40       ?cleanuppostfx@@YAX_N@Z    000000014015af40 f   shader.obj
 0001:0015a1c0       ?run@?$_icmd_defuniformparam@$0HFA@@@SAXPEADPEAM111@Z 000000014015b1c0 f   shader.obj
 0001:0015a210       ?run@?$_icmd_defpixelparam@$0HEP@@@SAXPEADPEAHPEAM222@Z 000000014015b210 f   shader.obj
 0001:0015a270       ?run@?$_icmd_defvertexparam@$0HEO@@@SAXPEADPEAHPEAM222@Z 000000014015b270 f   shader.obj
 0001:0015a2d0       ?run@?$_icmd_setshaderparam@$0HEN@@@SAXPEADPEAM111@Z 000000014015b2d0 f   shader.obj
 0001:0015a320       ?run@?$_icmd_setuniformparam@$0HEM@@@SAXPEADPEAM111@Z 000000014015b320 f   shader.obj
 0001:0015a370       ?run@?$_icmd_setpixelparam@$0HEL@@@SAXPEAHPEAM111@Z 000000014015b370 f   shader.obj
 0001:0015a3c0       ?run@?$_icmd_setvertexparam@$0HEK@@@SAXPEAHPEAM111@Z 000000014015b3c0 f   shader.obj
 0001:0015a410       ?addshaderparam@@YAXPEBDHHMMMM@Z 000000014015b410 f   shader.obj
 0001:0015a630       ?isshadernative@@YAXPEAD@Z 000000014015b630 f   shader.obj
 0001:0015a680       ?isshaderdefined@@YAXPEAD@Z 000000014015b680 f   shader.obj
 0001:0015a6d0       ?run@?$_icmd_forceshader@$0HBG@@@SAXPEBD@Z 000000014015b6d0 f   shader.obj
 0001:0015a720       ?fastshader@@YAXPEAD0PEAH@Z 000000014015b720 f   shader.obj
 0001:0015a870       ?altshader@@YAXPEAD0@Z     000000014015b870 f   shader.obj
 0001:0015a8d0       ?linkvslotshader@@YAXAEAUVSlot@@_N@Z 000000014015b8d0 f   shader.obj
 0001:0015aac0       ?linkslotshader@@YAXAEAUSlot@@_N@Z 000000014015bac0 f   shader.obj
 0001:0015ac30       ?setslotshader@@YAXAEAUSlot@@@Z 000000014015bc30 f   shader.obj
 0001:0015ad00       ?resetslotshader@@YAXXZ    000000014015bd00 f   shader.obj
 0001:0015ad30       ?findshaderparam@@YAPEAUShaderParam@@AEAUVSlot@@PEBDHH@Z 000000014015bd30 f   shader.obj
 0001:0015add0       ?findshaderparam@@YAPEAUShaderParam@@AEAUSlot@@PEBDHH@Z 000000014015bdd0 f   shader.obj
 0001:0015aee0       ?setshader@@YAXPEAD@Z      000000014015bee0 f   shader.obj
 0001:0015af50       ?variantshader@@YAXPEAHPEAD011@Z 000000014015bf50 f   shader.obj
 0001:0015b300       ?shader@@YAXPEAHPEAD11@Z   000000014015c300 f   shader.obj
 0001:0015b740       ?fixdetailshader@Shader@@QEAAX_N0@Z 000000014015c740 f   shader.obj
 0001:0015b860       ?var_shaderdetail@@YAXXZ   000000014015c860 f   shader.obj
 0001:0015b870       ?var_nativeshaders@@YAXXZ  000000014015c870 f   shader.obj
 0001:0015b880       ?fixshaderdetail@@YAXXZ    000000014015c880 f   shader.obj
 0001:0015ba60       ?useshader@@YAXPEAUShader@@@Z 000000014015ca60 f   shader.obj
 0001:0015bb60       ?defershader@@YAXPEAHPEBD1@Z 000000014015cb60 f   shader.obj
 0001:0015ec20       ?genemufog@@YAXAEAU?$vector@D@@0HH@Z 000000014015fc20 f   shader.obj
 0001:0015f1d0       ?newshader@@YAPEAUShader@@HPEBD00PEAU1@H@Z 00000001401601d0 f   shader.obj
 0001:0015f9d0       ?cleanup@Shader@@QEAAX_N@Z 00000001401609d0 f   shader.obj
 0001:0015fba0       ?compile@Shader@@QEAA_NXZ  0000000140160ba0 f   shader.obj
 0001:0015fdf0       ?var_forceglsl@@YAXXZ      0000000140160df0 f   shader.obj
 0001:0015fe20       ?var_shaderprecision@@YAXXZ 0000000140160e20 f   shader.obj
 0001:0015fe50       ?var_shaders@@YAXXZ        0000000140160e50 f   shader.obj
 0001:00160680       ?allocenvparams@Shader@@QEAAXPEAUSlot@@@Z 0000000140161680 f   shader.obj
 0001:00161b80       ?loadshaders@@YAXXZ        0000000140162b80 f   shader.obj
 0001:00161e60       ?setslotparams@Shader@@QEAAXAEAUSlot@@AEAUVSlot@@@Z 0000000140162e60 f   shader.obj
 0001:00161e90       ?invalidateenvparams@@YAXHHH@Z 0000000140162e90 f   shader.obj
 0001:00161ec0       ?setlocalparamfv@@YAXPEBDHHPEBM@Z 0000000140162ec0 f   shader.obj
 0001:00161f00       ?scaletmu@@YAXHHH@Z        0000000140162f00 f   shader.obj
 0001:00161f40       ?uniformlocversion@Shader@@SAHXZ 0000000140162f40 f   shader.obj
 0001:00161fe0       ?inittmus@@YAXXZ           0000000140162fe0 f   shader.obj
 0001:00162150       ?renderpostfx@@YAXXZ       0000000140163150 f   shader.obj
 0001:00162cf0       ?setupshaders@@YAXXZ       0000000140163cf0 f   shader.obj
 0001:00162f20       ?checkglslsupport@@YA_NXZ  0000000140163f20 f   shader.obj
 0001:00163060       ?colortmu@@YAXHMMMM@Z      0000000140164060 f   shader.obj
 0001:001630f0       ?setupblurkernel@@YAXHMPEAM0@Z 00000001401640f0 f   shader.obj
 0001:00163610       ?setblurshader@@YAXHHHPEAM0I@Z 0000000140164610 f   shader.obj
 0001:00163cc0       ?setlocalparamf@@YAXPEBDHHMMMM@Z 0000000140164cc0 f   shader.obj
 0001:00163d20       ?setenvparamf@@YAXPEBDHHMMMM@Z 0000000140164d20 f   shader.obj
 0001:00163d80       ?setuptmu@@YAXHPEBD0@Z     0000000140164d80 f   shader.obj
 0001:001640d0       ?resettmu@@YAXH@Z          00000001401650d0 f   shader.obj
 0001:00164190       ?useshaderbyname@@YAPEAUShader@@PEBD@Z 0000000140165190 f   shader.obj
 0001:001641e0       ?flushenvparams@Shader@@QEAAXPEAUSlot@@@Z 00000001401651e0 f   shader.obj
 0001:00164330       ?bindprograms@Shader@@QEAAXXZ 0000000140165330 f   shader.obj
 0001:001643b0       ?getshaderparamname@@YAPEBDPEBD@Z 00000001401653b0 f   shader.obj
 0001:001644e0       ?lookupshaderbyname@@YAPEAUShader@@PEBD@Z 00000001401654e0 f   shader.obj
 0001:00164570       ?calcshadowmapbb@@YAXAEBUvec@@MMAEAM111@Z 0000000140165570 f   shadowmap.obj
 0001:001651a0       ?cleanshadowmap@@YAXXZ     00000001401661a0 f   shadowmap.obj
 0001:001652a0       ?var_shadowmapangle@@YAXXZ 00000001401662a0 f   shadowmap.obj
 0001:001652b0       ?setshadowdir@@YAXH@Z      00000001401662b0 f   shadowmap.obj
 0001:00165380       ?var_shadowmapambient@@YAXXZ 0000000140166380 f   shadowmap.obj
 0001:001653d0       ?var_shadowmapprecision@@YAXXZ 00000001401663d0 f   shadowmap.obj
 0001:001653e0       ?var_fpshadowmap@@YAXXZ    00000001401663e0 f   shadowmap.obj
 0001:001653f0       ?var_shadowmapsize@@YAXXZ  00000001401663f0 f   shadowmap.obj
 0001:00165400       ?isshadowmapreceiver@@YA_NPEAUvtxarray@@@Z 0000000140166400 f   shadowmap.obj
 0001:001655e0       ?pushshadowmap@@YAXXZ      00000001401665e0 f   shadowmap.obj
 0001:00165aa0       ?popshadowmap@@YAXXZ       0000000140166aa0 f   shadowmap.obj
 0001:00165b00       ?isshadowmapcaster@@YA_NAEBUvec@@M@Z 0000000140166b00 f   shadowmap.obj
 0001:00165c30       ?addshadowmapcaster@@YA_NAEBUvec@@MM@Z 0000000140166c30 f   shadowmap.obj
 0001:00165cf0       ?rendershadowmap@@YAXXZ    0000000140166cf0 f   shadowmap.obj
 0001:00165d90       ?viewshadowmap@@YAXXZ      0000000140166d90 f   shadowmap.obj
 0001:00165dc0       ?guessshadowdir@@YAXXZ     0000000140166dc0 f   shadowmap.obj
 0001:001679a0       ?mergenormalmaps@@YAXPEAD0@Z 00000001401689a0 f   texture.obj
 0001:00167ef0       ?flipnormalmapy@@YAXPEAD0@Z 0000000140168ef0 f   texture.obj
 0001:00168190       ?screenshot@@YAXPEAD@Z     0000000140169190 f   texture.obj
 0001:00168540       ?saveimage@@YAXPEBDHAEAUImageData@@_N@Z 0000000140169540 f   texture.obj
 0001:001686f0       ?guessimageformat@@YAHPEBDH@Z 00000001401696f0 f   texture.obj
 0001:00168790       ?savetga@@YAXPEBDAEAUImageData@@_N@Z 0000000140169790 f   texture.obj
 0001:00168ae0       ?writepngchunk@@YAXPEAUstream@@PEBDPEAEI@Z 0000000140169ae0 f   texture.obj
 0001:00168c00       ?gendds@@YAXPEAD0@Z        0000000140169c00 f   texture.obj
 0001:001691f0       ?loaddds@@YA_NPEBDAEAUImageData@@@Z 000000014016a1f0 f   texture.obj
 0001:00169420       ?reloadtextures@@YAXXZ     000000014016a420 f   texture.obj
 0001:001695e0       ?reloadtex@@YAXPEAD@Z      000000014016a5e0 f   texture.obj
 0001:00169790       ?reloadtexture@@YA_NPEBD@Z 000000014016a790 f   texture.obj
 0001:00169880       ?cleanuptextures@@YAXXZ    000000014016a880 f   texture.obj
 0001:00169a50       ?cleanuptexture@@YAXPEAUTexture@@@Z 000000014016aa50 f   texture.obj
 0001:00169ac0       ?genenvmap@@YAIAEBUvec@@HH@Z 000000014016aac0 f   texture.obj
 0001:0016a100       ?clearenvmaps@@YAXXZ       000000014016b100 f   texture.obj
 0001:0016a190       ?cubemaploadwildcard@@YAPEAUTexture@@PEAU1@PEBD_N22@Z 000000014016b190 f   texture.obj
 0001:0016abb0       ?var_envmapsize@@YAXXZ     000000014016bbb0 f   texture.obj
 0001:0016abc0       ?forcecubemapload@@YAXI@Z  000000014016bbc0 f   texture.obj
 0001:0016da00       ?texffenv@@YAXPEAH@Z       000000014016ea00 f   texture.obj
 0001:0016da30       ?texcolor@@YAXPEAM00@Z     000000014016ea30 f   texture.obj
 0001:0016dae0       ?texalpha@@YAXPEAM0@Z      000000014016eae0 f   texture.obj
 0001:0016db60       ?texlayer@@YAXPEAHPEAD0PEAM@Z 000000014016eb60 f   texture.obj
 0001:0016dc20       ?texscale@@YAXPEAM@Z       000000014016ec20 f   texture.obj
 0001:0016dc70       ?texrotate_@@YAXPEAH@Z     000000014016ec70 f   texture.obj
 0001:0016dcc0       ?texoffset_@@YAXPEAH0@Z    000000014016ecc0 f   texture.obj
 0001:0016dd20       ?texscroll@@YAXPEAM0@Z     000000014016ed20 f   texture.obj
 0001:0016dd80       ?autograss@@YAXPEAD@Z      000000014016ed80 f   texture.obj
 0001:0016de10       ?texture@@YAXPEAD0PEAH11PEAM@Z 000000014016ee10 f   texture.obj
 0001:0016e0c0       ?findslottex@@YAHPEBD@Z    000000014016f0c0 f   texture.obj
 0001:0016e140       ?run@?$_icmd_fixinsidefaces@$0GIO@@@SAXPEAH@Z 000000014016f140 f   texture.obj
 0001:0016e440       ?findvslot@@YAPEAUVSlot@@AEAUSlot@@AEBU1@1@Z 000000014016f440 f   texture.obj
 0001:0016ef50       ?run@?$_icmd_compactvslots@$0FLK@@@SAXXZ 000000014016ff50 f   texture.obj
 0001:0016f040       ?materialreset@@YAXXZ      0000000140170040 f   texture.obj
 0001:0016f0b0       ?texturereset@@YAXPEAH@Z   00000001401700b0 f   texture.obj
 0001:0016f250       ?settexture@@YA_NPEBDH@Z   0000000140170250 f   texture.obj
 0001:0016ff10       ?loadsurface@@YAPEAUSDL_Surface@@PEBD@Z 0000000140170f10 f   texture.obj
 0001:00170000       ?canloadsurface@@YA_NPEBD@Z 0000000140171000 f   texture.obj
 0001:00170060       ?forcergbimage@@YAXAEAUImageData@@@Z 0000000140171060 f   texture.obj
 0001:00170230       ?scaleimage@@YAXAEAUImageData@@HH@Z 0000000140171230 f   texture.obj
 0001:001703a0       ?texblur@@YAXAEAUImageData@@HH@Z 00000001401713a0 f   texture.obj
 0001:00170540       ?texnormal@@YAXAEAUImageData@@H@Z 0000000140171540 f   texture.obj
 0001:00170830       ?texflip@@YAXAEAUImageData@@@Z 0000000140171830 f   texture.obj
 0001:001709c0       ?fixsurfaceformat@@YAPEAUSDL_Surface@@PEAU1@@Z 00000001401719c0 f   texture.obj
 0001:00170ac0       ?checkgrayscale@@YA_NPEAUSDL_Surface@@@Z 0000000140171ac0 f   texture.obj
 0001:00170b20       ?creatergbasurface@@YAPEAUSDL_Surface@@PEAU1@@Z 0000000140171b20 f   texture.obj
 0001:00170bb0       ?creatergbsurface@@YAPEAUSDL_Surface@@PEAU1@@Z 0000000140171bb0 f   texture.obj
 0001:00170c30       ?wrapsurface@@YAPEAUSDL_Surface@@PEAXHHH@Z 0000000140171c30 f   texture.obj
 0001:00171280       ?createcompressedtexture@@YAXHHHPEAEHHHHHII@Z 0000000140172280 f   texture.obj
 0001:00171370       ?uncompressedformat@@YAII@Z 0000000140172370 f   texture.obj
 0001:001713b0       ?textarget@@YAII@Z         00000001401723b0 f   texture.obj
 0001:001713d0       ?uploadcompressedtexture@@YAXIIIHHPEAEHHH_N@Z 00000001401723d0 f   texture.obj
 0001:00171570       ?uploadtexture@@YAXIIHHIIPEAXHHH_N@Z 0000000140172570 f   texture.obj
 0001:001719c0       ?resizetexture@@YAXHH_N0IHAEAH1@Z 00000001401729c0 f   texture.obj
 0001:00171b50       ?var_usenp2@@YAXXZ         0000000140172b50 f   texture.obj
 0001:00171b80       ?var_hwmipmap@@YAXXZ       0000000140172b80 f   texture.obj
 0001:00171bb0       ?formatsize@@YAHI@Z        0000000140172bb0 f   texture.obj
 0001:00171bf0       ?compressedformat@@YAIIHHH@Z 0000000140172bf0 f   texture.obj
 0001:00171c80       ?var_aniso@@YAXXZ          0000000140172c80 f   texture.obj
 0001:00171cb0       ?var_bilinear@@YAXXZ       0000000140172cb0 f   texture.obj
 0001:00171ce0       ?var_trilinear@@YAXXZ      0000000140172ce0 f   texture.obj
 0001:00171d10       ?var_texcompressquality@@YAXXZ 0000000140172d10 f   texture.obj
 0001:00171d60       ?var_texcompress@@YAXXZ    0000000140172d60 f   texture.obj
 0001:00171d90       ?var_texreduce@@YAXXZ      0000000140172d90 f   texture.obj
 0001:00171dc0       ?var_reducefilter@@YAXXZ   0000000140172dc0 f   texture.obj
 0001:00171df0       ?var_maxtexsize@@YAXXZ     0000000140172df0 f   texture.obj
 0001:00171e20       ?texagrad@@YAXAEAUImageData@@MMMM@Z 0000000140172e20 f   texture.obj
 0001:00171fe0       ?texpremul@@YAXAEAUImageData@@@Z 0000000140172fe0 f   texture.obj
 0001:00172110       ?texgrey@@YAXAEAUImageData@@@Z 0000000140173110 f   texture.obj
 0001:00172330       ?texmix@@YAXAEAUImageData@@HHHH@Z 0000000140173330 f   texture.obj
 0001:00172540       ?texdecal@@YAXAEAUImageData@@@Z 0000000140173540 f   texture.obj
 0001:00172710       ?texdup@@YAXAEAUImageData@@HH@Z 0000000140173710 f   texture.obj
 0001:001727b0       ?texffmask@@YAXAEAUImageData@@MM@Z 00000001401737b0 f   texture.obj
 0001:00172a50       ?texcolormask@@YAXAEAUImageData@@AEBUvec@@1@Z 0000000140173a50 f   texture.obj
 0001:00172d00       ?texcolorify@@YAXAEAUImageData@@AEBUvec@@U2@@Z 0000000140173d00 f   texture.obj
 0001:00172e60       ?texmad@@YAXAEAUImageData@@AEBUvec@@1@Z 0000000140173e60 f   texture.obj
 0001:001730a0       ?texoffset@@YAXAEAUImageData@@HH@Z 00000001401740a0 f   texture.obj
 0001:00173280       ?texrotate@@YAXAEAUImageData@@HH@Z 0000000140174280 f   texture.obj
 0001:001732d0       ?texreorient@@YAXAEAUImageData@@_N11H@Z 00000001401742d0 f   texture.obj
 0001:00176160       ?linkslotshaders@@YAXXZ    0000000140177160 f   texture.obj
 0001:00176390       ?reloadtexture@@YA_NAEAUTexture@@@Z 0000000140177390 f   texture.obj
 0001:00176500       ?cubemapload@@YAPEAUTexture@@PEBD_N11@Z 0000000140177500 f   texture.obj
 0001:001766b0       ?setuptexcompress@@YAXXZ   00000001401776b0 f   texture.obj
 0001:00176700       ?setuptexparameters@@YAXHPEAXHHII@Z 0000000140177700 f   texture.obj
 0001:00176890       ?genenvmaps@@YAXXZ         0000000140177890 f   texture.obj
 0001:00176990       ?closestenvmap@@YAGAEBUvec@@@Z 0000000140177990 f   texture.obj
 0001:00176a70       ?lookupmaterialslot@@YAAEAUMSlot@@H_N@Z 0000000140177a70 f   texture.obj
 0001:00176ad0       ?lookupenvmap@@YAIAEAUSlot@@@Z 0000000140177ad0 f   texture.obj
 0001:00176b40       ?lookupenvmap@@YAIG@Z      0000000140177b40 f   texture.obj
 0001:00176b90       ?loadalphamask@@YAXPEAUTexture@@@Z 0000000140177b90 f   texture.obj
 0001:00176d10       ?compactvslots@@YAHXZ      0000000140177d10 f   texture.obj
 0001:001770e0       ?textureload@@YAPEAUTexture@@PEBDH_N1@Z 00000001401780e0 f   texture.obj
 0001:001772b0       ?clearslots@@YAXXZ         00000001401782b0 f   texture.obj
 0001:00177330       ?closestenvmap@@YAGHHHHH@Z 0000000140178330 f   texture.obj
 0001:001773e0       ?initenvmaps@@YAXXZ        00000001401783e0 f   texture.obj
 0001:00177570       ?compactvslot@@YAXAEAH@Z   0000000140178570 f   texture.obj
 0001:001775c0       ?compactvslots@@YAXPEAUcube@@H@Z 00000001401785c0 f   texture.obj
 0001:00177720       ?mergevslot@@YAXAEAUVSlot@@AEBU1@1@Z 0000000140178720 f   texture.obj
 0001:00177850       ?editvslot@@YAPEAUVSlot@@AEBU1@0@Z 0000000140178850 f   texture.obj
 0001:001778f0       ?lookupslot@@YAAEAUSlot@@H_N@Z 00000001401788f0 f   texture.obj
 0001:00177930       ?loadthumbnail@@YAPEAUTexture@@AEAUSlot@@@Z 0000000140178930 f   texture.obj
 0001:001787c0       ?texalign@@YAHPEAXHH@Z     00000001401797c0 f   texture.obj
 0001:001787f0       ?blurtexture@@YAXHHHHPEAEPEBEH@Z 00000001401797f0 f   texture.obj
 0001:001788d0       ?blurnormals@@YAXHHHPEAUbvec@@PEBU1@H@Z 00000001401798d0 f   texture.obj
 0001:00178950       ?lookupvslot@@YAAEAUVSlot@@H_N@Z 0000000140179950 f   texture.obj
 0001:001789e0       ?loadlayermasks@@YAXXZ     00000001401799e0 f   texture.obj
 0001:00178ac0       ?savepng@@YAXPEBDAEAUImageData@@_N@Z 0000000140179ac0 f   texture.obj
 0001:00178f70       ?createtexture@@YAXHHHPEAXHHIIHHH_NI@Z 0000000140179f70 f   texture.obj
 0001:00179350       ?loadimage@@YA_NPEBDAEAUImageData@@@Z 000000014017a350 f   texture.obj
 0001:0017a300       ?maskreflection@@YAXAEAUReflection@@M_N1@Z 000000014017b300 f   water.obj
 0001:0017a6f0       ?queryreflection@@YAXAEAUReflection@@_N@Z 000000014017b6f0 f   water.obj
 0001:0017ace0       ?addreflection@@YAXAEAUmaterialsurface@@@Z 000000014017bce0 f   water.obj
 0001:0017ae80       ?addwaterfallrefraction@@YAXAEAUmaterialsurface@@@Z 000000014017be80 f   water.obj
 0001:0017af30       ?genwatertex@@YAXAEAI00_N@Z 000000014017bf30 f   water.obj
 0001:0017b340       ?var_reflectsize@@YAXXZ    000000014017c340 f   water.obj
 0001:0017b350       ?cleanreflection@@YAXAEAUReflection@@@Z 000000014017c350 f   water.obj
 0001:0017b3b0       ?var_waterfade@@YAXXZ      000000014017c3b0 f   water.obj
 0001:0017b3d0       ?renderwaterff@@YAXXZ      000000014017c3d0 f   water.obj
 0001:0017bad0       ?cleanupwaterTMUs@@YAX_N@Z 000000014017cad0 f   water.obj
 0001:0017bb70       ?setupreflectTMUs@@YAXXZ   000000014017cb70 f   water.obj
 0001:0017bc30       ?setuprefractTMUs@@YAXXZ   000000014017cc30 f   water.obj
 0001:0017bd20       ?setprojtexmatrix@@YAXAEAUReflection@@_N@Z 000000014017cd20 f   water.obj
 0001:0017bd90       ?var_lava4colour@@YAXXZ    000000014017cd90 f   water.obj
 0001:0017bde0       ?var_lava3colour@@YAXXZ    000000014017cde0 f   water.obj
 0001:0017be30       ?var_lava2colour@@YAXXZ    000000014017ce30 f   water.obj
 0001:0017be80       ?var_lavacolour@@YAXXZ     000000014017ce80 f   water.obj
 0001:0017bed0       ?getwaterspec@@YAHH@Z      000000014017ced0 f   water.obj
 0001:0017bf10       ?var_water4fallcolour@@YAXXZ 000000014017cf10 f   water.obj
 0001:0017bf50       ?var_water4colour@@YAXXZ   000000014017cf50 f   water.obj
 0001:0017bfa0       ?var_water3fallcolour@@YAXXZ 000000014017cfa0 f   water.obj
 0001:0017bfe0       ?var_water3colour@@YAXXZ   000000014017cfe0 f   water.obj
 0001:0017c030       ?var_water2fallcolour@@YAXXZ 000000014017d030 f   water.obj
 0001:0017c070       ?var_water2colour@@YAXXZ   000000014017d070 f   water.obj
 0001:0017c0c0       ?var_waterfallcolour@@YAXXZ 000000014017d0c0 f   water.obj
 0001:0017c100       ?var_watercolour@@YAXXZ    000000014017d100 f   water.obj
 0001:0017c200       ?var_vertwater@@YAXXZ      000000014017d200 f   water.obj
 0001:0017c210       ?renderflatwater@@YAXHHHHHH@Z 000000014017d210 f   water.obj
 0001:0017c700       ?renderwaterlod@@YAHHHHHH@Z 000000014017d700 f   water.obj
 0001:0017c970       ?calcwatersubdiv@@YAHHHHH@Z 000000014017d970 f   water.obj
 0001:0017cab0       ?rendervertwater@@YAXHHHHHH@Z 000000014017dab0 f   water.obj
 0001:0017efd0       ?var_waterfallrefract@@YAXXZ 000000014017ffd0 f   water.obj
 0001:0017eff0       ?var_waterenvmap@@YAXXZ    000000014017fff0 f   water.obj
 0001:0017f010       ?var_waterrefract@@YAXXZ   0000000140180010 f   water.obj
 0001:0017f030       ?var_waterreflect@@YAXXZ   0000000140180030 f   water.obj
 0001:0017f050       ?getlavacolor@@YAAEBUbvec@@H@Z 0000000140180050 f   water.obj
 0001:0017f090       ?getlavafog@@YAHH@Z        0000000140180090 f   water.obj
 0001:0017f0d0       ?renderwater@@YAXXZ        00000001401800d0 f   water.obj
 0001:001807a0       ?queryreflections@@YAXXZ   00000001401817a0 f   water.obj
 0001:00180ca0       ?drawreflections@@YAXXZ    0000000140181ca0 f   water.obj
 0001:00181740       ?preloadwatershaders@@YAX_N@Z 0000000140182740 f   water.obj
 0001:001819b0       ?getwatercolor@@YAAEBUbvec@@H@Z 00000001401829b0 f   water.obj
 0001:001819f0       ?getwaterfallcolor@@YAAEBUbvec@@H@Z 00000001401829f0 f   water.obj
 0001:00181a30       ?getwaterfog@@YAHH@Z       0000000140182a30 f   water.obj
 0001:00181a70       ?renderlava@@YAXAEBUmaterialsurface@@PEAUTexture@@M@Z 0000000140182a70 f   water.obj
 0001:00181ae0       ?setupwaterfallrefract@@YAXII@Z 0000000140182ae0 f   water.obj
 0001:00181bb0       ?cleanreflections@@YAXXZ   0000000140182bb0 f   water.obj
 0001:00182ba0       ?clearsleep_@@YAXPEAH@Z    0000000140183ba0 f   command.obj
 0001:00182bd0       ?addsleep@@YAXPEAHPEAD@Z   0000000140183bd0 f   command.obj
 0001:00182c70       ?run@?$_stdcmd@$0MCP@@@SAXPEAH@Z 0000000140183c70 f   command.obj
 0001:00182ca0       ?strsplice@@YAXPEBD0PEAH1@Z 0000000140183ca0 f   command.obj
 0001:00182dd0       ?run@?$_stdcmd@$0MBO@@@SAXPEAD00@Z 0000000140183dd0 f   command.obj
 0001:00182e00       ?strreplace@@YAPEADPEBD00@Z 0000000140183e00 f   command.obj
 0001:00183180       ?run@?$_stdcmd@$0MAE@@@SAXPEAD@Z 0000000140184180 f   command.obj
 0001:00183220       ?run@?$_stdcmd@$0MAD@@@SAXPEAD@Z 0000000140184220 f   command.obj
 0001:001832c0       ?run@?$_stdcmd@$0LPH@@@SAXPEAH@Z 00000001401842c0 f   command.obj
 0001:00183340       ?run@?$_stdcmd@$0LPG@@@SAXPEADPEAH@Z 0000000140184340 f   command.obj
 0001:001833b0       ?run@?$_stdcmd@$0LPF@@@SAXPEAH@Z 00000001401843b0 f   command.obj
 0001:00183400       ?run@?$_stdcmd@$0LPE@@@SAXPEADPEAH@Z 0000000140184400 f   command.obj
 0001:00183460       ?run@?$_stdcmd@$0LPD@@@SAXPEAD@Z 0000000140184460 f   command.obj
 0001:00183490       ?run@?$_stdcmd@$0LPC@@@SAXPEAD0@Z 0000000140184490 f   command.obj
 0001:001834d0       ?run@?$_stdcmd@$0LPB@@@SAXPEAD@Z 00000001401844d0 f   command.obj
 0001:001834f0       ?run@?$_stdcmd@$0LPA@@@SAXPEAD@Z 00000001401844f0 f   command.obj
 0001:00183510       ?run@?$_stdcmd@$0LOP@@@SAXPEAD0@Z 0000000140184510 f   command.obj
 0001:00183550       ?run@?$_stdcmd@$0LOO@@@SAXPEAD0@Z 0000000140184550 f   command.obj
 0001:00183590       ?run@?$_stdcmd@$0LON@@@SAXPEAD0@Z 0000000140184590 f   command.obj
 0001:001835d0       ?run@?$_stdcmd@$0LOM@@@SAXPEAD0@Z 00000001401845d0 f   command.obj
 0001:00183610       ?run@?$_stdcmd@$0LOL@@@SAXPEAD0@Z 0000000140184610 f   command.obj
 0001:00183650       ?run@?$_stdcmd@$0LOK@@@SAXPEAD0@Z 0000000140184650 f   command.obj
 0001:00183690       ?run@?$_stdcmd@$0LOJ@@@SAXPEAD0@Z 0000000140184690 f   command.obj
 0001:001836d0       ?run@?$_stdcmd@$0LOI@@@SAXPEAH0@Z 00000001401846d0 f   command.obj
 0001:00183720       ?run@?$_stdcmd@$0LOG@@@SAXPEAUtagval@@H@Z 0000000140184720 f   command.obj
 0001:00183830       ?run@?$_stdcmd@$0LOF@@@SAXPEAUtagval@@H@Z 0000000140184830 f   command.obj
 0001:001838e0       ?run@?$_stdcmd@$0LOE@@@SAXPEAUtagval@@H@Z 00000001401848e0 f   command.obj
 0001:001839d0       ?run@?$_stdcmd@$0LNF@@@SAXPEAUtagval@@H@Z 00000001401849d0 f   command.obj
 0001:00183b00       ?run@?$_stdcmd@$0LMB@@@SAXPEAM@Z 0000000140184b00 f   command.obj
 0001:00183b30       ?run@?$_stdcmd@$0LMA@@@SAXPEAH@Z 0000000140184b30 f   command.obj
 0001:00183b50       ?run@?$_stdcmd@$0LLP@@@SAXPEAUtagval@@H@Z 0000000140184b50 f   command.obj
 0001:00183be0       ?run@?$_stdcmd@$0LLJ@@@SAXPEAUtagval@@H@Z 0000000140184be0 f   command.obj
 0001:00183c70       ?run@?$_stdcmd@$0LLD@@@SAXPEAUtagval@@H@Z 0000000140184c70 f   command.obj
 0001:00183d40       ?run@?$_stdcmd@$0LKN@@@SAXPEAUtagval@@H@Z 0000000140184d40 f   command.obj
 0001:00183e10       ?run@?$_stdcmd@$0LKH@@@SAXPEAM@Z 0000000140184e10 f   command.obj
 0001:00183e40       ?run@?$_stdcmd@$0LKG@@@SAXPEAM@Z 0000000140184e40 f   command.obj
 0001:00183e70       ?run@?$_stdcmd@$0LKF@@@SAXPEAM@Z 0000000140184e70 f   command.obj
 0001:00183eb0       ?run@?$_stdcmd@$0LKE@@@SAXPEAM@Z 0000000140184eb0 f   command.obj
 0001:00183ee0       ?run@?$_stdcmd@$0LKD@@@SAXPEAM0@Z 0000000140184ee0 f   command.obj
 0001:00183f10       ?run@?$_stdcmd@$0LKC@@@SAXPEAM@Z 0000000140184f10 f   command.obj
 0001:00183f30       ?run@?$_stdcmd@$0LKB@@@SAXPEAM0@Z 0000000140184f30 f   command.obj
 0001:00183f70       ?run@?$_stdcmd@$0LKA@@@SAXPEAM@Z 0000000140184f70 f   command.obj
 0001:00183fb0       ?run@?$_stdcmd@$0LJP@@@SAXPEAM@Z 0000000140184fb0 f   command.obj
 0001:00183ff0       ?run@?$_stdcmd@$0LJO@@@SAXPEAM@Z 0000000140184ff0 f   command.obj
 0001:00184030       ?run@?$_stdcmd@$0LJN@@@SAXPEAM@Z 0000000140185030 f   command.obj
 0001:00184070       ?run@?$_stdcmd@$0LJM@@@SAXPEAM@Z 0000000140185070 f   command.obj
 0001:001840b0       ?run@?$_stdcmd@$0LJL@@@SAXPEAM@Z 00000001401850b0 f   command.obj
 0001:001840f0       ?run@?$_stdcmd@$0LJK@@@SAXPEAM0@Z 00000001401850f0 f   command.obj
 0001:00184130       ?run@?$_stdcmd@$0LJJ@@@SAXPEAM0@Z 0000000140185130 f   command.obj
 0001:00184160       ?run@?$_stdcmd@$0LJI@@@SAXPEAH0@Z 0000000140185160 f   command.obj
 0001:001841a0       ?run@?$_stdcmd@$0LJH@@@SAXPEAH0@Z 00000001401851a0 f   command.obj
 0001:001841e0       ?run@?$_stdcmd@$0LJF@@@SAXPEAUtagval@@H@Z 00000001401851e0 f   command.obj
 0001:001842e0       ?run@?$_stdcmd@$0LIL@@@SAXPEAUtagval@@H@Z 00000001401852e0 f   command.obj
 0001:001843e0       ?run@?$_stdcmd@$0LIB@@@SAXPEAH0@Z 00000001401853e0 f   command.obj
 0001:00184430       ?run@?$_stdcmd@$0LIA@@@SAXPEAH0@Z 0000000140185430 f   command.obj
 0001:00184460       ?run@?$_stdcmd@$0LHP@@@SAXPEAH0@Z 0000000140185460 f   command.obj
 0001:00184490       ?run@?$_stdcmd@$0LHO@@@SAXPEAH0@Z 0000000140185490 f   command.obj
 0001:001844c0       ?run@?$_stdcmd@$0LHN@@@SAXPEAH0@Z 00000001401854c0 f   command.obj
 0001:001844f0       ?run@?$_stdcmd@$0LHM@@@SAXPEAH@Z 00000001401854f0 f   command.obj
 0001:00184510       ?run@?$_stdcmd@$0LHL@@@SAXPEAH0@Z 0000000140185510 f   command.obj
 0001:00184530       ?run@?$_stdcmd@$0LHK@@@SAXPEAH0@Z 0000000140185530 f   command.obj
 0001:00184550       ?run@?$_stdcmd@$0LHJ@@@SAXPEAUtagval@@@Z 0000000140185550 f   command.obj
 0001:001845b0       ?run@?$_stdcmd@$0LHI@@@SAXPEAH0@Z 00000001401855b0 f   command.obj
 0001:001845d0       ?run@?$_stdcmd@$0LHH@@@SAXPEAM0@Z 00000001401855d0 f   command.obj
 0001:00184600       ?run@?$_stdcmd@$0LHG@@@SAXPEAM0@Z 0000000140185600 f   command.obj
 0001:00184630       ?run@?$_stdcmd@$0LHF@@@SAXPEAM0@Z 0000000140185630 f   command.obj
 0001:00184660       ?run@?$_stdcmd@$0LHE@@@SAXPEAM0@Z 0000000140185660 f   command.obj
 0001:00184690       ?run@?$_stdcmd@$0LHD@@@SAXPEAM0@Z 0000000140185690 f   command.obj
 0001:001846d0       ?run@?$_stdcmd@$0LHC@@@SAXPEAM0@Z 00000001401856d0 f   command.obj
 0001:00184710       ?run@?$_stdcmd@$0LHB@@@SAXPEAH0@Z 0000000140185710 f   command.obj
 0001:00184740       ?run@?$_stdcmd@$0LHA@@@SAXPEAH0@Z 0000000140185740 f   command.obj
 0001:00184770       ?run@?$_stdcmd@$0LGP@@@SAXPEAH0@Z 0000000140185770 f   command.obj
 0001:001847a0       ?run@?$_stdcmd@$0LGO@@@SAXPEAH0@Z 00000001401857a0 f   command.obj
 0001:001847d0       ?run@?$_stdcmd@$0LGN@@@SAXPEAH0@Z 00000001401857d0 f   command.obj
 0001:00184800       ?run@?$_stdcmd@$0LGM@@@SAXPEAH0@Z 0000000140185800 f   command.obj
 0001:00184830       ?run@?$_stdcmd@$0LGL@@@SAXPEAM0@Z 0000000140185830 f   command.obj
 0001:00184860       ?run@?$_stdcmd@$0LGK@@@SAXPEAM0@Z 0000000140185860 f   command.obj
 0001:00184890       ?run@?$_stdcmd@$0LGJ@@@SAXPEAM0@Z 0000000140185890 f   command.obj
 0001:001848c0       ?run@?$_stdcmd@$0LGI@@@SAXPEAH0@Z 00000001401858c0 f   command.obj
 0001:001848e0       ?run@?$_stdcmd@$0LGH@@@SAXPEAH0@Z 00000001401858e0 f   command.obj
 0001:00184900       ?run@?$_stdcmd@$0LGG@@@SAXPEAH0@Z 0000000140185900 f   command.obj
 0001:00184920       ?sortlist@@YAXPEADPEAUident@@1PEAI@Z 0000000140185920 f   command.obj
 0001:00184cf0       ?findfile_@@YAXPEAD@Z      0000000140185cf0 f   command.obj
 0001:00184db0       ?run@?$_stdcmd@$0LAP@@@SAXPEAUident@@PEAD1PEAI@Z 0000000140185db0 f   command.obj
 0001:00185030       ?listsplice@@YAXPEBD0PEAH1@Z 0000000140186030 f   command.obj
 0001:00185540       ?run@?$_stdcmd@$0KNC@@@SAXPEAD0@Z 0000000140186540 f   command.obj
 0001:00185570       ?listdel@@YAPEADPEBD0@Z    0000000140186570 f   command.obj
 0001:00185810       ?run@?$_stdcmd@$0KMC@@@SAXPEAD0@Z 0000000140186810 f   command.obj
 0001:00185850       ?listincludes@@YAHPEBD0H@Z 0000000140186850 f   command.obj
 0001:00185c20       ?prettylist@@YAXPEBD0@Z    0000000140186c20 f   command.obj
 0001:001860f0       ?listfilter@@YAXPEAUident@@PEBDPEBI@Z 00000001401870f0 f   command.obj
 0001:00186470       ?run@?$_stdcmd@$0KIH@@@SAXPEAUident@@PEADPEAI@Z 0000000140187470 f   command.obj
 0001:00186480       ?run@?$_stdcmd@$0KIG@@@SAXPEAUident@@PEADPEAI@Z 0000000140187480 f   command.obj
 0001:00186490       ?looplistconc@@YAXPEAUident@@PEBDPEBI_N@Z 0000000140187490 f   command.obj
 0001:00186890       ?looplist@@YAXPEAUident@@PEBDPEBI@Z 0000000140187890 f   command.obj
 0001:001869e0       ?listfind@@YAXPEAUident@@PEBDPEBI@Z 00000001401879e0 f   command.obj
 0001:00186c50       ?run@?$_stdcmd@$0KDJ@@@SAXPEAD@Z 0000000140187c50 f   command.obj
 0001:00186d00       ?sublist@@YAXPEBDPEAH11@Z  0000000140187d00 f   command.obj
 0001:00186f20       ?substr@@YAXPEADPEAH11@Z   0000000140187f20 f   command.obj
 0001:00186f90       ?at@@YAXPEAUtagval@@H@Z    0000000140187f90 f   command.obj
 0001:00187180       ?run@?$_stdcmd@$0KBA@@@SAXPEAD@Z 0000000140188180 f   command.obj
 0001:001871b0       ?listlen@@YAHPEBD@Z        00000001401881b0 f   command.obj
 0001:00187560       ?indexlist@@YAPEADPEBDH@Z  0000000140188560 f   command.obj
 0001:00187a40       ?format@@YAXPEAUtagval@@H@Z 0000000140188a40 f   command.obj
 0001:00187df0       ?run@?$_stdcmd@$0JLC@@@SAXPEAUtagval@@@Z 0000000140188df0 f   command.obj
 0001:00187e10       ?result@@YAXAEAUtagval@@@Z 0000000140188e10 f   command.obj
 0001:00187e30       ?concatword@@YAXPEAUtagval@@H@Z 0000000140188e30 f   command.obj
 0001:00187e70       ?concat@@YAXPEAUtagval@@H@Z 0000000140188e70 f   command.obj
 0001:00187eb0       ?run@?$_stdcmd@$0JJA@@@SAXPEAUident@@PEAHPEAI@Z 0000000140188eb0 f   command.obj
 0001:00187ef0       ?run@?$_stdcmd@$0JIL@@@SAXPEAUident@@PEAHPEAI@Z 0000000140188ef0 f   command.obj
 0001:00187f30       ?loopconc@@YAPEADPEAUident@@HPEAI_N@Z 0000000140188f30 f   command.obj
 0001:001882d0       ?run@?$_stdcmd@$0JHC@@@SAXPEAI0@Z 00000001401892d0 f   command.obj
 0001:00188320       ?run@?$_stdcmd@$0JHB@@@SAXPEAUident@@PEAHPEAI2@Z 0000000140189320 f   command.obj
 0001:001883c0       ?run@?$_stdcmd@$0JGF@@@SAXPEAUident@@PEAHPEAI@Z 00000001401893c0 f   command.obj
 0001:00188520       ?run@?$_stdcmd@$0JDB@@@SAXPEAUident@@PEAUtagval@@PEAI@Z 0000000140189520 f   command.obj
 0001:00188630       ?run@?$_stdcmd@$0JCD@@@SAXPEAUtagval@@00@Z 0000000140189630 f   command.obj
 0001:001886b0       ?run@?$_stdcmd@$0JCC@@@SAXPEAUtagval@@PEAI1@Z 00000001401896b0 f   command.obj
 0001:00188720       ?run@?$_stdcmd@$0JCB@@@SAXPEAI@Z 0000000140189720 f   command.obj
 0001:00188740       ?writecfg@@YAXPEBD@Z       0000000140189740 f   command.obj
 0001:00188c70       ?validateblock@@YA_NPEBD@Z 0000000140189c70 f   command.obj
 0001:00188e10       ?run@?$_icmd_unescape@$0ILE@@@SAXPEAD@Z 0000000140189e10 f   command.obj
 0001:00188ed0       ?run@?$_icmd_escape@$0IKN@@@SAXPEAD@Z 0000000140189ed0 f   command.obj
 0001:00188f00       ?run@?$_icmd_exec@$0IJG@@@SAXPEADPEAH@Z 0000000140189f00 f   command.obj
 0001:00189040       ?executeret@@YAXPEBDAEAUtagval@@@Z 000000014018a040 f   command.obj
 0001:001892a0       ?executeret@@YAXPEBIAEAUtagval@@@Z 000000014018a2a0 f   command.obj
 0001:0018d780       ?printvar@@YAXPEAUident@@@Z 000000014018e780 f   command.obj
 0001:0018d820       ?printsvar@@YAXPEAUident@@PEBD@Z 000000014018e820 f   command.obj
 0001:0018d870       ?printfvar@@YAXPEAUident@@M@Z 000000014018e870 f   command.obj
 0001:0018d8a0       ?printvar@@YAXPEAUident@@H@Z 000000014018e8a0 f   command.obj
 0001:0018d930       ?freecode@@YAXPEAI@Z       000000014018e930 f   command.obj
 0001:0018d9b0       ?compilecode@@YAPEAIPEBD@Z 000000014018e9b0 f   command.obj
 0001:00191310       ?unescapestring@@YAHPEADPEBD1@Z 0000000140192310 f   command.obj
 0001:00191370       ?parsestring@@YAPEBDPEBD@Z 0000000140192370 f   command.obj
 0001:001913c0       ?addkeyword@@YA_NHPEBD@Z   00000001401923c0 f   command.obj
 0001:00191410       ?setsvarchecked@@YAXPEAUident@@PEBD@Z 0000000140192410 f   command.obj
 0001:00191510       ?setfvarchecked@@YAXPEAUident@@M@Z 0000000140192510 f   command.obj
 0001:00191610       ?clampfvar@@YAMPEAUident@@MMM@Z 0000000140192610 f   command.obj
 0001:001916a0       ?setvarchecked@@YAXPEAUident@@H@Z 00000001401926a0 f   command.obj
 0001:001917a0       ?clampvar@@YAHPEAUident@@HHH@Z 00000001401927a0 f   command.obj
 0001:00191820       ?run@?$_icmd_getalias@$0CFI@@@SAXPEAD@Z 0000000140192820 f   command.obj
 0001:00191850       ?getalias@@YAPEBDPEBD@Z    0000000140192850 f   command.obj
 0001:001918e0       ?run@?$_icmd_getfvarmax@$0CEA@@@SAXPEAD@Z 00000001401928e0 f   command.obj
 0001:00191930       ?run@?$_icmd_getfvarmin@$0CDP@@@SAXPEAD@Z 0000000140192930 f   command.obj
 0001:00191980       ?run@?$_icmd_getvarmax@$0CDO@@@SAXPEAD@Z 0000000140192980 f   command.obj
 0001:001919c0       ?run@?$_icmd_getvarmin@$0CDN@@@SAXPEAD@Z 00000001401929c0 f   command.obj
 0001:00191a00       ?getfvarmax@@YAMPEBD@Z     0000000140192a00 f   command.obj
 0001:00191a40       ?getfvarmin@@YAMPEBD@Z     0000000140192a40 f   command.obj
 0001:00191a80       ?getvarmax@@YAHPEBD@Z      0000000140192a80 f   command.obj
 0001:00191ac0       ?getvarmin@@YAHPEBD@Z      0000000140192ac0 f   command.obj
 0001:00191b00       ?run@?$_icmd_alias@$0BOB@@@SAXPEBDPEAUtagval@@@Z 0000000140192b00 f   command.obj
 0001:00191b30       ?alias@@YAXPEBD0@Z         0000000140192b30 f   command.obj
 0001:00191e30       ?resetvar@@YAXPEAD@Z       0000000140192e30 f   command.obj
 0001:00191e80       ?readident@@YAPEAUident@@PEBD@Z 0000000140192e80 f   command.obj
 0001:00191ec0       ?writeident@@YAPEAUident@@PEBDH@Z 0000000140192ec0 f   command.obj
 0001:00191f90       ?newident@@YAPEAUident@@PEBDH@Z 0000000140192f90 f   command.obj
 0001:00192160       ?run@?$_icmd_push@$0BFH@@@SAXPEAUident@@PEAUtagval@@PEAI@Z 0000000140193160 f   command.obj
 0001:00192310       ?run@?$_icmd_nodebug@$0BDD@@@SAXPEAI@Z 0000000140193310 f   command.obj
 0001:00192aa0       ?clearoverride@@YAXAEAUident@@@Z 0000000140193aa0 f   command.obj
 0001:00192b50       ?clear_command@@YAXXZ      0000000140193b50 f   command.obj
 0001:00193040       ?stringret@@YAXPEAD@Z      0000000140194040 f   command.obj
 0001:00193060       ?explodelist@@YAXPEBDAEAU?$vector@PEAD@@H@Z 0000000140194060 f   command.obj
 0001:00193150       ?floatret@@YAXM@Z          0000000140194150 f   command.obj
 0001:00193170       ?floatstr@@YAPEBDM@Z       0000000140194170 f   command.obj
 0001:00193200       ?executestr@@YAPEADPEBD@Z  0000000140194200 f   command.obj
 0001:00193220       ?identexists@@YA_NPEBD@Z   0000000140194220 f   command.obj
 0001:00193250       ?intstr@@YAPEBDH@Z         0000000140194250 f   command.obj
 0001:001932c0       ?escapestring@@YAPEBDPEBD@Z 00000001401942c0 f   command.obj
 0001:001934d0       ?escapeid@@YAPEBDPEBD@Z    00000001401944d0 f   command.obj
 0001:00193510       ?checksleep@@YAXH@Z        0000000140194510 f   command.obj
 0001:00193650       ?setsvar@@YAXPEBD0_N@Z     0000000140194650 f   command.obj
 0001:00193720       ?getident@@YAPEAUident@@PEBD@Z 0000000140194720 f   command.obj
 0001:00193740       ?setfvar@@YAXPEBDM_N1@Z    0000000140194740 f   command.obj
 0001:00193810       ?svariable@@YAPEADPEBD0PEAPEADP6AXXZH@Z 0000000140194810 f   command.obj
 0001:00193860       ?executebool@@YA_NPEBI@Z   0000000140194860 f   command.obj
 0001:00193920       ?execute@@YAHPEBI@Z        0000000140194920 f   command.obj
 0001:001939c0       ?clearoverrides@@YAXXZ     00000001401949c0 f   command.obj
 0001:00193b20       ?clearsleep@@YAX_N@Z       0000000140194b20 f   command.obj
 0001:00193bd0       ?setvar@@YAXPEBDH_N1@Z     0000000140194bd0 f   command.obj
 0001:00193ca0       ?execute@@YAHPEBD@Z        0000000140194ca0 f   command.obj
 0001:00193f60       ?fvariable@@YAMPEBDMMMPEAMP6AXXZH@Z 0000000140194f60 f   command.obj
 0001:00193fe0       ?execfile@@YA_NPEBD_N@Z    0000000140194fe0 f   command.obj
 0001:001940c0       ?variable@@YAHPEBDHHHPEAHP6AXXZH@Z 00000001401950c0 f   command.obj
 0001:00194130       ?result@@YAXPEBD@Z         0000000140195130 f   command.obj
 0001:00194160       ?intret@@YAXH@Z            0000000140195160 f   command.obj
 0001:00194180       ?addcommand@@YA_NPEBDP6AXXZ0@Z 0000000140195180 f   command.obj
 0001:00194c00       ?complete@@YAXPEADPEBD@Z   0000000140195c00 f   console.obj
 0001:00195050       ?addlistcomplete@@YAXPEAD0@Z 0000000140196050 f   console.obj
 0001:00195070       ?addfilecomplete@@YAXPEAD00@Z 0000000140196070 f   console.obj
 0001:00195090       ?addcomplete@@YAXPEADH00@Z 0000000140196090 f   console.obj
 0001:001953c0       ?resetcomplete@@YAXXZ      00000001401963c0 f   console.obj
 0001:001954c0       ?clear_console@@YAXXZ      00000001401964c0 f   console.obj
 0001:001954d0       ?keypress@@YAXH_NH@Z       00000001401964d0 f   console.obj
 0001:00195590       ?consolekey@@YAXH_NH@Z     0000000140196590 f   console.obj
 0001:00195c40       ?execbind@@YAXAEAUkeym@@_N@Z 0000000140196c40 f   console.obj
 0001:00195db0       ?onrelease@@YAXPEBD@Z      0000000140196db0 f   console.obj
 0001:00195dd0       ?history_@@YAXPEAH@Z       0000000140196dd0 f   console.obj
 0001:00195e20       ?pasteconsole@@YAXXZ       0000000140196e20 f   console.obj
 0001:00195f90       ?run@?$_icmd_saycommand@$0BBE@@@SAXPEAD@Z 0000000140196f90 f   console.obj
 0001:001960a0       ?inputcommand@@YAXPEAD000@Z 00000001401970a0 f   console.obj
 0001:00196240       ?run@?$_icmd_searcheditbinds@$0PN@@@SAXPEAD@Z 0000000140197240 f   console.obj
 0001:00196250       ?run@?$_icmd_searchspecbinds@$0PM@@@SAXPEAD@Z 0000000140197250 f   console.obj
 0001:00196260       ?run@?$_icmd_searchbinds@$0PL@@@SAXPEAD@Z 0000000140197260 f   console.obj
 0001:00196270       ?run@?$_icmd_geteditbind@$0PK@@@SAXPEAD@Z 0000000140197270 f   console.obj
 0001:001962b0       ?run@?$_icmd_getspecbind@$0PJ@@@SAXPEAD@Z 00000001401972b0 f   console.obj
 0001:001962f0       ?run@?$_icmd_getbind@$0PI@@@SAXPEAD@Z 00000001401972f0 f   console.obj
 0001:00196330       ?run@?$_icmd_editbind@$0PH@@@SAXPEAD0@Z 0000000140197330 f   console.obj
 0001:00196370       ?run@?$_icmd_specbind@$0PG@@@SAXPEAD0@Z 0000000140197370 f   console.obj
 0001:001963b0       ?run@?$_icmd_bind@$0PF@@@SAXPEAD0@Z 00000001401973b0 f   console.obj
 0001:001963f0       ?bindkey@@YAXPEAD0HPEBD@Z  00000001401973f0 f   console.obj
 0001:001964d0       ?getbind@@YAXPEADH@Z       00000001401974d0 f   console.obj
 0001:00196520       ?findbind@@YAPEAUkeym@@PEAD@Z 0000000140197520 f   console.obj
 0001:001965c0       ?searchbinds@@YAXPEADH@Z   00000001401975c0 f   console.obj
 0001:00196930       ?keymap@@YAXPEAHPEAD@Z     0000000140197930 f   console.obj
 0001:001969f0       ?drawconlines@@YAHHHHHHHHH@Z 00000001401979f0 f   console.obj
 0001:00196d00       ?run@?$_icmd_clearconsole@$0GD@@@SAXXZ 0000000140197d00 f   console.obj
 0001:00196d80       ?run@?$_icmd_miniconskip@$0GB@@@SAXPEAH@Z 0000000140197d80 f   console.obj
 0001:00196da0       ?run@?$_icmd_conskip@$0GA@@@SAXPEAH@Z 0000000140197da0 f   console.obj
 0001:00196dd0       ?setconskip@@YAXAEAHHH@Z   0000000140197dd0 f   console.obj
 0001:00196e80       ?run@?$_icmd_toggleconsole@$0DG@@@SAXXZ 0000000140197e80 f   console.obj
 0001:00196e90       ?conline@@YAXHPEBD@Z       0000000140197e90 f   console.obj
 0001:00196fc0       ?var_maxcon@@YAXXZ         0000000140197fc0 f   console.obj
 0001:00197050       ?conoutfv@@YAXHPEBDPEAD@Z  0000000140198050 f   console.obj
 0001:001970a0       ?addreleaseaction@@YAPEBDPEAD@Z 00000001401980a0 f   console.obj
 0001:00197120       ?writebinds@@YAXPEAUstream@@@Z 0000000140198120 f   console.obj
 0001:00197390       ?writecompletions@@YAXPEAUstream@@@Z 0000000140198390 f   console.obj
 0001:001977b0       ?rendercommand@@YAHHHH@Z   00000001401987b0 f   console.obj
 0001:00197930       ?renderconsole@@YAHHHH@Z   0000000140198930 f   console.obj
 0001:00197b30       ?getkeyname@@YAPEBDH@Z     0000000140198b30 f   console.obj
 0001:00197b80       ?conoutf@@YAXPEBDZZ        0000000140198b80 f   console.obj
 0001:00197be0       ?conoutf@@YAXHPEBDZZ       0000000140198be0 f   console.obj
 0001:00197e10       ?getclockmillis@@YAHXZ     0000000140198e10 f   main.obj
 0001:00197e70       ?var_clockfix@@YAXXZ       0000000140198e70 f   main.obj
 0001:00197ea0       ?var_clockerror@@YAXXZ     0000000140198ea0 f   main.obj
 0001:00197f70       ?getfps_@@YAXPEAH@Z        0000000140198f70 f   main.obj
 0001:00198010       ?updatefpshistory@@YAXH@Z  0000000140199010 f   main.obj
 0001:00198060       ?resetfpshistory@@YAXXZ    0000000140199060 f   main.obj
 0001:001980d0       ?stackdumper@@YAXIPEAU_EXCEPTION_POINTERS@@@Z 00000001401990d0 f   main.obj
 0001:001983d0       ?limitfps@@YAXAEAHH@Z      00000001401993d0 f   main.obj
 0001:00198490       ?swapbuffers@@YAX_N@Z      0000000140199490 f   main.obj
 0001:001984c0       ?checkinput@@YAXXZ         00000001401994c0 f   main.obj
 0001:001988e0       ?pushevent@@YAXAEBTSDL_Event@@@Z 00000001401998e0 f   main.obj
 0001:001988f0       ?resetgl@@YAXXZ            00000001401998f0 f   main.obj
 0001:00198ac0       ?setupscreen@@YAXAEAH00@Z  0000000140199ac0 f   main.obj
 0001:00199210       ?cleargamma@@YAXXZ         000000014019a210 f   main.obj
 0001:00199240       ?restoregamma@@YAXXZ       000000014019a240 f   main.obj
 0001:001992a0       ?var_gamma@@YAXXZ          000000014019a2a0 f   main.obj
 0001:00199310       ?screenres@@YAXPEAH0@Z     000000014019a310 f   main.obj
 0001:00199370       ?var_fullscreen@@YAXXZ     000000014019a370 f   main.obj
 0001:001993b0       ?setfullscreen@@YAX_N@Z    000000014019a3b0 f   main.obj
 0001:001993f0       ?inputgrab@@YAX_N@Z        000000014019a3f0 f   main.obj
 0001:00199430       ?restorebackground@@YAXXZ  000000014019a430 f   main.obj
 0001:00199570       ?var_vsync@@YAXXZ          000000014019a570 f   main.obj
 0001:001995a0       ?var_fsaa@@YAXXZ           000000014019a5a0 f   main.obj
 0001:001995d0       ?var_stencilbits@@YAXXZ    000000014019a5d0 f   main.obj
 0001:00199600       ?var_depthbits@@YAXXZ      000000014019a600 f   main.obj
 0001:00199630       ?var_colorbits@@YAXXZ      000000014019a630 f   main.obj
 0001:00199660       ?var_scr_h@@YAXXZ          000000014019a660 f   main.obj
 0001:00199690       ?var_scr_w@@YAXXZ          000000014019a690 f   main.obj
 0001:001996c0       ?quit@@YAXXZ               000000014019a6c0 f   main.obj
 0001:00199750       ?cleanup@@YAXXZ            000000014019a750 f   main.obj
 0001:00199830       ?writeinitcfg@@YAXXZ       000000014019a830 f   main.obj
 0001:00199a00       ?initwarning@@YA_NPEBDHH@Z 000000014019aa00 f   main.obj
 0001:00199a30       ?getfps@@YAXAEAH00@Z       000000014019aa30 f   main.obj
 0001:00199ac0       SDL_main                   000000014019aac0 f   main.obj
 0001:0019a6d0       ?keyrepeat@@YAX_N@Z        000000014019b6d0 f   main.obj
 0001:0019a6f0       ?interceptkey@@YA_NH@Z     000000014019b6f0 f   main.obj
 0001:0019a820       ?renderprogress@@YAXMPEBDI_N@Z 000000014019b820 f   main.obj
 0001:0019b1e0       ?renderbackground@@YAXPEBDPEAUTexture@@00_N2@Z 000000014019c1e0 f   main.obj
 0001:0019c490       ?fatal@@YAXPEBDZZ          000000014019d490 f   main.obj
 0001:0019c7f0       ?guimodelpreview@@YAXPEAD00PEAMPEAH@Z 000000014019d7f0 f   menus.obj
 0001:0019ca30       ?guiplayerpreview@@YAXPEAH00PEADPEAM0@Z 000000014019da30 f   menus.obj
 0001:0019cad0       ?run@?$_icmd_cleargui@$0CED@@@SAXPEAH@Z 000000014019dad0 f   menus.obj
 0001:0019cb00       ?notifywelcome@@YAXXZ      000000014019db00 f   menus.obj
 0001:0019cb50       ?guiservers@@YAXPEAIPEAH1@Z 000000014019db50 f   menus.obj
 0001:0019cc10       ?newgui@@YAXPEAD000@Z      000000014019dc10 f   menus.obj
 0001:0019cd30       ?guialign@@YAXPEAHPEAI@Z   000000014019dd30 f   menus.obj
 0001:0019cdb0       ?guilist@@YAXPEAI@Z        000000014019ddb0 f   menus.obj
 0001:0019ce00       ?guikeyfield@@YAXPEADPEAH0@Z 000000014019de00 f   menus.obj
 0001:0019ce90       ?guieditor@@YAXPEADPEAH11@Z 000000014019de90 f   menus.obj
 0001:0019cf00       ?guifield@@YAXPEADPEAH0@Z  000000014019df00 f   menus.obj
 0001:0019cf90       ?guibitfield@@YAXPEAD0PEAH0@Z 000000014019df90 f   menus.obj
 0001:0019d040       ?guiradio@@YAXPEAD0PEAM0@Z 000000014019e040 f   menus.obj
 0001:0019d0e0       ?guicheckbox@@YAXPEAD0PEAM10@Z 000000014019e0e0 f   menus.obj
 0001:0019d1a0       ?guinameslider@@YAXPEAD000@Z 000000014019e1a0 f   menus.obj
 0001:0019d400       ?guilistslider@@YAXPEAD00@Z 000000014019e400 f   menus.obj
 0001:0019d690       ?guislider@@YAXPEADPEAH10@Z 000000014019e690 f   menus.obj
 0001:0019d9c0       ?guicolumn@@YAXPEAH@Z      000000014019e9c0 f   menus.obj
 0001:0019d9f0       ?guispring@@YAXPEAH@Z      000000014019e9f0 f   menus.obj
 0001:0019da20       ?guistrut@@YAXPEAMPEAH@Z   000000014019ea20 f   menus.obj
 0001:0019da60       ?guibar@@YAXXZ             000000014019ea60 f   menus.obj
 0001:0019da80       ?guitab@@YAXPEAD@Z         000000014019ea80 f   menus.obj
 0001:0019dab0       ?guititle@@YAXPEAD@Z       000000014019eab0 f   menus.obj
 0001:0019dae0       ?guitext@@YAXPEAD0@Z       000000014019eae0 f   menus.obj
 0001:0019db60       ?guitextbox@@YAXPEADPEAH11@Z 000000014019eb60 f   menus.obj
 0001:0019dbc0       ?guicolor@@YAXPEAH@Z       000000014019ebc0 f   menus.obj
 0001:0019dc20       ?guiimage@@YAXPEAD0PEAMPEAH0@Z 000000014019ec20 f   menus.obj
 0001:0019dd50       ?guibutton@@YAXPEAD00@Z    000000014019ed50 f   menus.obj
 0001:0019de80       ?guimerge@@YAXPEAI@Z       000000014019ee80 f   menus.obj
 0001:0019dee0       ?guinoautotab@@YAXPEAI@Z   000000014019eee0 f   menus.obj
 0001:0019df30       ?guistayopen@@YAXPEAI@Z    000000014019ef30 f   menus.obj
 0001:0019df60       ?guionclear@@YAXPEAD@Z     000000014019ef60 f   menus.obj
 0001:0019dfc0       ?clearguis@@YAXH@Z         000000014019efc0 f   menus.obj
 0001:0019e0a0       ?hidegui@@YAXPEBD@Z        000000014019f0a0 f   menus.obj
 0001:0019e0d0       ?showgui@@YAXPEBD@Z        000000014019f0d0 f   menus.obj
 0001:0019e140       ?restoregui@@YAXH@Z        000000014019f140 f   menus.obj
 0001:0019e1b0       ?pushgui@@YAXPEAUmenu@@H@Z 000000014019f1b0 f   menus.obj
 0001:0019e340       ?removegui@@YAXPEAUmenu@@@Z 000000014019f340 f   menus.obj
 0001:0019e3c0       ?popgui@@YAXXZ             000000014019f3c0 f   menus.obj
 0001:0019e3f0       ?addchange@@YAXPEBDH@Z     000000014019f3f0 f   menus.obj
 0001:0019e520       ?clearchanges@@YAXH@Z      000000014019f520 f   menus.obj
 0001:0019e680       ?menuprocess@@YAXXZ        000000014019f680 f   menus.obj
 0001:0019e7e0       ?cleargui@@YAHH@Z          000000014019f7e0 f   menus.obj
 0001:0019e8e0       ?g3d_mainmenu@@YAXXZ       000000014019f8e0 f   menus.obj
 0001:0019e9c0       ?clearmainmenu@@YAXXZ      000000014019f9c0 f   menus.obj
 0001:0019ea00       ?menuinfrontofplayer@@YA?AUvec@@XZ 000000014019fa00 f   menus.obj
 0001:0019eb40       ?run@?$_icmd_movierecording@$0EKH@@@SAXXZ 000000014019fb40 f   movie.obj
 0001:0019eb70       ?movie@@YAXPEAD@Z          000000014019fb70 f   movie.obj
 0001:0019ebe0       ?drawhud@recorder@@YAXXZ   000000014019fbe0 f   movie.obj
 0001:0019ee40       ?readbuffer@recorder@@YA_NXZ 000000014019fe40 f   movie.obj
 0001:0019ef90       ?readbuffer@recorder@@YAXAEAUvideobuffer@1@I@Z 000000014019ff90 f   movie.obj
 0001:0019fe70       ?drawquad@recorder@@YAXMMMMMM@Z 00000001401a0e70 f   movie.obj
 0001:0019ff60       ?start@recorder@@YAXPEBDHHH_N@Z 00000001401a0f60 f   movie.obj
 0001:001a0360       ?soundencoder@recorder@@YAXPEAXPEAEH@Z 00000001401a1360 f   movie.obj
 0001:001a04c0       ?videoencoder@recorder@@YAHPEAX@Z 00000001401a14c0 f   movie.obj
 0001:001a07d0       ?gettime@recorder@@YAHXZ   00000001401a17d0 f   movie.obj
 0001:001a0840       ?calcquality@recorder@@YAMXZ 00000001401a1840 f   movie.obj
 0001:001a0880       ?isrecording@recorder@@YA_NXZ 00000001401a1880 f   movie.obj
 0001:001a08a0       ?stop@recorder@@YAXXZ      00000001401a18a0 f   movie.obj
 0001:001a0a40       ?cleanup@recorder@@YAXXZ   00000001401a1a40 f   movie.obj
 0001:001a0af0       ?capture@recorder@@YAX_N@Z 00000001401a1af0 f   movie.obj
 0001:001a0c30       ?updatemumble@@YAXXZ       00000001401a1c30 f   sound.obj
 0001:001a0e70       ?closemumble@@YAXXZ        00000001401a1e70 f   sound.obj
 0001:001a0ec0       ?var_mumble@@YAXXZ         00000001401a1ec0 f   sound.obj
 0001:001a0f20       ?resetsound@@YAXXZ         00000001401a1f20 f   sound.obj
 0001:001a11b0       ?sound@@YAXPEAH@Z          00000001401a21b0 f   sound.obj
 0001:001a11f0       ?stopsound@@YA_NHHH@Z      00000001401a21f0 f   sound.obj
 0001:001a1330       ?run@?$_icmd_playsoundfile@$0CFJ@@@SAXPEADPEAH@Z 00000001401a2330 f   sound.obj
 0001:001a1340       ?playsoundfile@@YAHPEADPEAH@Z 00000001401a2340 f   sound.obj
 0001:001a13f0       ?playsound@@YAHHPEBUvec@@PEAUextentity@@HHHHHH@Z 00000001401a23f0 f   sound.obj
 0001:001a19b0       ?preloadmapsound@@YAXH@Z   00000001401a29b0 f   sound.obj
 0001:001a1a30       ?preloadsound@@YAXH@Z      00000001401a2a30 f   sound.obj
 0001:001a1d50       ?updatechannel@@YA_NAEAUsoundchannel@@@Z 00000001401a2d50 f   sound.obj
 0001:001a1fd0       ?checkmapsounds@@YAXXZ     00000001401a2fd0 f   sound.obj
 0001:001a20e0       ?stopmapsound@@YAXPEAUextentity@@@Z 00000001401a30e0 f   sound.obj
 0001:001a2170       ?stopmapsounds@@YAXXZ      00000001401a3170 f   sound.obj
 0001:001a2200       ?resetchannels@@YAXXZ      00000001401a3200 f   sound.obj
 0001:001a2270       ?altmapsound@@YAXPEADPEAH@Z 00000001401a3270 f   sound.obj
 0001:001a22b0       ?altsound@@YAXPEADPEAH@Z   00000001401a32b0 f   sound.obj
 0001:001a22f0       ?mapsound@@YAXPEADPEAH1@Z  00000001401a32f0 f   sound.obj
 0001:001a2450       ?registersound@@YAXPEADPEAH@Z 00000001401a3450 f   sound.obj
 0001:001a2830       ?startmusic@@YAXPEAD0@Z    00000001401a3830 f   sound.obj
 0001:001a29a0       ?loadmusic@@YAPEAU_Mix_Music@@PEBD@Z 00000001401a39a0 f   sound.obj
 0001:001a2ab0       ?musicdone@@YAXXZ          00000001401a3ab0 f   sound.obj
 0001:001a2b70       ?var_soundbufferlen@@YAXXZ 00000001401a3b70 f   sound.obj
 0001:001a2ba0       ?var_soundfreq@@YAXXZ      00000001401a3ba0 f   sound.obj
 0001:001a2bd0       ?var_soundchans@@YAXXZ     00000001401a3bd0 f   sound.obj
 0001:001a2c00       ?stopmusic@@YAXXZ          00000001401a3c00 f   sound.obj
 0001:001a2cc0       ?setmusicvol@@YAXH@Z       00000001401a3cc0 f   sound.obj
 0001:001a2d00       ?var_musicvol@@YAXXZ       00000001401a3d00 f   sound.obj
 0001:001a2d50       ?var_soundvol@@YAXXZ       00000001401a3d50 f   sound.obj
 0001:001a2d90       ?stopchannels@@YAXXZ       00000001401a3d90 f   sound.obj
 0001:001a2e20       ?syncchannel@@YAXAEAUsoundchannel@@@Z 00000001401a3e20 f   sound.obj
 0001:001a2e70       ?freechannel@@YAXH@Z       00000001401a3e70 f   sound.obj
 0001:001a2eb0       ?newchannel@@YAAEAUsoundchannel@@HPEAUsoundslot@@PEBUvec@@PEAUextentity@@HH@Z 00000001401a3eb0 f   sound.obj
 0001:001a3050       ?stopsounds@@YAXXZ         00000001401a4050 f   sound.obj
 0001:001a30e0       ?initsound@@YAXXZ          00000001401a40e0 f   sound.obj
 0001:001a3170       ?initmumble@@YAXXZ         00000001401a4170 f   sound.obj
 0001:001a3260       ?updatesounds@@YAXXZ       00000001401a4260 f   sound.obj
 0001:001a33e0       ?clear_sound@@YAXXZ        00000001401a43e0 f   sound.obj
 0001:001a35d0       ?preloadmapsounds@@YAXXZ   00000001401a45d0 f   sound.obj
 0001:001a3690       ?clearmapsounds@@YAXXZ     00000001401a4690 f   sound.obj
 0001:001a36f0       ?checkchallenge@@YA_NPEBDPEAX@Z 00000001401a46f0 f   crypto.obj
 0001:001a3770       ?freechallenge@@YAXPEAX@Z  00000001401a4770 f   crypto.obj
 0001:001a3780       ?genchallenge@@YAPEAXPEAXPEBXHAEAU?$vector@D@@@Z 00000001401a4780 f   crypto.obj
 0001:001a3a90       ?freepubkey@@YAXPEAX@Z     00000001401a4a90 f   crypto.obj
 0001:001a3aa0       ?parsepubkey@@YAPEAXPEBD@Z 00000001401a4aa0 f   crypto.obj
 0001:001a3b00       ?answerchallenge@@YAXPEBD0AEAU?$vector@D@@@Z 00000001401a4b00 f   crypto.obj
 0001:001a3ce0       ?hashstring@@YA_NPEBDPEADH@Z 00000001401a4ce0 f   crypto.obj
 0001:001a3d50       ?genprivkey@@YAXPEBDAEAU?$vector@D@@1@Z 00000001401a4d50 f   crypto.obj
 0001:001a3f90       ?hash@tiger@@YAXPEBEHAEAThashval@1@@Z 00000001401a4f90 f   crypto.obj
 0001:001a4100       ?gensboxes@tiger@@YAXXZ    00000001401a5100 f   crypto.obj
 0001:001a4360       ?compress@tiger@@YAXPEB_KQEA_K@Z 00000001401a5360 f   crypto.obj
 0001:001a49e0       ?linecylinderintersect@@YA_NAEBUvec@@000MAEAM@Z 00000001401a59e0 f   geom.obj
 0001:001a4d70       ?adjoint@glmatrixf@@QEAAXAEBU1@@Z 00000001401a5d70 f   geom.obj
 0001:001a53a0       ?invert@glmatrixf@@QEAA_NAEBU1@M@Z 00000001401a63a0 f   geom.obj
 0001:001a5480       ?rayboxintersect@@YA_NAEBUvec@@000AEAMAEAH@Z 00000001401a6480 f   geom.obj
 0001:001a56b0       ?opentempfile@@YAPEAUstream@@PEBD0@Z 00000001401a66b0 f   stream.obj
 0001:001a5770       ?openrawfile@@YAPEAUstream@@PEBD0@Z 00000001401a6770 f   stream.obj
 0001:001a5820       ?printf@stream@@UEAA_KPEBDZZ 00000001401a6820 f   stream.obj
 0001:001a58f0       ?getline@stream@@UEAA_NPEAD_K@Z 00000001401a68f0 f   stream.obj
 0001:001a59b0       ?size@stream@@UEAA_JXZ     00000001401a69b0 f   stream.obj
 0001:001a5b00       ?listdir@@YA_NPEBD_N0AEAU?$vector@PEAD@@@Z 00000001401a6b00 f   stream.obj
 0001:001a5d30       ?subhomedir@@YA_NPEADHPEBD@Z 00000001401a6d30 f   stream.obj
 0001:001a5e90       ?fixpackagedir@@YA_KPEAD@Z 00000001401a6e90 f   stream.obj
 0001:001a5ed0       ?decodeutf8@@YA_KPEAE_KPEBE1PEA_K@Z 00000001401a6ed0 f   stream.obj
 0001:001a6140       ?sethomedir@@YAPEBDPEBD@Z  00000001401a7140 f   stream.obj
 0001:001a6240       ?addpackagedir@@YAPEBDPEBD@Z 00000001401a7240 f   stream.obj
 0001:001a64a0       ?loadfile@@YAPEADPEBDPEA_K_N@Z 00000001401a74a0 f   stream.obj
 0001:001a6600       ?listfiles@@YAHPEBD0AEAU?$vector@PEAD@@@Z 00000001401a7600 f   stream.obj
 0001:001a67e0       ?rwops@stream@@QEAAPEAUSDL_RWops@@XZ 00000001401a77e0 f   stream.obj
 0001:001a6840       ?fileexists@@YA_NPEBD0@Z   00000001401a7840 f   stream.obj
 0001:001a6890       ?createdir@@YA_NPEBD@Z     00000001401a7890 f   stream.obj
 0001:001a6910       ?parentdir@@YAPEBDPEBD@Z   00000001401a7910 f   stream.obj
 0001:001a69a0       ?openutf8file@@YAPEAUstream@@PEBD0PEAU1@@Z 00000001401a79a0 f   stream.obj
 0001:001a6a70       ?path@@YAPEADPEBD_N@Z      00000001401a7a70 f   stream.obj
 0001:001a6ad0       ?encodeutf8@@YA_KPEAE_KPEBE1PEA_K@Z 00000001401a7ad0 f   stream.obj
 0001:001a6c90       ?findfile@@YAPEBDPEBD0@Z   00000001401a7c90 f   stream.obj
 0001:001a6f50       ?openfile@@YAPEAUstream@@PEBD0@Z 00000001401a7f50 f   stream.obj
 0001:001a6f90       ?makerelpath@@YAPEADPEBD000@Z 00000001401a7f90 f   stream.obj
 0001:001a71c0       ?opengzfile@@YAPEAUstream@@PEBD0PEAU1@H@Z 00000001401a81c0 f   stream.obj
 0001:001a72d0       ?path@@YAPEADPEAD@Z        00000001401a82d0 f   stream.obj
 0001:001a7fb0       ?sendstring@@YAXPEBDAEAU?$vector@E@@@Z 00000001401a8fb0 f   tools.obj
 0001:001a8010       ?sendstring@@YAXPEBDAEAU?$databuf@E@@@Z 00000001401a9010 f   tools.obj
 0001:001a8050       ?getfloat@@YAMAEAU?$databuf@E@@@Z 00000001401a9050 f   tools.obj
 0001:001a80c0       ?putfloat@@YAXAEAU?$databuf@E@@M@Z 00000001401a90c0 f   tools.obj
 0001:001a8130       ?getuint@@YAHAEAU?$databuf@E@@@Z 00000001401a9130 f   tools.obj
 0001:001a8210       ?putuint@@YAXAEAUpacketbuf@@H@Z 00000001401a9210 f   tools.obj
 0001:001a8220       ?putuint@@YAXAEAU?$databuf@E@@H@Z 00000001401a9220 f   tools.obj
 0001:001a8230       ?putint@@YAXAEAU?$vector@E@@H@Z 00000001401a9230 f   tools.obj
 0001:001a8240       ?seedMT@@YAXI@Z            00000001401a9240 f   tools.obj
 0001:001a8290       ?guessnumcpus@@YAHXZ       00000001401a9290 f   tools.obj
 0001:001a82c0       ?putint@@YAXAEAU?$databuf@E@@H@Z 00000001401a92c0 f   tools.obj
 0001:001a82d0       ?getint@@YAHAEAU?$databuf@E@@@Z 00000001401a92d0 f   tools.obj
 0001:001a8400       ?filtertext@@YAXPEADPEBD_N_K@Z 00000001401a9400 f   tools.obj
 0001:001a8480       ?getstring@@YAXPEADAEAU?$databuf@E@@_K@Z 00000001401a9480 f   tools.obj
 0001:001a85f0       ?putint@@YAXAEAUpacketbuf@@H@Z 00000001401a95f0 f   tools.obj
 0001:001a8600       ?putfloat@@YAXAEAUpacketbuf@@M@Z 00000001401a9600 f   tools.obj
 0001:001a8630       ?sendstring@@YAXPEBDAEAUpacketbuf@@@Z 00000001401a9630 f   tools.obj
 0001:001a8690       ?randomMT@@YAIXZ           00000001401a9690 f   tools.obj
 0001:001a8790       ??3@YAXPEAX@Z              00000001401a9790 f   tools.obj
 0001:001a87a0       ??2@YAPEAX_K@Z             00000001401a97a0 f   tools.obj
 0001:001a8930       ?run@?$_icmd_removezip@$0CEK@@@SAXPEBD@Z 00000001401a9930 f   zip.obj
 0001:001a8940       ?run@?$_icmd_addzip@$0CEJ@@@SAXPEBD00@Z 00000001401a9940 f   zip.obj
 0001:001a8970       ?removezip@@YA_NPEBD@Z     00000001401a9970 f   zip.obj
 0001:001a8b90       ?addzip@@YA_NPEBD00@Z      00000001401a9b90 f   zip.obj
 0001:001a93d0       ?findzip@@YAPEAUziparchive@@PEBD@Z 00000001401aa3d0 f   zip.obj
 0001:001a99b0       ?listzipfiles@@YAHPEBD0AEAU?$vector@PEAD@@@Z 00000001401aa9b0 f   zip.obj
 0001:001a9c80       ?findzipfile@@YA_NPEBD@Z   00000001401aac80 f   zip.obj
 0001:001a9d50       ?openzipfile@@YAPEAUstream@@PEBD0@Z 00000001401aad50 f   zip.obj
 0001:001a9fa0       ?render@ai@@YAXXZ          00000001401aafa0 f   ai.obj
 0001:001aaa50       ?drawroute@ai@@YAXPEAUfpsent@@M@Z 00000001401aba50 f   ai.obj
 0001:001ab060       ?think@ai@@YAXPEAUfpsent@@_N@Z 00000001401ac060 f   ai.obj
 0001:001ab2f0       ?avoid@ai@@YAXXZ           00000001401ac2f0 f   ai.obj
 0001:001ab410       ?logic@ai@@YAXPEAUfpsent@@AEAUaistate@1@_N@Z 00000001401ac410 f   ai.obj
 0001:001ab670       ?timeouts@ai@@YAXPEAUfpsent@@AEAUaistate@1@@Z 00000001401ac670 f   ai.obj
 0001:001ab8d0       ?request@ai@@YA_NPEAUfpsent@@AEAUaistate@1@@Z 00000001401ac8d0 f   ai.obj
 0001:001aba60       ?hasrange@ai@@YA_NPEAUfpsent@@0H@Z 00000001401aca60 f   ai.obj
 0001:001abb60       ?process@ai@@YAHPEAUfpsent@@AEAUaistate@1@@Z 00000001401acb60 f   ai.obj
 0001:001ac660       ?lockon@ai@@YA_NPEAUfpsent@@0M@Z 00000001401ad660 f   ai.obj
 0001:001ac710       ?scaleyawpitch@ai@@YAXAEAM0MMMM@Z 00000001401ad710 f   ai.obj
 0001:001ac7f0       ?getyawpitch@ai@@YAXAEBUvec@@0AEAM1@Z 00000001401ad7f0 f   ai.obj
 0001:001ac8e0       ?fixrange@ai@@YAXAEAM0@Z   00000001401ad8e0 f   ai.obj
 0001:001ac960       ?fixfullrange@ai@@YAXAEAM00_N@Z 00000001401ad960 f   ai.obj
 0001:001aca00       ?jumpto@ai@@YAXPEAUfpsent@@AEAUaistate@1@AEBUvec@@@Z 00000001401ada00 f   ai.obj
 0001:001acc50       ?hunt@ai@@YA_NPEAUfpsent@@AEAUaistate@1@@Z 00000001401adc50 f   ai.obj
 0001:001acd70       ?checkroute@ai@@YA_NPEAUfpsent@@H@Z 00000001401add70 f   ai.obj
 0001:001acfe0       ?anynode@ai@@YA_NPEAUfpsent@@AEAUaistate@1@H@Z 00000001401adfe0 f   ai.obj
 0001:001ad180       ?randomlink@ai@@YAHPEAUfpsent@@H@Z 00000001401ae180 f   ai.obj
 0001:001ad410       ?wpspot@ai@@YAHPEAUfpsent@@H_N@Z 00000001401ae410 f   ai.obj
 0001:001ad580       ?closenode@ai@@YAHPEAUfpsent@@@Z 00000001401ae580 f   ai.obj
 0001:001ad7a0       ?dopursue@ai@@YAHPEAUfpsent@@AEAUaistate@1@@Z 00000001401ae7a0 f   ai.obj
 0001:001adaf0       ?dointerest@ai@@YAHPEAUfpsent@@AEAUaistate@1@@Z 00000001401aeaf0 f   ai.obj
 0001:001adcd0       ?dodefend@ai@@YAHPEAUfpsent@@AEAUaistate@1@@Z 00000001401aecd0 f   ai.obj
 0001:001adf30       ?dowait@ai@@YAHPEAUfpsent@@AEAUaistate@1@@Z 00000001401aef30 f   ai.obj
 0001:001ae050       ?check@ai@@YA_NPEAUfpsent@@AEAUaistate@1@@Z 00000001401af050 f   ai.obj
 0001:001ae090       ?itemspawned@ai@@YAXH@Z    00000001401af090 f   ai.obj
 0001:001ae310       ?killed@ai@@YAXPEAUfpsent@@0@Z 00000001401af310 f   ai.obj
 0001:001ae390       ?spawned@ai@@YAXPEAUfpsent@@@Z 00000001401af390 f   ai.obj
 0001:001ae3b0       ?setup@ai@@YAXPEAUfpsent@@@Z 00000001401af3b0 f   ai.obj
 0001:001ae590       ?findorientation@ai@@YAXAEAUvec@@MM0@Z 00000001401af590 f   ai.obj
 0001:001ae720       ?damaged@ai@@YAXPEAUfpsent@@0@Z 00000001401af720 f   ai.obj
 0001:001aebc0       ?find@ai@@YA_NPEAUfpsent@@AEAUaistate@1@_N@Z 00000001401afbc0 f   ai.obj
 0001:001aee30       ?parseinterests@ai@@YA_NPEAUfpsent@@AEAUaistate@1@AEAU?$vector@Uinterest@ai@@@@_N3@Z 00000001401afe30 f   ai.obj
 0001:001af0f0       ?items@ai@@YAXPEAUfpsent@@AEAUaistate@1@AEAU?$vector@Uinterest@ai@@@@_N@Z 00000001401b00f0 f   ai.obj
 0001:001af380       ?assist@ai@@YAXPEAUfpsent@@AEAUaistate@1@AEAU?$vector@Uinterest@ai@@@@_N3@Z 00000001401b0380 f   ai.obj
 0001:001af540       ?hasgoodammo@ai@@YA_NPEAUfpsent@@@Z 00000001401b0540 f   ai.obj
 0001:001af570       ?isgoodammo@ai@@YAHH@Z     00000001401b0570 f   ai.obj
 0001:001af590       ?target@ai@@YA_NPEAUfpsent@@AEAUaistate@1@H_NM@Z 00000001401b0590 f   ai.obj
 0001:001af980       ?violence@ai@@YA_NPEAUfpsent@@AEAUaistate@1@0H@Z 00000001401b0980 f   ai.obj
 0001:001afaf0       ?defend@ai@@YA_NPEAUfpsent@@AEAUaistate@1@AEBUvec@@MMH@Z 00000001401b0af0 f   ai.obj
 0001:001afc30       ?patrol@ai@@YA_NPEAUfpsent@@AEAUaistate@1@AEBUvec@@MMH_N@Z 00000001401b0c30 f   ai.obj
 0001:001afe30       ?enemy@ai@@YA_NPEAUfpsent@@AEAUaistate@1@AEBUvec@@MH@Z 00000001401b0e30 f   ai.obj
 0001:001b00c0       ?badhealth@ai@@YA_NPEAUfpsent@@@Z 00000001401b10c0 f   ai.obj
 0001:001b00f0       ?randomnode@ai@@YA_NPEAUfpsent@@AEAUaistate@1@MM@Z 00000001401b10f0 f   ai.obj
 0001:001b0160       ?randomnode@ai@@YA_NPEAUfpsent@@AEAUaistate@1@AEBUvec@@MM@Z 00000001401b1160 f   ai.obj
 0001:001b0310       ?makeroute@ai@@YA_NPEAUfpsent@@AEAUaistate@1@AEBUvec@@_NH@Z 00000001401b1310 f   ai.obj
 0001:001b0360       ?makeroute@ai@@YA_NPEAUfpsent@@AEAUaistate@1@H_NH@Z 00000001401b1360 f   ai.obj
 0001:001b0400       ?checkothers@ai@@YA_NAEAU?$vector@H@@PEAUfpsent@@HHH_NPEAH@Z 00000001401b1400 f   ai.obj
 0001:001b05b0       ?update@ai@@YAXXZ          00000001401b15b0 f   ai.obj
 0001:001b0720       ?init@ai@@YAXPEAUfpsent@@HHHHHPEBD1@Z 00000001401b1720 f   ai.obj
 0001:001b0a70       ?destroy@ai@@YAXPEAUfpsent@@@Z 00000001401b1a70 f   ai.obj
 0001:001b0ab0       ?create@ai@@YAXPEAUfpsent@@@Z 00000001401b1ab0 f   ai.obj
 0001:001b0b10       ?getaimpos@ai@@YA?AUvec@@PEAUfpsent@@0@Z 00000001401b1b10 f   ai.obj
 0001:001b0d60       ?hastarget@ai@@YA_NPEAUfpsent@@AEAUaistate@1@0MMM@Z 00000001401b1d60 f   ai.obj
 0001:001b0ef0       ?canshoot@ai@@YA_NPEAUfpsent@@0@Z 00000001401b1ef0 f   ai.obj
 0001:001b0fe0       ?cansee@ai@@YA_NPEAUfpsent@@AEAUvec@@11@Z 00000001401b1fe0 f   ai.obj
 0001:001b1070       ?getsight@ai@@YA_NAEAUvec@@MM00MMM@Z 00000001401b2070 f   ai.obj
 0001:001b1200       ?targetable@ai@@YA_NPEAUfpsent@@0@Z 00000001401b2200 f   ai.obj
 0001:001b1280       ?weaprange@ai@@YA_NPEAUfpsent@@HM@Z 00000001401b2280 f   ai.obj
 0001:001b12e0       ?weapmaxdist@ai@@YAMH@Z    00000001401b22e0 f   ai.obj
 0001:001b1310       ?weapmindist@ai@@YAMH@Z    00000001401b2310 f   ai.obj
 0001:001b1340       ?canmove@ai@@YA_NPEAUfpsent@@@Z 00000001401b2340 f   ai.obj
 0001:001b1360       ?viewfieldy@ai@@YAMH@Z     00000001401b2360 f   ai.obj
 0001:001b13c0       ?viewfieldx@ai@@YAMH@Z     00000001401b23c0 f   ai.obj
 0001:001b1410       ?viewdist@ai@@YAMH@Z       00000001401b2410 f   ai.obj
 0001:001b1460       ?run@?$_icmd_botbalance@$0BD@@ai@@SAXPEAH@Z 00000001401b2460 f   ai.obj
 0001:001b1480       ?run@?$_icmd_botlimit@$0BC@@ai@@SAXPEAH@Z 00000001401b2480 f   ai.obj
 0001:001b14a0       ?run@?$_icmd_delbot@$0BB@@ai@@SAXXZ 00000001401b24a0 f   ai.obj
 0001:001b14c0       ?run@?$_icmd_addbot@$0BA@@ai@@SAXPEAD@Z 00000001401b24c0 f   ai.obj
 0001:001b1520       ?checktriggers@entities@@YAXXZ 00000001401b2520 f   entities.obj
 0001:001b1a40       ?doleveltrigger@entities@@YAXHH@Z 00000001401b2a40 f   entities.obj
 0001:001b1ab0       ?run@?$_icmd_trigger@$0BPA@@entities@@SAXPEAH0@Z 00000001401b2ab0 f   entities.obj
 0001:001b1ae0       ?unlocktriggers@entities@@YAXHHH@Z 00000001401b2ae0 f   entities.obj
 0001:001b1c00       ?resettriggers@entities@@YAXXZ 00000001401b2c00 f   entities.obj
 0001:001b1d10       ?setspawn@entities@@YAXH_N@Z 00000001401b2d10 f   entities.obj
 0001:001b1d40       ?spawnitems@entities@@YAX_N@Z 00000001401b2d40 f   entities.obj
 0001:001b1e60       ?resetspawns@entities@@YAXXZ 00000001401b2e60 f   entities.obj
 0001:001b1ea0       ?putitems@entities@@YAXAEAUpacketbuf@@@Z 00000001401b2ea0 f   entities.obj
 0001:001b1f90       ?trypickup@entities@@YAXHPEAUfpsent@@@Z 00000001401b2f90 f   entities.obj
 0001:001b2220       ?teleport@entities@@YAXHPEAUfpsent@@@Z 00000001401b3220 f   entities.obj
 0001:001b2420       ?jumppadeffects@entities@@YAXPEAUfpsent@@H_N@Z 00000001401b3420 f   entities.obj
 0001:001b25d0       ?teleporteffects@entities@@YAXPEAUfpsent@@HH_N@Z 00000001401b35d0 f   entities.obj
 0001:001b2810       ?pickupeffects@entities@@YAXHPEAUfpsent@@@Z 00000001401b3810 f   entities.obj
 0001:001b29d0       ?repammo@entities@@YAXPEAUfpsent@@H_N@Z 00000001401b39d0 f   entities.obj
 0001:001b29f0       ?addammo@entities@@YAXHAEAH_N@Z 00000001401b39f0 f   entities.obj
 0001:001b2a80       ?renderentities@entities@@YAXXZ 00000001401b3a80 f   entities.obj
 0001:001b2cd0       ?preloadentities@entities@@YAXXZ 00000001401b3cd0 f   entities.obj
 0001:001b2eb0       ?entmdlname@entities@@YAPEBDH@Z 00000001401b3eb0 f   entities.obj
 0001:001b2ed0       ?itemicon@entities@@YAHH@Z 00000001401b3ed0 f   entities.obj
 0001:001b2f10       ?checkquad@entities@@YAXHPEAUfpsent@@@Z 00000001401b3f10 f   entities.obj
 0001:001b2fa0       ?checkitems@entities@@YAXPEAUfpsent@@@Z 00000001401b3fa0 f   entities.obj
 0001:001b3100       ?animatemapmodel@entities@@YAXAEBUextentity@@AEAH1@Z 00000001401b4100 f   entities.obj
 0001:001b3150       ?readent@entities@@YAXAEAUentity@@PEADH@Z 00000001401b4150 f   entities.obj
 0001:001b3220       ?extraentinfosize@entities@@YAHXZ 00000001401b4220 f   entities.obj
 0001:001b3230       ?writeent@entities@@YAXAEAUentity@@PEAD@Z 00000001401b4230 f   entities.obj
 0001:001b3240       ?entname@entities@@YAPEBDH@Z 00000001401b4240 f   entities.obj
 0001:001b3270       ?entnameinfo@entities@@YAPEBDAEAUentity@@@Z 00000001401b4270 f   entities.obj
 0001:001b3280       ?mayattach@entities@@YA_NAEAUextentity@@@Z 00000001401b4280 f   entities.obj
 0001:001b3290       ?attachent@entities@@YA_NAEAUextentity@@0@Z 00000001401b4290 f   entities.obj
 0001:001b32a0       ?editent@entities@@YAXH_N@Z 00000001401b42a0 f   entities.obj
 0001:001b33a0       ?entmodel@entities@@YAPEBDAEBUentity@@@Z 00000001401b43a0 f   entities.obj
 0001:001b33f0       ?entradius@entities@@YAXAEAUextentity@@_N@Z 00000001401b43f0 f   entities.obj
 0001:001b36f0       ?fixentity@entities@@YAXAEAUextentity@@@Z 00000001401b46f0 f   entities.obj
 0001:001b3740       ?deleteentity@entities@@YAXPEAUextentity@@@Z 00000001401b4740 f   entities.obj
 0001:001b3750       ?printent@entities@@YA_NAEAUextentity@@PEAD@Z 00000001401b4750 f   entities.obj
 0001:001b3760       ?clearents@entities@@YAXXZ 00000001401b4760 f   entities.obj
 0001:001b37b0       ?dropheight@entities@@YAMAEAUentity@@@Z 00000001401b47b0 f   entities.obj
 0001:001b37d0       ?newentity@entities@@YAPEAUextentity@@XZ 00000001401b47d0 f   entities.obj
 0001:001b3840       ?getents@entities@@YAAEAU?$vector@PEAUextentity@@@@XZ 00000001401b4840 f   entities.obj
 0001:001b3940       ?mastermodeicon@game@@YAPEBDHPEBD@Z 00000001401b4940 f   fps.obj
 0001:001b3970       ?mastermodecolor@game@@YAPEBDHPEBD@Z 00000001401b4970 f   fps.obj
 0001:001b39a0       ?drawhudicons@game@@YAXPEAUfpsent@@@Z 00000001401b49a0 f   fps.obj
 0001:001b3af0       ?drawammohud@game@@YAXPEAUfpsent@@@Z 00000001401b4af0 f   fps.obj
 0001:001b3d00       ?run@?$_icmd_ammohudcycle@$0CPP@@game@@SAXPEAUtagval@@H@Z 00000001401b4d00 f   fps.obj
 0001:001b3db0       ?run@?$_icmd_ammohuddown@$0CPK@@game@@SAXPEAUtagval@@H@Z 00000001401b4db0 f   fps.obj
 0001:001b3e60       ?run@?$_icmd_ammohudup@$0CPF@@game@@SAXPEAUtagval@@H@Z 00000001401b4e60 f   fps.obj
 0001:001b3f10       ?drawicon@game@@YAXHMMM@Z  00000001401b4f10 f   fps.obj
 0001:001b4080       ?run@?$_icmd_suicide@$0CNC@@game@@SAXXZ 00000001401b5080 f   fps.obj
 0001:001b40a0       ?teamcolor@game@@YAPEBDPEBD00@Z 00000001401b50a0 f   fps.obj
 0001:001b4120       ?teamcolor@game@@YAPEBDPEBD_N0@Z 00000001401b5120 f   fps.obj
 0001:001b4210       ?teamcolorname@game@@YAPEBDPEAUfpsent@@PEBD@Z 00000001401b5210 f   fps.obj
 0001:001b42c0       ?duplicatename@game@@YA_NPEAUfpsent@@PEBD1@Z 00000001401b52c0 f   fps.obj
 0001:001b4390       ?startgame@game@@YAXXZ     00000001401b5390 f   fps.obj
 0001:001b4770       ?clearclients@game@@YAX_N@Z 00000001401b5770 f   fps.obj
 0001:001b49d0       ?clientdisconnected@game@@YAXH_N@Z 00000001401b59d0 f   fps.obj
 0001:001b4c00       ?run@?$_icmd_gettotalshots@$0BNH@@game@@SAXXZ 00000001401b5c00 f   fps.obj
 0001:001b4c30       ?run@?$_icmd_gettotaldamage@$0BNG@@game@@SAXXZ 00000001401b5c30 f   fps.obj
 0001:001b4c60       ?run@?$_icmd_getaccuracy@$0BNF@@game@@SAXXZ 00000001401b5c60 f   fps.obj
 0001:001b4ca0       ?run@?$_icmd_getdeaths@$0BNE@@game@@SAXXZ 00000001401b5ca0 f   fps.obj
 0001:001b4cd0       ?run@?$_icmd_getflags@$0BND@@game@@SAXXZ 00000001401b5cd0 f   fps.obj
 0001:001b4d00       ?run@?$_icmd_getfrags@$0BNC@@game@@SAXXZ 00000001401b5d00 f   fps.obj
 0001:001b4d30       ?timeupdate@game@@YAXH@Z   00000001401b5d30 f   fps.obj
 0001:001b4f30       ?killed@game@@YAXPEAUfpsent@@0@Z 00000001401b5f30 f   fps.obj
 0001:001b51e0       ?deathstate@game@@YAXPEAUfpsent@@_N@Z 00000001401b61e0 f   fps.obj
 0001:001b5350       ?damaged@game@@YAXHPEAUfpsent@@0_N@Z 00000001401b6350 f   fps.obj
 0001:001b5570       ?respawn@game@@YAXXZ       00000001401b6570 f   fps.obj
 0001:001b56c0       ?spawnplayer@game@@YAXPEAUfpsent@@@Z 00000001401b66c0 f   fps.obj
 0001:001b5750       ?checkslowmo@game@@YAXXZ   00000001401b6750 f   fps.obj
 0001:001b5830       ?var_slowmosp@game@@YAXXZ  00000001401b6830 f   fps.obj
 0001:001b58b0       ?otherplayers@game@@YAXH@Z 00000001401b68b0 f   fps.obj
 0001:001b5b10       ?predictplayer@game@@YAXPEAUfpsent@@_N@Z 00000001401b6b10 f   fps.obj
 0001:001b5c90       ?hudplayer@game@@YAPEAUfpsent@@XZ 00000001401b6c90 f   fps.obj
 0001:001b5d00       ?followingplayer@game@@YAPEAUfpsent@@XZ 00000001401b6d00 f   fps.obj
 0001:001b5d50       ?stopfollowing@game@@YAXXZ 00000001401b6d50 f   fps.obj
 0001:001b5d80       ?respawnself@game@@YAXXZ   00000001401b6d80 f   fps.obj
 0001:001b5e60       ?spawnstate@game@@YAPEAUfpsent@@PEAU2@@Z 00000001401b6e60 f   fps.obj
 0001:001b5e90       ?run@?$_icmd_nextfollow@$0EC@@game@@SAXPEAH@Z 00000001401b6e90 f   fps.obj
 0001:001b5eb0       ?nextfollow@game@@YAXH@Z   00000001401b6eb0 f   fps.obj
 0001:001b5fc0       ?follow@game@@YAXPEAD@Z    00000001401b6fc0 f   fps.obj
 0001:001b6060       ?run@?$_icmd_getfollow@$0BP@@game@@SAXXZ 00000001401b7060 f   fps.obj
 0001:001b60d0       ?taunt@game@@YAXXZ         00000001401b70d0 f   fps.obj
 0001:001b6120       ?clientoption@game@@YA_NPEBD@Z 00000001401b7120 f   fps.obj
 0001:001b6130       ?msgsound@game@@YAXHPEAUphysent@@@Z 00000001401b7130 f   fps.obj
 0001:001b61d0       ?newclient@game@@YAPEAUfpsent@@H@Z 00000001401b71d0 f   fps.obj
 0001:001b6450       ?colorname@game@@YAPEBDPEAUfpsent@@PEBD111@Z 00000001401b7450 f   fps.obj
 0001:001b6580       ?getclient@game@@YAPEAUfpsent@@H@Z 00000001401b7580 f   fps.obj
 0001:001b65c0       ?initclient@game@@YAXXZ    00000001401b75c0 f   fps.obj
 0001:001b6750       ?restoreconfig@game@@YAPEBDXZ 00000001401b7750 f   fps.obj
 0001:001b6760       ?loadconfigs@game@@YAXXZ   00000001401b7760 f   fps.obj
 0001:001b6820       ?updateworld@game@@YAXXZ   00000001401b7820 f   fps.obj
 0001:001b6b80       ?clipconsole@game@@YAHHH@Z 00000001401b7b80 f   fps.obj
 0001:001b6bb0       ?savedconfig@game@@YAPEBDXZ 00000001401b7bb0 f   fps.obj
 0001:001b6bc0       ?autoexec@game@@YAPEBDXZ   00000001401b7bc0 f   fps.obj
 0001:001b6bd0       ?defaultconfig@game@@YAPEBDXZ 00000001401b7bd0 f   fps.obj
 0001:001b6be0       ?lighteffects@game@@YAXPEAUdynent@@AEAUvec@@1@Z 00000001401b7be0 f   fps.obj
 0001:001b6bf0       ?setupcamera@game@@YAXXZ   00000001401b7bf0 f   fps.obj
 0001:001b6cc0       ?detachcamera@game@@YA_NXZ 00000001401b7cc0 f   fps.obj
 0001:001b6ce0       ?collidecamera@game@@YA_NXZ 00000001401b7ce0 f   fps.obj
 0001:001b6d50       ?needminimap@game@@YA_NXZ  00000001401b7d50 f   fps.obj
 0001:001b6db0       ?defaultcrosshair@game@@YAPEBDH@Z 00000001401b7db0 f   fps.obj
 0001:001b6de0       ?selectcrosshair@game@@YAHAEAM00@Z 00000001401b7de0 f   fps.obj
 0001:001b6fa0       ?gameplayhud@game@@YAXHH@Z 00000001401b7fa0 f   fps.obj
 0001:001b7580       ?abovegameplayhud@game@@YAMHH@Z 00000001401b8580 f   fps.obj
 0001:001b75c0       ?serverinfostartcolumn@game@@YA_NPEAUg3d_gui@@H@Z 00000001401b85c0 f   fps.obj
 0001:001b7670       ?serverinfoentry@game@@YA_NPEAUg3d_gui@@HPEBDH11HAEBU?$vector@H@@H@Z 00000001401b8670 f   fps.obj
 0001:001b7a30       ?serverinfoendcolumn@game@@YAXPEAUg3d_gui@@H@Z 00000001401b8a30 f   fps.obj
 0001:001b7a80       ?savedservers@game@@YAPEBDXZ 00000001401b8a80 f   fps.obj
 0001:001b7a90       ?writegamedata@game@@YAXAEAU?$vector@D@@@Z 00000001401b8a90 f   fps.obj
 0001:001b7aa0       ?getmapinfo@game@@YAPEBDXZ 00000001401b8aa0 f   fps.obj
 0001:001b7ae0       ?readgamedata@game@@YAXAEAU?$vector@D@@@Z 00000001401b8ae0 f   fps.obj
 0001:001b7af0       ?startmap@game@@YAXPEBD@Z  00000001401b8af0 f   fps.obj
 0001:001b7c20       ?numdynents@game@@YAHXZ    00000001401b8c20 f   fps.obj
 0001:001b7c40       ?iterdynents@game@@YAPEAUdynent@@H@Z 00000001401b8c40 f   fps.obj
 0001:001b7ca0       ?dynentcollide@game@@YAXPEAUphysent@@0AEBUvec@@@Z 00000001401b8ca0 f   fps.obj
 0001:001b7d10       ?allowmove@game@@YA_NPEAUphysent@@@Z 00000001401b8d10 f   fps.obj
 0001:001b7d50       ?physicstrigger@game@@YAXPEAUphysent@@_NHHH@Z 00000001401b8d50 f   fps.obj
 0001:001b7e50       ?suicide@game@@YAXPEAUphysent@@@Z 00000001401b8e50 f   fps.obj
 0001:001b7f30       ?canjump@game@@YA_NXZ      00000001401b8f30 f   fps.obj
 0001:001b7f70       ?doattack@game@@YAX_N@Z    00000001401b8f70 f   fps.obj
 0001:001b7fa0       ?resetgamestate@game@@YAXXZ 00000001401b8fa0 f   fps.obj
 0001:001b8030       ?getclientmap@game@@YAPEBDXZ 00000001401b9030 f   fps.obj
 0001:001b80e0       ?hitmonster@game@@YAXHPEAUmonster@1@PEAUfpsent@@AEBUvec@@H@Z 00000001401b90e0 f   monster.obj
 0001:001b8100       ?rendermonsters@game@@YAXXZ 00000001401b9100 f   monster.obj
 0001:001b8320       ?monsterkilled@game@@YAXXZ 00000001401b9320 f   monster.obj
 0001:001b8370       ?run@?$_icmd_endsp@$0BFM@@game@@SAXXZ 00000001401b9370 f   monster.obj
 0001:001b83b0       ?spawnmonster@game@@YAXXZ  00000001401b93b0 f   monster.obj
 0001:001b84e0       ?preloadmonsters@game@@YAXXZ 00000001401b94e0 f   monster.obj
 0001:001b86b0       ?run@?$_icmd_nummonsters@$0BBK@@game@@SAXPEAH0@Z 00000001401b96b0 f   monster.obj
 0001:001b8720       ?nummonsters@game@@YAHHH@Z 00000001401b9720 f   monster.obj
 0001:001b8780       ?clearmonsters@game@@YAXXZ 00000001401b9780 f   monster.obj
 0001:001b8b80       ?updatemonsters@game@@YAXH@Z 00000001401b9b80 f   monster.obj
 0001:001b8e30       ?spsummary@game@@YAXH@Z    00000001401b9e30 f   monster.obj
 0001:001b90c0       ?stackmonster@game@@YAXPEAUmonster@1@PEAUphysent@@@Z 00000001401ba0c0 f   monster.obj
 0001:001b90f0       ?suicidemonster@game@@YAXPEAUmonster@1@@Z 00000001401ba0f0 f   monster.obj
 0001:001b9110       ?endsp@game@@YAX_N@Z       00000001401ba110 f   monster.obj
 0001:001b9180       ?hitmovable@game@@YAXHPEAUmovable@1@PEAUfpsent@@AEBUvec@@H@Z 00000001401ba180 f   movable.obj
 0001:001b9290       ?rendermovables@game@@YAXXZ 00000001401ba290 f   movable.obj
 0001:001b93e0       ?run@?$_icmd_platform@$0HK@@game@@SAXPEAH0@Z 00000001401ba3e0 f   movable.obj
 0001:001b93f0       ?triggerplatform@game@@YAXHH@Z 00000001401ba3f0 f   movable.obj
 0001:001b95a0       ?clearmovables@game@@YAXXZ 00000001401ba5a0 f   movable.obj
 0001:001b9730       ?updatemovables@game@@YAXH@Z 00000001401ba730 f   movable.obj
 0001:001b9b90       ?stackmovable@game@@YAXPEAUmovable@1@PEAUphysent@@@Z 00000001401bab90 f   movable.obj
 0001:001b9bc0       ?suicidemovable@game@@YAXPEAUmovable@1@@Z 00000001401babc0 f   movable.obj
 0001:001b9cc0       ?preloadsounds@game@@YAXXZ 00000001401bacc0 f   render.obj
 0001:001b9ec0       ?preloadweapons@game@@YAXXZ 00000001401baec0 f   render.obj
 0001:001ba010       ?hudgunorigin@game@@YA?AUvec@@HAEBU2@0PEAUfpsent@@@Z 00000001401bb010 f   render.obj
 0001:001ba3f0       ?drawhudgun@game@@YAXXZ    00000001401bb3f0 f   render.obj
 0001:001ba4f0       ?drawhudmodel@game@@YAXPEAUfpsent@@HMH@Z 00000001401bb4f0 f   render.obj
 0001:001ba9b0       ?renderplayer@game@@YAXPEAUfpsent@@AEBUplayermodelinfo@1@HM_N@Z 00000001401bb9b0 f   render.obj
 0001:001bae50       ?preloadplayermodel@game@@YAXXZ 00000001401bbe50 f   render.obj
 0001:001baf60       ?changedplayermodel@game@@YAXXZ 00000001401bbf60 f   render.obj
 0001:001bb160       ?getplayermodelinfo@game@@YAAEBUplayermodelinfo@1@PEAUfpsent@@@Z 00000001401bc160 f   render.obj
 0001:001bb1c0       ?getplayermodelinfo@game@@YAPEBUplayermodelinfo@1@H@Z 00000001401bc1c0 f   render.obj
 0001:001bb1f0       ?saveragdoll@game@@YAXPEAUfpsent@@@Z 00000001401bc1f0 f   render.obj
 0001:001bb440       ?var_playermodel@game@@YAXXZ 00000001401bc440 f   render.obj
 0001:001bb450       ?moveragdolls@game@@YAXXZ  00000001401bc450 f   render.obj
 0001:001bb540       ?swayhudgun@game@@YAXH@Z   00000001401bc540 f   render.obj
 0001:001bb7d0       ?clearragdolls@game@@YAXXZ 00000001401bc7d0 f   render.obj
 0001:001bb830       ?chooserandomplayermodel@game@@YAHH@Z 00000001401bc830 f   render.obj
 0001:001bb860       ?rendergame@game@@YAX_N@Z  00000001401bc860 f   render.obj
 0001:001bbef0       ?renderavatar@game@@YAXXZ  00000001401bcef0 f   render.obj
 0001:001bbf00       ?renderplayerpreview@game@@YAXHHH@Z 00000001401bcf00 f   render.obj
 0001:001bc0d0       ?preload@game@@YAXXZ       00000001401bd0d0 f   render.obj
 0001:001bcba0       ?run@?$_icmd_showscores@$0BOL@@game@@SAXPEAH@Z 00000001401bdba0 f   scoreboard.obj
 0001:001bcbc0       ?var_scoreboard@game@@YAXXZ 00000001401bdbc0 f   scoreboard.obj
 0001:001bcbe0       ?renderscoreboard@game@@YAXAEAUg3d_gui@@_N@Z 00000001401bdbe0 f   scoreboard.obj
 0001:001be510       ?setteaminfo@game@@YAXPEBDH@Z 00000001401bf510 f   scoreboard.obj
 0001:001be750       ?getbestteams@game@@YAXAEAU?$vector@PEBD@@@Z 00000001401bf750 f   scoreboard.obj
 0001:001bebc0       ?getbestplayers@game@@YAXAEAU?$vector@PEAUfpsent@@@@@Z 00000001401bfbc0 f   scoreboard.obj
 0001:001becd0       ?showscores@game@@YAX_N@Z  00000001401bfcd0 f   scoreboard.obj
 0001:001becf0       ?clearteaminfo@game@@YAXXZ 00000001401bfcf0 f   scoreboard.obj
 0001:001bed80       ?g3d_gamemenus@game@@YAXXZ 00000001401bfd80 f   scoreboard.obj
 0001:001beec0       ?run@?$_icmd_movewaypoints@$0DCG@@ai@@SAXPEAH00@Z 00000001401bfec0 f   waypoint.obj
 0001:001bef10       ?movewaypoints@ai@@YAXAEBUvec@@@Z 00000001401bff10 f   waypoint.obj
 0001:001bf060       ?delselwaypoints@ai@@YAXXZ 00000001401c0060 f   waypoint.obj
 0001:001bf2b0       ?run@?$_icmd_savewaypoints@$0CPF@@ai@@SAXPEAD@Z 00000001401c02b0 f   waypoint.obj
 0001:001bf2c0       ?run@?$_icmd_loadwaypoints@$0CNI@@ai@@SAXPEAD@Z 00000001401c02c0 f   waypoint.obj
 0001:001bf2d0       ?getwaypointfile@ai@@YA_NPEBDPEAD@Z 00000001401c02d0 f   waypoint.obj
 0001:001bf360       ?cleanwaypoints@ai@@YA_NXZ 00000001401c0360 f   waypoint.obj
 0001:001bf560       ?remapwaypoints@ai@@YAXXZ  00000001401c0560 f   waypoint.obj
 0001:001bf790       ?seedwaypoints@ai@@YAXXZ   00000001401c0790 f   waypoint.obj
 0001:001bf830       ?run@?$_icmd_clearwaypoints@$0CGB@@ai@@SAXXZ 00000001401c0830 f   waypoint.obj
 0001:001bf840       ?navigate@ai@@YAXPEAUfpsent@@@Z 00000001401c0840 f   waypoint.obj
 0001:001bfb40       ?linkwaypoint@ai@@YAXAEAUwaypoint@1@H@Z 00000001401c0b40 f   waypoint.obj
 0001:001bfcb0       ?addwaypoint@ai@@YAHAEBUvec@@H@Z 00000001401c0cb0 f   waypoint.obj
 0001:001bfd80       ?var_dropwaypoints@ai@@YAXXZ 00000001401c0d80 f   waypoint.obj
 0001:001bfdc0       ?buildwpcache@ai@@YAXXZ    00000001401c0dc0 f   waypoint.obj
 0001:001bfed0       ?run@?$_icmd_clearwpcache@$0LL@@ai@@SAXXZ 00000001401c0ed0 f   waypoint.obj
 0001:001bffc0       ?clearwpcache@ai@@YAX_N@Z  00000001401c0fc0 f   waypoint.obj
 0001:001c0160       ?getweight@ai@@YAHAEBUvec@@@Z 00000001401c1160 f   waypoint.obj
 0001:001c0300       ?clipped@ai@@YA_NAEBUvec@@@Z 00000001401c1300 f   waypoint.obj
 0001:001c0340       ?navigate@ai@@YAXXZ        00000001401c1340 f   waypoint.obj
 0001:001c03e0       ?savewaypoints@ai@@YAX_NPEBD@Z 00000001401c13e0 f   waypoint.obj
 0001:001c0770       ?clearwaypoints@ai@@YAX_N@Z 00000001401c1770 f   waypoint.obj
 0001:001c0880       ?inferwaypoints@ai@@YAXPEAUfpsent@@AEBUvec@@1M@Z 00000001401c1880 f   waypoint.obj
 0001:001c0a30       ?loadwaypoints@ai@@YAX_NPEBD@Z 00000001401c1a30 f   waypoint.obj
 0001:001c0eb0       ?route@ai@@YA_NPEAUfpsent@@HHAEAU?$vector@H@@AEBUavoidset@1@H@Z 00000001401c1eb0 f   waypoint.obj
 0001:001c1830       ?closestwaypoint@ai@@YAHAEBUvec@@M_NPEAUfpsent@@@Z 00000001401c2830 f   waypoint.obj
 0001:001c1ec0       ?findwaypointswithin@ai@@YAXAEBUvec@@MMAEAU?$vector@H@@@Z 00000001401c2ec0 f   waypoint.obj
 0001:001c23b0       ?remap@avoidset@ai@@QEAAHPEAUfpsent@@HAEAUvec@@_N@Z 00000001401c33b0 f   waypoint.obj
 0001:001c2600       ?avoidnear@avoidset@ai@@QEAAXPEAXMAEBUvec@@M@Z 00000001401c3600 f   waypoint.obj
 0001:001c2ab0       ?checkidlesound@game@@YAXPEAUfpsent@@_N@Z 00000001401c3ab0 f   weapon.obj
 0001:001c2c20       ?checkattacksound@game@@YAXPEAUfpsent@@_N@Z 00000001401c3c20 f   weapon.obj
 0001:001c2d20       ?raydamage@game@@YAXAEAUvec@@0PEAUfpsent@@@Z 00000001401c3d20 f   weapon.obj
 0001:001c3230       ?shorten@game@@YAXAEAUvec@@0M@Z 00000001401c4230 f   weapon.obj
 0001:001c3290       ?shoteffects@game@@YAXHAEBUvec@@0PEAUfpsent@@_NHH@Z 00000001401c4290 f   weapon.obj
 0001:001c4200       ?updateprojectiles@game@@YAXH@Z 00000001401c5200 f   weapon.obj
 0001:001c4950       ?projdamage@game@@YA_NPEAUdynent@@AEAUprojectile@1@AEAUvec@@H@Z 00000001401c5950 f   weapon.obj
 0001:001c4a50       ?explodeeffects@game@@YAXHPEAUfpsent@@_NH@Z 00000001401c5a50 f   weapon.obj
 0001:001c4e60       ?projsplash@game@@YAXAEAUprojectile@1@AEAUvec@@PEAUdynent@@H@Z 00000001401c5e60 f   weapon.obj
 0001:001c5070       ?radialeffect@game@@YAXPEAUdynent@@AEBUvec@@HPEAUfpsent@@H@Z 00000001401c6070 f   weapon.obj
 0001:001c5120       ?projdist@game@@YAMPEAUdynent@@AEAUvec@@AEBU3@@Z 00000001401c6120 f   weapon.obj
 0001:001c5200       ?hitpush@game@@YAXHPEAUdynent@@PEAUfpsent@@AEAUvec@@2HH@Z 00000001401c6200 f   weapon.obj
 0001:001c5340       ?hit@game@@YAXHPEAUdynent@@PEAUfpsent@@AEBUvec@@HMH@Z 00000001401c6340 f   weapon.obj
 0001:001c56b0       ?spawnbouncer@game@@YAXAEBUvec@@0PEAUfpsent@@HPEAUentitylight@@@Z 00000001401c66b0 f   weapon.obj
 0001:001c5890       ?removeprojectiles@game@@YAXPEAUfpsent@@@Z 00000001401c6890 f   weapon.obj
 0001:001c5990       ?newprojectile@game@@YAXAEBUvec@@0M_NHPEAUfpsent@@H@Z 00000001401c6990 f   weapon.obj
 0001:001c5b40       ?removebouncers@game@@YAXPEAUfpsent@@@Z 00000001401c6b40 f   weapon.obj
 0001:001c5c00       ?updatebouncers@game@@YAXH@Z 00000001401c6c00 f   weapon.obj
 0001:001c6170       ?newbouncer@game@@YAXAEBUvec@@0_NHPEAUfpsent@@HHHPEAUentitylight@@@Z 00000001401c7170 f   weapon.obj
 0001:001c65d0       ?createrays@game@@YAXHAEBUvec@@0@Z 00000001401c75d0 f   weapon.obj
 0001:001c6980       ?offsetray@game@@YAXAEBUvec@@0HMAEAU2@@Z 00000001401c7980 f   weapon.obj
 0001:001c6c60       ?run@?$_icmd_weapon@$0HE@@game@@SAXPEAUtagval@@H@Z 00000001401c7c60 f   weapon.obj
 0001:001c6d90       ?weaponswitch@game@@YAXPEAUfpsent@@@Z 00000001401c7d90 f   weapon.obj
 0001:001c6e70       ?run@?$_icmd_cycleweapon@$0FG@@game@@SAXPEAUtagval@@H@Z 00000001401c7e70 f   weapon.obj
 0001:001c6f20       ?cycleweapon@game@@YAXHPEAH_N@Z 00000001401c7f20 f   weapon.obj
 0001:001c7050       ?run@?$_icmd_setweapon@$0DO@@game@@SAXPEADPEAH@Z 00000001401c8050 f   weapon.obj
 0001:001c7070       ?setweapon@game@@YAXPEBD_N@Z 00000001401c8070 f   weapon.obj
 0001:001c70f0       ?run@?$_icmd_nextweapon@$0CN@@game@@SAXPEAH0@Z 00000001401c80f0 f   weapon.obj
 0001:001c7110       ?nextweapon@game@@YAXH_N@Z 00000001401c8110 f   weapon.obj
 0001:001c7310       ?run@?$_icmd_getweapon@$0BE@@game@@SAXXZ 00000001401c8310 f   weapon.obj
 0001:001c7340       ?renderbouncers@game@@YAXXZ 00000001401c8340 f   weapon.obj
 0001:001c7660       ?renderprojectiles@game@@YAXXZ 00000001401c8660 f   weapon.obj
 0001:001c7a10       ?preloadbouncers@game@@YAXXZ 00000001401c8a10 f   weapon.obj
 0001:001c7bc0       ?explode@game@@YAX_NPEAUfpsent@@AEBUvec@@PEAUdynent@@HH@Z 00000001401c8bc0 f   weapon.obj
 0001:001c8170       ?clearprojectiles@game@@YAXXZ 00000001401c9170 f   weapon.obj
 0001:001c8190       ?clearbouncers@game@@YAXXZ 00000001401c9190 f   weapon.obj
 0001:001c81e0       ?intersect@game@@YA_NPEAUdynent@@AEBUvec@@1AEAM@Z 00000001401c91e0 f   weapon.obj
 0001:001c8260       ?updateweapons@game@@YAXH@Z 00000001401c9260 f   weapon.obj
 0001:001c8370       ?damageeffect@game@@YAXHPEAUfpsent@@_N@Z 00000001401c9370 f   weapon.obj
 0001:001c84f0       ?gibeffect@game@@YAXHAEBUvec@@PEAUfpsent@@@Z 00000001401c94f0 f   weapon.obj
 0001:001c85d0       ?getweapon@game@@YAHPEBD@Z 00000001401c95d0 f   weapon.obj
 0001:001c86b0       ?removeweapons@game@@YAXPEAUfpsent@@@Z 00000001401c96b0 f   weapon.obj
 0001:001c86e0       ?intersectclosest@game@@YAPEAUdynent@@AEBUvec@@0PEAUfpsent@@AEAM@Z 00000001401c96e0 f   weapon.obj
 0001:001c8870       ?gunselect@game@@YAXHPEAUfpsent@@@Z 00000001401c9870 f   weapon.obj
 0001:001c8900       ?shoot@game@@YAXPEAUfpsent@@AEBUvec@@@Z 00000001401c9900 f   weapon.obj
 0001:001c8e90       ?avoidweapons@game@@YAXAEAUavoidset@ai@@M@Z 00000001401c9e90 f   weapon.obj
 0001:001c8fd0       ?particletrack@game@@YAXPEAUphysent@@AEAUvec@@1@Z 00000001401c9fd0 f   weapon.obj
 0001:001c9130       ?adddynlights@game@@YAXXZ  00000001401ca130 f   weapon.obj
 0001:001c93b0       ?dynlighttrack@game@@YAXPEAUphysent@@AEAUvec@@1@Z 00000001401ca3b0 f   weapon.obj
 0001:001c9440       ?bounced@game@@YAXPEAUphysent@@AEBUvec@@@Z 00000001401ca440 f   weapon.obj
 0001:001c9790       ?gotosel@game@@YAXXZ       00000001401ca790 f   client1.obj
 0001:001c9950       ?gotoplayer@game@@YAXPEBD@Z 00000001401ca950 f   client1.obj
 0001:001c9ae0       ?sendmap@game@@YAXXZ       00000001401caae0 f   client1.obj
 0001:001c9cc0       ?listdemos@game@@YAXXZ     00000001401cacc0 f   client1.obj
 0001:001c9cf0       ?run@?$_icmd_getdemo@$0IKI@@game@@SAXPEAH@Z 00000001401cacf0 f   client1.obj
 0001:001c9d40       ?getdemo@game@@YAXH@Z      00000001401cad40 f   client1.obj
 0001:001c9d90       ?run@?$_icmd_cleardemos@$0IKA@@game@@SAXPEAH@Z 00000001401cad90 f   client1.obj
 0001:001c9dd0       ?cleardemos@game@@YAXH@Z   00000001401cadd0 f   client1.obj
 0001:001c9e10       ?run@?$_icmd_recorddemo@$0IJJ@@game@@SAXPEAH@Z 00000001401cae10 f   client1.obj
 0001:001c9e50       ?recorddemo@game@@YAXH@Z   00000001401cae50 f   client1.obj
 0001:001c9e90       ?stopdemo@game@@YAXXZ      00000001401cae90 f   client1.obj
 0001:001c9ef0       ?getmap@game@@YAXXZ        00000001401caef0 f   client1.obj
 0001:001c9f60       ?receivefile@game@@YAXAEAUpacketbuf@@@Z 00000001401caf60 f   client1.obj
 0001:001ca8b0       ?parsemessages@game@@YAXHPEAUfpsent@@AEAU?$databuf@E@@@Z 00000001401cb8b0 f   client1.obj
 0001:001cdcb0       ?parsestate@game@@YAXPEAUfpsent@@AEAU?$databuf@E@@_N@Z 00000001401cecb0 f   client1.obj
 0001:001cde20       ?run@?$_icmd_getclientcash@$0ENK@@game@@SAXPEAH@Z 00000001401cee20 f   client1.obj
 0001:001cdea0       ?run@?$_icmd_getcash@$0ENF@@game@@SAXXZ 00000001401ceea0 f   client1.obj
 0001:001cded0       ?parsepositions@game@@YAXAEAU?$databuf@E@@@Z 00000001401ceed0 f   client1.obj
 0001:001ce9a0       ?updatepos@game@@YAXPEAUfpsent@@@Z 00000001401cf9a0 f   client1.obj
 0001:001cead0       ?sendintro@game@@YAXXZ     00000001401cfad0 f   client1.obj
 0001:001ced60       ?scfAnswerModelAuth@game@@YA_NHPEAUfpsent@@@Z 00000001401cfd60 f   client1.obj
 0001:001cefd0       ?run@?$_icmd_pm@$0DPF@@game@@SAXPEAHPEBD@Z 00000001401cffd0 f   client1.obj
 0001:001cf0c0       ?sendmessages@game@@YAXXZ  00000001401d00c0 f   client1.obj
 0001:001cf310       ?sendpositions@game@@YAXXZ 00000001401d0310 f   client1.obj
 0001:001cfe80       ?run@?$_icmd_servcmd@$0DFN@@game@@SAXPEAD@Z 00000001401d0e80 f   client1.obj
 0001:001cfea0       ?sayteam@game@@YAXPEAD@Z   00000001401d0ea0 f   client1.obj
 0001:001cffc0       ?run@?$_icmd_gamespeed@$0COF@@game@@SAXPEAH0PEAUident@@@Z 00000001401d0fc0 f   client1.obj
 0001:001d00a0       ?changegamespeed@game@@YAXH@Z 00000001401d10a0 f   client1.obj
 0001:001d00e0       ?run@?$_icmd_paused@$0CNE@@game@@SAXPEAH0PEAUident@@@Z 00000001401d10e0 f   client1.obj
 0001:001d0180       ?run@?$_icmd_pausegame@$0CMO@@game@@SAXPEAH@Z 00000001401d1180 f   client1.obj
 0001:001d01a0       ?pausegame@game@@YAX_N@Z   00000001401d11a0 f   client1.obj
 0001:001d0230       ?printvar@game@@YAXPEAUfpsent@@PEAUident@@@Z 00000001401d1230 f   client1.obj
 0001:001d03f0       ?sendclipboard@game@@YAXXZ 00000001401d13f0 f   client1.obj
 0001:001d0600       ?run@?$_icmd_map@$0CDO@@game@@SAXPEAD@Z 00000001401d1600 f   client1.obj
 0001:001d0610       ?run@?$_icmds_@$0CCP@@game@@SAXPEAH@Z 00000001401d1610 f   client1.obj
 0001:001d0660       ?run@?$_icmds_@$0CCO@@game@@SAXPEAH@Z 00000001401d1660 f   client1.obj
 0001:001d06b0       ?run@?$_icmds_@$0CCN@@game@@SAXPEAH@Z 00000001401d16b0 f   client1.obj
 0001:001d0700       ?run@?$_icmds_@$0CCM@@game@@SAXPEAH@Z 00000001401d1700 f   client1.obj
 0001:001d0750       ?run@?$_icmds_@$0CCL@@game@@SAXPEAH@Z 00000001401d1750 f   client1.obj
 0001:001d07a0       ?run@?$_icmds_@$0CCK@@game@@SAXPEAH@Z 00000001401d17a0 f   client1.obj
 0001:001d07f0       ?run@?$_icmds_@$0CCJ@@game@@SAXPEAH@Z 00000001401d17f0 f   client1.obj
 0001:001d0840       ?run@?$_icmds_@$0CCI@@game@@SAXPEAH@Z 00000001401d1840 f   client1.obj
 0001:001d0890       ?run@?$_icmds_@$0CCH@@game@@SAXPEAH@Z 00000001401d1890 f   client1.obj
 0001:001d08e0       ?run@?$_icmds_@$0CCG@@game@@SAXPEAH@Z 00000001401d18e0 f   client1.obj
 0001:001d0930       ?run@?$_icmds_@$0CCF@@game@@SAXPEAH@Z 00000001401d1930 f   client1.obj
 0001:001d0980       ?run@?$_icmds_@$0CCE@@game@@SAXPEAH@Z 00000001401d1980 f   client1.obj
 0001:001d09d0       ?run@?$_icmds_@$0CCD@@game@@SAXPEAH@Z 00000001401d19d0 f   client1.obj
 0001:001d0a20       ?run@?$_icmds_@$0CCC@@game@@SAXPEAH@Z 00000001401d1a20 f   client1.obj
 0001:001d0a70       ?run@?$_icmds_@$0CCB@@game@@SAXPEAH@Z 00000001401d1a70 f   client1.obj
 0001:001d0ac0       ?run@?$_icmds_@$0CCA@@game@@SAXPEAH@Z 00000001401d1ac0 f   client1.obj
 0001:001d0b10       ?run@?$_icmds_@$0CBP@@game@@SAXPEAH@Z 00000001401d1b10 f   client1.obj
 0001:001d0b60       ?run@?$_icmds_@$0CBO@@game@@SAXPEAH@Z 00000001401d1b60 f   client1.obj
 0001:001d0bb0       ?run@?$_icmd_timeremaining@$0CBN@@game@@SAXPEAH@Z 00000001401d1bb0 f   client1.obj
 0001:001d0cc0       ?run@?$_icmd_getmode@$0CBD@@game@@SAXXZ 00000001401d1cc0 f   client1.obj
 0001:001d0ce0       ?run@?$_icmd_mode@$0CBC@@game@@SAXPEAH@Z 00000001401d1ce0 f   client1.obj
 0001:001d0cf0       ?setmode@game@@YAXH@Z      00000001401d1cf0 f   client1.obj
 0001:001d0da0       ?changemapserv@game@@YAXPEBDH@Z 00000001401d1da0 f   client1.obj
 0001:001d0f30       ?run@?$_icmd_checkmaps@$0BOO@@game@@SAXXZ 00000001401d1f30 f   client1.obj
 0001:001d0f50       ?run@?$_icmd_spectator@$0BOM@@game@@SAXPEAHPEAD@Z 00000001401d1f50 f   client1.obj
 0001:001d0fa0       ?togglespectator@game@@YAXHPEBD@Z 00000001401d1fa0 f   client1.obj
 0001:001d0ff0       ?run@?$_icmd_dauth@$0BOF@@game@@SAXPEAD@Z 00000001401d1ff0 f   client1.obj
 0001:001d1040       ?run@?$_icmd_sauth@$0BOE@@game@@SAXXZ 00000001401d2040 f   client1.obj
 0001:001d1090       ?run@?$_icmd_auth@$0BOD@@game@@SAXPEAD@Z 00000001401d2090 f   client1.obj
 0001:001d10d0       ?tryauth@game@@YA_NPEBD@Z  00000001401d20d0 f   client1.obj
 0001:001d1120       ?run@?$_icmd_mastermode@$0BNJ@@game@@SAXPEAH@Z 00000001401d2120 f   client1.obj
 0001:001d1140       ?setmaster@game@@YAXPEBD0@Z 00000001401d2140 f   client1.obj
 0001:001d1230       ?hashpwd@game@@YAXPEBD@Z   00000001401d2230 f   client1.obj
 0001:001d12e0       ?setteam@game@@YAXPEBD0@Z  00000001401d22e0 f   client1.obj
 0001:001d1320       ?run@?$_icmd_isignored@$0BLE@@game@@SAXPEAD@Z 00000001401d2320 f   client1.obj
 0001:001d1380       ?run@?$_icmd_unignore@$0BLD@@game@@SAXPEAD@Z 00000001401d2380 f   client1.obj
 0001:001d13a0       ?run@?$_icmd_ignore@$0BLC@@game@@SAXPEAD@Z 00000001401d23a0 f   client1.obj
 0001:001d13c0       ?isignored@game@@YA_NH@Z   00000001401d23c0 f   client1.obj
 0001:001d1400       ?ignore@game@@YAXH@Z       00000001401d2400 f   client1.obj
 0001:001d14e0       ?run@?$_icmd_dauthkick@$0BJM@@game@@SAXPEBD00@Z 00000001401d24e0 f   client1.obj
 0001:001d14f0       ?run@?$_icmd_sauthkick@$0BJL@@game@@SAXPEBD0@Z 00000001401d24f0 f   client1.obj
 0001:001d1580       ?run@?$_icmd_authkick@$0BJK@@game@@SAXPEBD0@Z 00000001401d2580 f   client1.obj
 0001:001d1610       ?authkick@game@@YAXPEBD00@Z 00000001401d2610 f   client1.obj
 0001:001d1690       ?kick@game@@YAXPEBD0@Z     00000001401d2690 f   client1.obj
 0001:001d16e0       ?clearbans@game@@YAXXZ     00000001401d26e0 f   client1.obj
 0001:001d1700       ?run@?$_icmd_listclients@$0BIB@@game@@SAXPEAH0@Z 00000001401d2700 f   client1.obj
 0001:001d1720       ?listclients@game@@YAX_N0@Z 00000001401d2720 f   client1.obj
 0001:001d1b20       ?run@?$_icmd_getclientnum@$0BGL@@game@@SAXPEAD@Z 00000001401d2b20 f   client1.obj
 0001:001d1b60       ?run@?$_icmd_isscf@$0BFC@@game@@SAXPEAH@Z 00000001401d2b60 f   client1.obj
 0001:001d1bc0       ?run@?$_icmd_isai@$0BEN@@game@@SAXPEAH0@Z 00000001401d2bc0 f   client1.obj
 0001:001d1c40       ?isai@game@@YA_NHH@Z       00000001401d2c40 f   client1.obj
 0001:001d1ca0       ?run@?$_icmd_isspectator@$0BEF@@game@@SAXPEAH@Z 00000001401d2ca0 f   client1.obj
 0001:001d1d00       ?isspectator@game@@YA_NH@Z 00000001401d2d00 f   client1.obj
 0001:001d1d40       ?run@?$_icmd_mastermodename@$0BDO@@game@@SAXPEAH@Z 00000001401d2d40 f   client1.obj
 0001:001d1d90       ?run@?$_icmd_getmastermode@$0BDN@@game@@SAXXZ 00000001401d2d90 f   client1.obj
 0001:001d1db0       ?run@?$_icmd_isadmin@$0BDL@@game@@SAXPEAH@Z 00000001401d2db0 f   client1.obj
 0001:001d1e10       ?isadmin@game@@YA_NH@Z     00000001401d2e10 f   client1.obj
 0001:001d1e60       ?run@?$_icmd_isauth@$0BDE@@game@@SAXPEAH@Z 00000001401d2e60 f   client1.obj
 0001:001d1ec0       ?isauth@game@@YA_NH@Z      00000001401d2ec0 f   client1.obj
 0001:001d1f10       ?run@?$_icmd_ismaster@$0BCN@@game@@SAXPEAH@Z 00000001401d2f10 f   client1.obj
 0001:001d1f70       ?ismaster@game@@YA_NH@Z    00000001401d2f70 f   client1.obj
 0001:001d1fc0       ?run@?$_icmd_getclienticon@$0BCG@@game@@SAXPEAH@Z 00000001401d2fc0 f   client1.obj
 0001:001d1ff0       ?getclienticon@game@@YAPEBDH@Z 00000001401d2ff0 f   client1.obj
 0001:001d20c0       ?run@?$_icmd_getclientmodel@$0BBN@@game@@SAXPEAH@Z 00000001401d30c0 f   client1.obj
 0001:001d2130       ?getclientmodel@game@@YAHH@Z 00000001401d3130 f   client1.obj
 0001:001d2170       ?run@?$_icmd_getclientteam@$0BBG@@game@@SAXPEAH@Z 00000001401d3170 f   client1.obj
 0001:001d21e0       ?getclientteam@game@@YAPEBDH@Z 00000001401d31e0 f   client1.obj
 0001:001d2230       ?run@?$_icmd_getclientname@$0BAP@@game@@SAXPEAH@Z 00000001401d3230 f   client1.obj
 0001:001d22a0       ?getclientname@game@@YAPEBDH@Z 00000001401d32a0 f   client1.obj
 0001:001d22f0       ?saveauthkeys@game@@YAXXZ  00000001401d32f0 f   client1.obj
 0001:001d2470       ?genauthkey@game@@YAXPEBD@Z 00000001401d3470 f   client1.obj
 0001:001d2520       ?run@?$_icmd_hasauthkey@$0MO@@game@@SAXPEAD0@Z 00000001401d3520 f   client1.obj
 0001:001d2550       ?hasauthkey@game@@YA_NPEBD0@Z 00000001401d3550 f   client1.obj
 0001:001d2600       ?run@?$_icmd_authkey@$0MF@@game@@SAXPEAD00@Z 00000001401d3600 f   client1.obj
 0001:001d2610       ?addauthkey@game@@YAXPEBD00@Z 00000001401d3610 f   client1.obj
 0001:001d2820       ?findauthkey@game@@YAPEAUauthkey@1@PEBD@Z 00000001401d3820 f   client1.obj
 0001:001d2940       ?run@?$_icmd_getteam@$0JL@@game@@SAXXZ 00000001401d3940 f   client1.obj
 0001:001d2980       ?run@?$_icmd_team@$0JK@@game@@SAXPEADPEAH@Z 00000001401d3980 f   client1.obj
 0001:001d29f0       ?printteam@game@@YAXXZ     00000001401d39f0 f   client1.obj
 0001:001d2a10       ?switchteam@game@@YAXPEBD@Z 00000001401d3a10 f   client1.obj
 0001:001d2a90       ?run@?$_icmd_getname@$0IK@@game@@SAXXZ 00000001401d3a90 f   client1.obj
 0001:001d2ad0       ?run@?$_icmd_name@$0IJ@@game@@SAXPEADPEAH@Z 00000001401d3ad0 f   client1.obj
 0001:001d2b40       ?printname@game@@YAXXZ     00000001401d3b40 f   client1.obj
 0001:001d2c30       ?switchname@game@@YAXPEBD@Z 00000001401d3c30 f   client1.obj
 0001:001d2d10       ?run@?$_icmd_dropflag@$0ELK@@game@@SAXXZ 00000001401d3d10 f   client1.obj
 0001:001d2d80       ?run@?$_icmd_insidebases@$0DAJ@@game@@SAXXZ 00000001401d3d80 f   client1.obj
 0001:001d31a0       ?run@?$_icmd_repammo@$0CPJ@@game@@SAXXZ 00000001401d41a0 f   client1.obj
 0001:001d31b0       ?drawteammates@game@@YAXPEAUfpsent@@MMM@Z 00000001401d41b0 f   client1.obj
 0001:001d3550       ?drawteammate@game@@YAXPEAUfpsent@@MMM0M@Z 00000001401d4550 f   client1.obj
 0001:001d37e0       ?drawradar@game@@YAXMMM@Z  00000001401d47e0 f   client1.obj
 0001:001d38c0       ?drawminimap@game@@YAXPEAUfpsent@@MMM@Z 00000001401d48c0 f   client1.obj
 0001:001d3b70       ?calcradarscale@game@@YAMXZ 00000001401d4b70 f   client1.obj
 0001:001d3bc0       ?parseplayer@game@@YAHPEBD@Z 00000001401d4bc0 f   client1.obj
 0001:001d3cf0       ?c2sinfo@game@@YAX_N@Z     00000001401d4cf0 f   client1.obj
 0001:001d3d40       ?changemap@game@@YAXPEBDH@Z 00000001401d4d40 f   client1.obj
 0001:001d3db0       ?unignore@game@@YAXH@Z     00000001401d4db0 f   client1.obj
 0001:001d3ee0       ?setclientmode@game@@YAXXZ 00000001401d4ee0 f   client1.obj
 0001:001d3f50       ?switchplayermodel@game@@YAXH@Z 00000001401d4f50 f   client1.obj
 0001:001d3f90       ?sendmapinfo@game@@YAXXZ   00000001401d4f90 f   client1.obj
 0001:001d3fd0       ?sendposition@game@@YAXPEAUfpsent@@_N@Z 00000001401d4fd0 f   client1.obj
 0001:001d40c0       ?addmsg@game@@YAXHPEBDZZ   00000001401d50c0 f   client1.obj
 0001:001d4530       ?changemap@game@@YAXPEBD@Z 00000001401d5530 f   client1.obj
 0001:001d45c0       ?toserver@game@@YAXPEAD@Z  00000001401d55c0 f   client1.obj
 0001:001d46e0       ?vartrigger@game@@YAXPEAUident@@@Z 00000001401d56e0 f   client1.obj
 0001:001d47c0       ?writeclientinfo@game@@YAXPEAUstream@@@Z 00000001401d57c0 f   client1.obj
 0001:001d4810       ?allowmouselook@game@@YA_NXZ 00000001401d5810 f   client1.obj
 0001:001d4860       ?ispaused@game@@YA_NXZ     00000001401d5860 f   client1.obj
 0001:001d4870       ?connectfail@game@@YAXXZ   00000001401d5870 f   client1.obj
 0001:001d4890       ?connectattempt@game@@YAXPEBD0AEBU_ENetAddress@@@Z 00000001401d5890 f   client1.obj
 0001:001d48e0       ?gamedisconnect@game@@YAX_N@Z 00000001401d58e0 f   client1.obj
 0001:001d4a00       ?parsepacketclient@game@@YAXHAEAUpacketbuf@@@Z 00000001401d5a00 f   client1.obj
 0001:001d4a30       ?gameconnect@game@@YAX_N@Z 00000001401d5a30 f   client1.obj
 0001:001d4a40       ?newmap@game@@YAXH@Z       00000001401d5a40 f   client1.obj
 0001:001d4a60       ?scaletime@game@@YAHH@Z    00000001401d5a60 f   client1.obj
 0001:001d4a70       ?allowedittoggle@game@@YA_NXZ 00000001401d5a70 f   client1.obj
 0001:001d4b30       ?edittoggled@game@@YAX_N@Z 00000001401d5b30 f   client1.obj
 0001:001d4bd0       ?edittrigger@game@@YAXAEBUselinfo@@HHHH@Z 00000001401d5bd0 f   client1.obj
 0001:001d4ed0       ?forceedit@game@@YAXPEBD@Z 00000001401d5ed0 f   client1.obj
 0001:001d5490       ?changeteam@aiman@server@@YAXPEAUclientinfo@2@@Z 00000001401d6490 f   server1.obj
 0001:001d54c0       ?addclient@aiman@server@@YAXPEAUclientinfo@2@@Z 00000001401d64c0 f   server1.obj
 0001:001d54f0       ?changemap@aiman@server@@YAXXZ 00000001401d64f0 f   server1.obj
 0001:001d55b0       ?setbotbalance@aiman@server@@YAXPEAUclientinfo@2@_N@Z 00000001401d65b0 f   server1.obj
 0001:001d5650       ?setbotlimit@aiman@server@@YAXPEAUclientinfo@2@H@Z 00000001401d6650 f   server1.obj
 0001:001d56f0       ?reqdel@aiman@server@@YAXPEAUclientinfo@2@@Z 00000001401d66f0 f   server1.obj
 0001:001d5750       ?reqadd@aiman@server@@YAXPEAUclientinfo@2@H@Z 00000001401d6750 f   server1.obj
 0001:001d57d0       ?checkai@aiman@server@@YAXXZ 00000001401d67d0 f   server1.obj
 0001:001d5870       ?clearai@aiman@server@@YAXXZ 00000001401d6870 f   server1.obj
 0001:001d5aa0       ?checksetup@aiman@server@@YAXXZ 00000001401d6aa0 f   server1.obj
 0001:001d5b20       ?reassignai@aiman@server@@YA_NXZ 00000001401d6b20 f   server1.obj
 0001:001d5c00       ?removeai@aiman@server@@YAXPEAUclientinfo@2@@Z 00000001401d6c00 f   server1.obj
 0001:001d5c60       ?shiftai@aiman@server@@YAXPEAUclientinfo@2@0@Z 00000001401d6c60 f   server1.obj
 0001:001d5d40       ?reinitai@aiman@server@@YAXPEAUclientinfo@2@@Z 00000001401d6d40 f   server1.obj
 0001:001d5e10       ?deleteai@aiman@server@@YA_NXZ 00000001401d6e10 f   server1.obj
 0001:001d5fc0       ?deleteai@aiman@server@@YAXPEAUclientinfo@2@@Z 00000001401d6fc0 f   server1.obj
 0001:001d6140       ?addai@aiman@server@@YA_NHH@Z 00000001401d7140 f   server1.obj
 0001:001d6650       ?findaiclient@aiman@server@@YAPEAUclientinfo@2@PEAU32@@Z 00000001401d7650 f   server1.obj
 0001:001d6720       ?chooseteam@aiman@server@@YAPEBDXZ 00000001401d7720 f   server1.obj
 0001:001d67a0       ?balanceteams@aiman@server@@YAXXZ 00000001401d77a0 f   server1.obj
 0001:001d6ad0       ?calcteams@aiman@server@@YAXAEAU?$vector@Uteamscore@@@@@Z 00000001401d7ad0 f   server1.obj
 0001:001d6cc0       ?extserverinforeply@server@@YAXAEAU?$databuf@E@@0@Z 00000001401d7cc0 f   server1.obj
 0001:001d6f10       ?extinfoteams@server@@YAXAEAU?$databuf@E@@@Z 00000001401d7f10 f   server1.obj
 0001:001d7360       ?extinfoplayer@server@@YAXAEAU?$databuf@E@@PEAUclientinfo@1@@Z 00000001401d8360 f   server1.obj
 0001:001d7540       ?run@?$_icmd_onswitchname@$0OJJ@@server@@SAXPEBD@Z 00000001401d8540 f   server1.obj
 0001:001d75e0       ?run@?$_icmd_flush_onswitchname@$0OJD@@server@@SAXXZ 00000001401d85e0 f   server1.obj
 0001:001d76d0       ?run@?$_icmd_rename@$0OIJ@@server@@SAXPEAHPEBD@Z 00000001401d86d0 f   server1.obj
 0001:001d7980       ?run@?$_icmd_listclients@$0OHH@@server@@SAXPEAH@Z 00000001401d8980 f   server1.obj
 0001:001d79a0       ?listclients@server@@YAX_N@Z 00000001401d89a0 f   server1.obj
 0001:001d7cf0       ?run@?$_icmd_sendpubliccommand@$0OGI@@server@@SAXPEBD@Z 00000001401d8cf0 f   server1.obj
 0001:001d7d70       ?run@?$_icmd_sendcommand@$0OGB@@server@@SAXPEAHPEBD@Z 00000001401d8d70 f   server1.obj
 0001:001d7dc0       ?run@?$_icmd_sendneededfiles@$0OFL@@server@@SAXXZ 00000001401d8dc0 f   server1.obj
 0001:001d7ef0       ?run@?$_icmd_sendfile@$0OFA@@server@@SAXPEAHPEADPEBD00@Z 00000001401d8ef0 f   server1.obj
 0001:001d80e0       ?run@?$_icmd_getclientreturned@$0ODJ@@server@@SAXPEAH@Z 00000001401d90e0 f   server1.obj
 0001:001d8180       ?run@?$_icmd_getclientstolen@$0ODE@@server@@SAXPEAH@Z 00000001401d9180 f   server1.obj
 0001:001d8220       ?run@?$_icmd_getclientscored@$0OCP@@server@@SAXPEAH@Z 00000001401d9220 f   server1.obj
 0001:001d82c0       ?run@?$_icmd_getclienttk@$0OCK@@server@@SAXPEAH@Z 00000001401d92c0 f   server1.obj
 0001:001d8360       ?run@?$_icmd_getclientacc@$0OCF@@server@@SAXPEAH@Z 00000001401d9360 f   server1.obj
 0001:001d83f0       ?run@?$_icmd_getclientkpd@$0OCA@@server@@SAXPEAH@Z 00000001401d93f0 f   server1.obj
 0001:001d8490       ?run@?$_icmd_getactualfrags@$0OBL@@server@@SAXPEAH@Z 00000001401d9490 f   server1.obj
 0001:001d8510       ?run@?$_icmd_getclientsuicides@$0OBG@@server@@SAXPEAH@Z 00000001401d9510 f   server1.obj
 0001:001d8590       ?run@?$_icmd_getclientdeaths@$0OBB@@server@@SAXPEAH@Z 00000001401d9590 f   server1.obj
 0001:001d8610       ?run@?$_icmd_getclientfrags@$0OAM@@server@@SAXPEAH@Z 00000001401d9610 f   server1.obj
 0001:001d8690       ?connected@server@@YAXPEAUclientinfo@1@@Z 00000001401d9690 f   server1.obj
 0001:001d8a30       ?run@?$_icmd_getclienthostname@$0NNO@@server@@SAXPEAH@Z 00000001401d9a30 f   server1.obj
 0001:001d8a90       ?scfAnswerModelAuth@server@@YA_NHPEAUclientinfo@1@@Z 00000001401d9a90 f   server1.obj
 0001:001d8b50       ?run@?$_icmd_onconnect@$0NJA@@server@@SAXPEBD@Z 00000001401d9b50 f   server1.obj
 0001:001d8bf0       ?run@?$_icmd_flush_onconnect@$0NIK@@server@@SAXXZ 00000001401d9bf0 f   server1.obj
 0001:001d8ce0       ?run@?$_icmd_iswindows@$0NGE@@server@@SAXXZ 00000001401d9ce0 f   server1.obj
 0001:001d8d00       ?run@?$_icmd_getmode@$0NFI@@server@@SAXXZ 00000001401d9d00 f   server1.obj
 0001:001d8d20       ?run@?$_icmds_@$0NFH@@server@@SAXPEAH@Z 00000001401d9d20 f   server1.obj
 0001:001d8d70       ?run@?$_icmds_@$0NFG@@server@@SAXPEAH@Z 00000001401d9d70 f   server1.obj
 0001:001d8dc0       ?run@?$_icmds_@$0NFF@@server@@SAXPEAH@Z 00000001401d9dc0 f   server1.obj
 0001:001d8e10       ?run@?$_icmds_@$0NFE@@server@@SAXPEAH@Z 00000001401d9e10 f   server1.obj
 0001:001d8e60       ?run@?$_icmds_@$0NFD@@server@@SAXPEAH@Z 00000001401d9e60 f   server1.obj
 0001:001d8eb0       ?run@?$_icmds_@$0NFC@@server@@SAXPEAH@Z 00000001401d9eb0 f   server1.obj
 0001:001d8f00       ?run@?$_icmds_@$0NFB@@server@@SAXPEAH@Z 00000001401d9f00 f   server1.obj
 0001:001d8f50       ?run@?$_icmds_@$0NFA@@server@@SAXPEAH@Z 00000001401d9f50 f   server1.obj
 0001:001d8fa0       ?run@?$_icmds_@$0NEP@@server@@SAXPEAH@Z 00000001401d9fa0 f   server1.obj
 0001:001d8ff0       ?run@?$_icmds_@$0NEO@@server@@SAXPEAH@Z 00000001401d9ff0 f   server1.obj
 0001:001d9040       ?run@?$_icmds_@$0NEN@@server@@SAXPEAH@Z 00000001401da040 f   server1.obj
 0001:001d9090       ?run@?$_icmds_@$0NEM@@server@@SAXPEAH@Z 00000001401da090 f   server1.obj
 0001:001d90e0       ?run@?$_icmds_@$0NEL@@server@@SAXPEAH@Z 00000001401da0e0 f   server1.obj
 0001:001d9130       ?run@?$_icmds_@$0NEK@@server@@SAXPEAH@Z 00000001401da130 f   server1.obj
 0001:001d9180       ?run@?$_icmds_@$0NEJ@@server@@SAXPEAH@Z 00000001401da180 f   server1.obj
 0001:001d91d0       ?run@?$_icmds_@$0NEI@@server@@SAXPEAH@Z 00000001401da1d0 f   server1.obj
 0001:001d9220       ?run@?$_icmds_@$0NEH@@server@@SAXPEAH@Z 00000001401da220 f   server1.obj
 0001:001d9270       ?run@?$_icmds_@$0NEG@@server@@SAXPEAH@Z 00000001401da270 f   server1.obj
 0001:001d92c0       ?run@?$_icmd_PRIV_OWNER@$0NEF@@server@@SAXXZ 00000001401da2c0 f   server1.obj
 0001:001d92e0       ?run@?$_icmd_PRIV_ADMIN@$0NEE@@server@@SAXXZ 00000001401da2e0 f   server1.obj
 0001:001d9300       ?run@?$_icmd_PRIV_AUTH@$0NED@@server@@SAXXZ 00000001401da300 f   server1.obj
 0001:001d9320       ?run@?$_icmd_PRIV_MASTER@$0NEC@@server@@SAXXZ 00000001401da320 f   server1.obj
 0001:001d9340       ?run@?$_icmd_PRIV_NONE@$0NEB@@server@@SAXXZ 00000001401da340 f   server1.obj
 0001:001d9360       ?run@?$_icmd_strstr@$0NEA@@server@@SAXPEAD0@Z 00000001401da360 f   server1.obj
 0001:001d93a0       ?run@?$_icmd_clienthasscf@$0NDP@@server@@SAXPEAH@Z 00000001401da3a0 f   server1.obj
 0001:001d9420       ?run@?$_icmd_givequadsecs@$0NDJ@@server@@SAXPEAH0@Z 00000001401da420 f   server1.obj
 0001:001d9500       ?run@?$_icmd_givehpboost@$0NCN@@server@@SAXPEAH0@Z 00000001401da500 f   server1.obj
 0001:001d95e0       ?run@?$_icmd_givehp@$0NCB@@server@@SAXPEAH0@Z 00000001401da5e0 f   server1.obj
 0001:001d96c0       ?run@?$_icmd_giveammo@$0NBF@@server@@SAXPEAH00@Z 00000001401da6c0 f   server1.obj
 0001:001d97d0       ?run@?$_icmd_setmoney@$0NAJ@@server@@SAXPEAHPEAM@Z 00000001401da7d0 f   server1.obj
 0001:001d98c0       ?run@?$_icmd_givemoney@$0MPO@@server@@SAXPEAHPEAM@Z 00000001401da8c0 f   server1.obj
 0001:001d99c0       ?run@?$_icmd_getmoney@$0MPD@@server@@SAXPEAH@Z 00000001401da9c0 f   server1.obj
 0001:001d9a40       ?run@?$_icmd_getauthdesc@$0MON@@server@@SAXPEAH@Z 00000001401daa40 f   server1.obj
 0001:001d9ad0       ?run@?$_icmd_getauthname@$0MOH@@server@@SAXPEAH@Z 00000001401daad0 f   server1.obj
 0001:001d9b60       ?run@?$_icmd_setclientpriv@$0MOB@@server@@SAXPEAH0@Z 00000001401dab60 f   server1.obj
 0001:001d9df0       ?run@?$_icmd_getclientpriv@$0MMI@@server@@SAXPEAH@Z 00000001401dadf0 f   server1.obj
 0001:001d9e80       ?run@?$_icmd_getownernum@$0MLP@@server@@SAXPEAH@Z 00000001401dae80 f   server1.obj
 0001:001d9f10       ?run@?$_icmd_getclientteam@$0MLG@@server@@SAXPEAH@Z 00000001401daf10 f   server1.obj
 0001:001d9ff0       ?run@?$_icmd_getclientname@$0MKN@@server@@SAXPEAH@Z 00000001401daff0 f   server1.obj
 0001:001da0d0       ?run@?$_icmd_isbot@$0MKE@@server@@SAXPEAH@Z 00000001401db0d0 f   server1.obj
 0001:001da170       ?run@?$_icmd_isvalidcn@$0MJK@@server@@SAXPEAH@Z 00000001401db170 f   server1.obj
 0001:001da200       ?run@?$_icmd_clientmsg@$0MJB@@server@@SAXPEAHPEBD@Z 00000001401db200 f   server1.obj
 0001:001da290       ?run@?$_icmd_servmsg@$0MIM@@server@@SAXPEBD@Z 00000001401db290 f   server1.obj
 0001:001da2c0       ?parsecommand@server@@YAXPEAUclientinfo@1@PEAD@Z 00000001401db2c0 f   server1.obj
 0001:001da490       ?runcommand@server@@YAXHPEBDPEAUservcmd@1@@Z 00000001401db490 f   server1.obj
 0001:001da4e0       ?run@?$_icmd_addcommand@$0MGG@@server@@SAXPEBD0PEAH1@Z 00000001401db4e0 f   server1.obj
 0001:001da680       ?run@?$_icmd_explode_count@$0MEJ@@server@@SAXPEAD0@Z 00000001401db680 f   server1.obj
 0001:001da780       ?run@?$_icmd_explode@$0MED@@server@@SAXPEAD0PEAH1@Z 00000001401db780 f   server1.obj
 0001:001da7f0       ?explodestr@server@@YAHPEADQEAPEADDH@Z 00000001401db7f0 f   server1.obj
 0001:001da8a0       ?sendclipboard@server@@YAXPEAUclientinfo@1@@Z 00000001401db8a0 f   server1.obj
 0001:001da9c0       ?receivefile@server@@YAXHPEAEH@Z 00000001401db9c0 f   server1.obj
 0001:001daae0       ?answerchallenge@server@@YA_NPEAUclientinfo@1@IPEADPEBD@Z 00000001401dbae0 f   server1.obj
 0001:001dad80       ?tryauth@server@@YA_NPEAUclientinfo@1@PEBD1@Z 00000001401dbd80 f   server1.obj
 0001:001db0a0       ?authchallenged@server@@YAXIPEBD0@Z 00000001401dc0a0 f   server1.obj
 0001:001db130       ?authsucceeded@server@@YAXI@Z 00000001401dc130 f   server1.obj
 0001:001db290       ?authfailed@server@@YAXI@Z 00000001401dc290 f   server1.obj
 0001:001db2e0       ?authfailed@server@@YAXPEAUclientinfo@1@@Z 00000001401dc2e0 f   server1.obj
 0001:001db360       ?findauth@server@@YAPEAUclientinfo@1@I@Z 00000001401dc360 f   server1.obj
 0001:001db3b0       ?allowconnect@server@@YAHPEAUclientinfo@1@PEBD@Z 00000001401dc3b0 f   server1.obj
 0001:001db550       ?addgban@server@@YAXPEBD@Z 00000001401dc550 f   server1.obj
 0001:001db6d0       ?checkgban@server@@YA_NI@Z 00000001401dc6d0 f   server1.obj
 0001:001db710       ?cleargbans@server@@YAXXZ  00000001401dc710 f   server1.obj
 0001:001db730       ?noclients@server@@YAXXZ   00000001401dc730 f   server1.obj
 0001:001db750       ?sendservinfo@server@@YAXPEAUclientinfo@1@@Z 00000001401dc750 f   server1.obj
 0001:001db7c0       ?unspectate@server@@YAXPEAUclientinfo@1@@Z 00000001401dc7c0 f   server1.obj
 0001:001db940       ?shouldspectate@server@@YA_NPEAUclientinfo@1@@Z 00000001401dc940 f   server1.obj
 0001:001db980       ?checkmaps@server@@YAXH@Z  00000001401dc980 f   server1.obj
 0001:001dbf00       ?scfsendmap@server@@YAXPEAUclientinfo@1@@Z 00000001401dcf00 f   server1.obj
 0001:001dc030       ?forcespectator@server@@YAXPEAUclientinfo@1@@Z 00000001401dd030 f   server1.obj
 0001:001dc100       ?cleartimedevents@server@@YAXPEAUclientinfo@1@@Z 00000001401dd100 f   server1.obj
 0001:001dc280       ?processevents@server@@YAXXZ 00000001401dd280 f   server1.obj
 0001:001dc3b0       ?flushevents@server@@YAXPEAUclientinfo@1@H@Z 00000001401dd3b0 f   server1.obj
 0001:001dc460       ?clearevent@server@@YAXPEAUclientinfo@1@@Z 00000001401dd460 f   server1.obj
 0001:001dc4d0       ?flush@timedevent@server@@UEAA_NPEAUclientinfo@2@H@Z 00000001401dd4d0 f   server1.obj
 0001:001dc510       ?flush@gameevent@server@@UEAA_NPEAUclientinfo@2@H@Z 00000001401dd510 f   server1.obj
 0001:001dc530       ?process@pickupevent@server@@UEAAXPEAUclientinfo@2@@Z 00000001401dd530 f   server1.obj
 0001:001dc590       ?process@shotevent@server@@UEAAXPEAUclientinfo@2@@Z 00000001401dd590 f   server1.obj
 0001:001dc900       ?process@explodeevent@server@@UEAAXPEAUclientinfo@2@@Z 00000001401dd900 f   server1.obj
 0001:001dcbe0       ?process@suicideevent@server@@UEAAXPEAUclientinfo@2@@Z 00000001401ddbe0 f   server1.obj
 0001:001dcbf0       ?suicide@server@@YAXPEAUclientinfo@1@@Z 00000001401ddbf0 f   server1.obj
 0001:001dce30       ?run@?$_icmd_scfent@$0JJP@@server@@SAXPEAHPEAM11000000@Z 00000001401dde30 f   server1.obj
 0001:001dcf90       ?run@?$_icmd_dodamage@$0JJH@@server@@SAXPEAH0@Z 00000001401ddf90 f   server1.obj
 0001:001dd000       ?dodamage@server@@YAXPEAUclientinfo@1@0HHAEBUvec@@@Z 00000001401de000 f   server1.obj
 0001:001dd560       ?run@?$_icmd_onfrag@$0JFM@@server@@SAXPEBD@Z 00000001401de560 f   server1.obj
 0001:001dd600       ?run@?$_icmd_flush_onfrag@$0JFG@@server@@SAXXZ 00000001401de600 f   server1.obj
 0001:001dd6f0       ?startintermission@server@@YAXXZ 00000001401de6f0 f   server1.obj
 0001:001dd720       ?checkintermission@server@@YAXXZ 00000001401de720 f   server1.obj
 0001:001dd7d0       ?vote@server@@YAXPEBDHH@Z  00000001401de7d0 f   server1.obj
 0001:001ddac0       ?checkvotes@server@@YAX_N@Z 00000001401deac0 f   server1.obj
 0001:001dde10       ?rotatemap@server@@YAX_N@Z 00000001401dee10 f   server1.obj
 0001:001ddf90       ?changemap@server@@YAXPEBDH@Z 00000001401def90 f   server1.obj
 0001:001de4a0       ?run@?$_icmd_onchangemap@$0IJA@@server@@SAXPEBD@Z 00000001401df4a0 f   server1.obj
 0001:001de540       ?run@?$_icmd_flush_onchangemap@$0IIK@@server@@SAXXZ 00000001401df540 f   server1.obj
 0001:001de630       ?loaditems@server@@YAXXZ   00000001401df630 f   server1.obj
 0001:001de840       ?sendinitclient@server@@YAXPEAUclientinfo@1@@Z 00000001401df840 f   server1.obj
 0001:001de910       ?sendresume@server@@YAXPEAUclientinfo@1@@Z 00000001401df910 f   server1.obj
 0001:001de9d0       ?restorescore@server@@YA_NPEAUclientinfo@1@@Z 00000001401df9d0 f   server1.obj
 0001:001dea10       ?welcomepacket@server@@YAHAEAUpacketbuf@@PEAUclientinfo@1@@Z 00000001401dfa10 f   server1.obj
 0001:001df0c0       ?hasmap@server@@YA_NPEAUclientinfo@1@@Z 00000001401e00c0 f   server1.obj
 0001:001df1c0       ?welcomeinitclient@server@@YAXAEAUpacketbuf@@H@Z 00000001401e01c0 f   server1.obj
 0001:001df380       ?putinitclient@server@@YAXPEAUclientinfo@1@AEAUpacketbuf@@@Z 00000001401e0380 f   server1.obj
 0001:001df4f0       ?sendwelcome@server@@YAXPEAUclientinfo@1@@Z 00000001401e04f0 f   server1.obj
 0001:001df5d0       ?sendspawn@server@@YAXPEAUclientinfo@1@@Z 00000001401e05d0 f   server1.obj
 0001:001df680       ?spawnstate@server@@YAXPEAUclientinfo@1@@Z 00000001401e0680 f   server1.obj
 0001:001df6c0       ?buildworldstate@server@@YA_NXZ 00000001401e06c0 f   server1.obj
 0001:001dfea0       ?flushclientposition@server@@YAXAEAUclientinfo@1@@Z 00000001401e0ea0 f   server1.obj
 0001:001dffb0       ?cleanworldstate@server@@YAXPEAU_ENetPacket@@@Z 00000001401e0fb0 f   server1.obj
 0001:001e0070       ?checktype@server@@YAHHPEAUclientinfo@1@@Z 00000001401e1070 f   server1.obj
 0001:001e0190       ?savescore@server@@YAXPEAUclientinfo@1@@Z 00000001401e1190 f   server1.obj
 0001:001e0230       ?findscore@server@@YAPEAUsavedscore@1@PEAUclientinfo@1@_N@Z 00000001401e1230 f   server1.obj
 0001:001e04d0       ?trykick@server@@YA_NPEAUclientinfo@1@HPEBD11H_N@Z 00000001401e14d0 f   server1.obj
 0001:001e07b0       ?run@?$_icmd_onkick@$0GGN@@server@@SAXPEBD@Z 00000001401e17b0 f   server1.obj
 0001:001e0850       ?run@?$_icmd_flush_onkick@$0GGH@@server@@SAXXZ 00000001401e1850 f   server1.obj
 0001:001e0940       ?setmaster@server@@YA_NPEAUclientinfo@1@_NPEBD22H11@Z 00000001401e1940 f   server1.obj
 0001:001e0e50       ?run@?$_icmd_onsetmaster@$0GAP@@server@@SAXPEBD@Z 00000001401e1e50 f   server1.obj
 0001:001e0ef0       ?run@?$_icmd_flush_onsetmaster@$0GAJ@@server@@SAXXZ 00000001401e1ef0 f   server1.obj
 0001:001e0fe0       ?revokemaster@server@@YAXPEAUclientinfo@1@@Z 00000001401e1fe0 f   server1.obj
 0001:001e1010       ?checkpassword@server@@YA_NPEAUclientinfo@1@PEBD1@Z 00000001401e2010 f   server1.obj
 0001:001e1070       ?clearusers@server@@YAXXZ  00000001401e2070 f   server1.obj
 0001:001e1080       ?adduser@server@@YAXPEAD000@Z 00000001401e2080 f   server1.obj
 0001:001e1280       ?changegamespeed@server@@YAXHPEAUclientinfo@1@@Z 00000001401e2280 f   server1.obj
 0001:001e12e0       ?checkpausegame@server@@YAXXZ 00000001401e22e0 f   server1.obj
 0001:001e1390       ?run@?$_icmd_pausegame@$0FJJ@@server@@SAXPEAH@Z 00000001401e2390 f   server1.obj
 0001:001e13e0       ?pausegame@server@@YAX_NPEAUclientinfo@1@@Z 00000001401e23e0 f   server1.obj
 0001:001e1440       ?readdemo@server@@YAXXZ    00000001401e2440 f   server1.obj
 0001:001e1590       ?setupdemoplayback@server@@YAXXZ 00000001401e2590 f   server1.obj
 0001:001e18a0       ?enddemoplayback@server@@YAXXZ 00000001401e28a0 f   server1.obj
 0001:001e19a0       ?senddemo@server@@YAXPEAUclientinfo@1@H@Z 00000001401e29a0 f   server1.obj
 0001:001e1ad0       ?cleardemos@server@@YAXH@Z 00000001401e2ad0 f   server1.obj
 0001:001e1be0       ?listdemos@server@@YAXH@Z  00000001401e2be0 f   server1.obj
 0001:001e1d40       ?setupdemorecord@server@@YAXXZ 00000001401e2d40 f   server1.obj
 0001:001e1ed0       ?writedemo@server@@YAXHPEAXH@Z 00000001401e2ed0 f   server1.obj
 0001:001e1f60       ?enddemorecord@server@@YAXXZ 00000001401e2f60 f   server1.obj
 0001:001e1fe0       ?adddemo@server@@YAXXZ     00000001401e2fe0 f   server1.obj
 0001:001e21d0       ?prunedemos@server@@YAXH@Z 00000001401e31d0 f   server1.obj
 0001:001e2260       ?chooseworstteam@server@@YAPEBDPEBDPEAUclientinfo@1@@Z 00000001401e3260 f   server1.obj
 0001:001e2440       ?autoteam@server@@YAXXZ    00000001401e3440 f   server1.obj
 0001:001e2a00       ?choosebestclient@server@@YAPEAUclientinfo@1@AEAM@Z 00000001401e3a00 f   server1.obj
 0001:001e2ab0       ?addteaminfo@server@@YAPEAUteaminfo@@PEBD@Z 00000001401e3ab0 f   server1.obj
 0001:001e2d00       ?pruneteaminfo@server@@YA_NXZ 00000001401e3d00 f   server1.obj
 0001:001e2eb0       ?teamhasplayers@server@@YA_NPEBD@Z 00000001401e3eb0 f   server1.obj
 0001:001e2f20       ?clearteaminfo@server@@YAXXZ 00000001401e3f20 f   server1.obj
 0001:001e2fb0       ?pickup@server@@YA_NHH@Z   00000001401e3fb0 f   server1.obj
 0001:001e30f0       ?spawntime@server@@YAHH@Z  00000001401e40f0 f   server1.obj
 0001:001e3210       ?canspawnitem@server@@YA_NH@Z 00000001401e4210 f   server1.obj
 0001:001e3270       ?run@?$_icmd_onscoreflag@$0DPC@@server@@SAXPEBD@Z 00000001401e4270 f   server1.obj
 0001:001e3310       ?run@?$_icmd_flush_onscoreflag@$0DOM@@server@@SAXXZ 00000001401e4310 f   server1.obj
 0001:001e3400       ?colorname@server@@YAPEBDPEAUclientinfo@1@PEAD@Z 00000001401e4400 f   server1.obj
 0001:001e34d0       ?duplicatename@server@@YA_NPEAUclientinfo@1@PEAD@Z 00000001401e44d0 f   server1.obj
 0001:001e3560       ?numclients@server@@YAHH_N00@Z 00000001401e4560 f   server1.obj
 0001:001e35e0       ?run@?$_icmd_halt@$0DKH@@server@@SAXXZ 00000001401e45e0 f   server1.obj
 0001:001e35f0       ?run@?$_icmd_onshutdown@$0DIM@@server@@SAXPEBD@Z 00000001401e45f0 f   server1.obj
 0001:001e3690       ?run@?$_icmd_flush_onshutdown@$0DIG@@server@@SAXXZ 00000001401e4690 f   server1.obj
 0001:001e3780       ?run@?$_icmd_savevar@$0DHM@@server@@SAXPEAD0@Z 00000001401e4780 f   server1.obj
 0001:001e37e0       ?run@?$_icmd_clearvar@$0DHE@@server@@SAXPEAD@Z 00000001401e47e0 f   server1.obj
 0001:001e3840       ?serveroption@server@@YA_NPEBD@Z 00000001401e4840 f   server1.obj
 0001:001e38e0       ?resetitems@server@@YAXXZ  00000001401e48e0 f   server1.obj
 0001:001e3900       ?sendservmsgf@server@@YAXPEBDZZ 00000001401e4900 f   server1.obj
 0001:001e3970       ?privname@server@@YAPEBDH@Z 00000001401e4970 f   server1.obj
 0001:001e39b0       ?getinfo@server@@YAPEAUclientinfo@1@H@Z 00000001401e49b0 f   server1.obj
 0001:001e3a10       ?checkteamkills@server@@YAXXZ 00000001401e4a10 f   server1.obj
 0001:001e3bf0       ?addteamkill@server@@YAXPEAUclientinfo@1@0H@Z 00000001401e4bf0 f   server1.obj
 0001:001e3cf0       ?addteamkillkick@server@@YAXPEADPEAH1@Z 00000001401e4cf0 f   server1.obj
 0001:001e3df0       ?teamkillkickreset@server@@YAXXZ 00000001401e4df0 f   server1.obj
 0001:001e3e10       ?var_publicserver@server@@YAXXZ 00000001401e4e10 f   server1.obj
 0001:001e3e50       ?addmaprotations@server@@YAXPEAUtagval@@H@Z 00000001401e4e50 f   server1.obj
 0001:001e4090       ?addmaprotation@server@@YA_NHPEBD@Z 00000001401e5090 f   server1.obj
 0001:001e41a0       ?genmodemask@server@@YAHAEAU?$vector@PEAD@@@Z 00000001401e51a0 f   server1.obj
 0001:001e4340       ?searchmodename@server@@YA_NPEBD0@Z 00000001401e5340 f   server1.obj
 0001:001e43e0       ?findmaprotation@server@@YAHHPEBD@Z 00000001401e53e0 f   server1.obj
 0001:001e4680       ?nextmaprotation@server@@YAXXZ 00000001401e5680 f   server1.obj
 0001:001e46e0       ?maprotationreset@server@@YAXXZ 00000001401e56e0 f   server1.obj
 0001:001e4700       ?kickclients@server@@YAXIPEAUclientinfo@1@H@Z 00000001401e5700 f   server1.obj
 0001:001e47e0       ?addban@server@@YAXIH@Z    00000001401e57e0 f   server1.obj
 0001:001e48c0       ?var_defaultgamemode@server@@YAXXZ 00000001401e58c0 f   server1.obj
 0001:001e4900       ?hashpassword@server@@YAXHHPEBDPEADH@Z 00000001401e5900 f   server1.obj
 0001:001e4a10       ?forcemap@server@@YAXPEBDH@Z 00000001401e5a10 f   server1.obj
 0001:001e4b20       ?forcepaused@server@@YAX_N@Z 00000001401e5b20 f   server1.obj
 0001:001e4b70       ?msgsizelookup@server@@YAHH@Z 00000001401e5b70 f   server1.obj
 0001:001e4bf0       ?stopdemo@server@@YAXXZ    00000001401e5bf0 f   server1.obj
 0001:001e4c30       ?forcegamespeed@server@@YAXH@Z 00000001401e5c30 f   server1.obj
 0001:001e4c90       ?modename@server@@YAPEBDHPEBD@Z 00000001401e5c90 f   server1.obj
 0001:001e4cc0       ?mastermodename@server@@YAPEBDHPEBD@Z 00000001401e5cc0 f   server1.obj
 0001:001e4cf0       ?delayspawn@server@@YA_NH@Z 00000001401e5cf0 f   server1.obj
 0001:001e4d40       ?parseoptions@game@@YAXAEAU?$vector@PEBD@@@Z 00000001401e5d40 f   server1.obj
 0001:001e4e10       ?servercompatible@server@@YA_NPEAD00HAEBU?$vector@H@@H@Z 00000001401e5e10 f   server1.obj
 0001:001e4e30       ?newclientinfo@server@@YAPEAXXZ 00000001401e5e30 f   server1.obj
 0001:001e4e70       ?deleteclientinfo@server@@YAXPEAX@Z 00000001401e5e70 f   server1.obj
 0001:001e4ea0       ?recordpacket@server@@YAXHPEAXH@Z 00000001401e5ea0 f   server1.obj
 0001:001e4eb0       ?allowbroadcast@server@@YA_NH@Z 00000001401e5eb0 f   server1.obj
 0001:001e4f20       ?clientdisconnect@server@@YAXH@Z 00000001401e5f20 f   server1.obj
 0001:001e5260       ?sendservmsg@server@@YAXPEBD@Z 00000001401e6260 f   server1.obj
 0001:001e5290       ?parsepacket@server@@YAXHHAEAUpacketbuf@@@Z 00000001401e6290 f   server1.obj
 0001:001e86d0       ?masterdisconnected@server@@YAXXZ 00000001401e96d0 f   server1.obj
 0001:001e8780       ?defaultmaster@server@@YAPEBDXZ 00000001401e9780 f   server1.obj
 0001:001e8790       ?masterport@server@@YAHXZ  00000001401e9790 f   server1.obj
 0001:001e87a0       ?processmasterinput@server@@YAXPEBDH0@Z 00000001401e97a0 f   server1.obj
 0001:001e89b0       ?serverinforeply@server@@YAXAEAU?$databuf@E@@0@Z 00000001401e99b0 f   server1.obj
 0001:001e8c10       ?masterconnected@server@@YAXXZ 00000001401e9c10 f   server1.obj
 0001:001e8c20       ?serverupdate@server@@YAXXZ 00000001401e9c20 f   server1.obj
 0001:001e9060       ?sendpackets@server@@YA_N_N@Z 00000001401ea060 f   server1.obj
 0001:001e90f0       ?scaletime@server@@YAHH@Z  00000001401ea0f0 f   server1.obj
 0001:001e9110       ?ispaused@server@@YA_NXZ   00000001401ea110 f   server1.obj
 0001:001e9120       ?clientconnect@server@@YAHHI@Z 00000001401ea120 f   server1.obj
 0001:001e92f0       ?localdisconnect@server@@YAXH@Z 00000001401ea2f0 f   server1.obj
 0001:001e9340       ?localconnect@server@@YAXH@Z 00000001401ea340 f   server1.obj
 0001:001e94f0       ?close@server@@YAXXZ       00000001401ea4f0 f   server1.obj
 0001:001e97d0       ?reserveclients@server@@YAHXZ 00000001401ea7d0 f   server1.obj
 0001:001e97e0       ?serverinfoport@server@@YAHH@Z 00000001401ea7e0 f   server1.obj
 0001:001e9800       ?laninfoport@server@@YAHXZ 00000001401ea800 f   server1.obj
 0001:001e9810       ?serverinit@server@@YAXXZ  00000001401ea810 f   server1.obj
 0001:001e9840       ?serverport@server@@YAHH@Z 00000001401ea840 f   server1.obj
 0001:001e9860       ?numchannels@server@@YAHXZ 00000001401ea860 f   server1.obj
 0001:001e9870       ?gameident@game@@YAPEBDXZ  00000001401ea870 f   server1.obj
 0001:001e9878       ?_GetEstablisherFrame@@YAPEA_KPEA_KPEAU_xDISPATCHER_CONTEXT@@PEBU_s_FuncInfo@@0@Z 00000001401ea878 f   LIBCMT:trnsctrl.obj
 0001:001e9944       ?_GetRangeOfTrysToCheck@@YAPEBU_s_TryBlockMapEntry@@PEA_KPEBU_s_FuncInfo@@HHPEAI2PEAU_xDISPATCHER_CONTEXT@@@Z 00000001401ea944 f   LIBCMT:trnsctrl.obj
 0001:001e9a70       ?__FrameUnwindToEmptyState@@YAXPEA_KPEAU_xDISPATCHER_CONTEXT@@PEBU_s_FuncInfo@@@Z 00000001401eaa70 f   LIBCMT:trnsctrl.obj
 0001:001e9b04       ?__SehTransFilter@@YAHPEAU_EXCEPTION_POINTERS@@PEAUEHExceptionRecord@@PEA_KPEAU_CONTEXT@@PEAU_xDISPATCHER_CONTEXT@@PEBU_s_FuncInfo@@PEAH@Z 00000001401eab04 f   LIBCMT:trnsctrl.obj
 0001:001e9ba8       _CallSETranslator          00000001401eaba8 f   LIBCMT:trnsctrl.obj
 0001:001e9bfc       _CreateFrameInfo           00000001401eabfc f   LIBCMT:trnsctrl.obj
 0001:001e9c40       _FindAndUnlinkFrame        00000001401eac40 f   LIBCMT:trnsctrl.obj
 0001:001e9ca0       _GetImageBase              00000001401eaca0 f   LIBCMT:trnsctrl.obj
 0001:001e9cb8       _GetThrowImageBase         00000001401eacb8 f   LIBCMT:trnsctrl.obj
 0001:001e9cd0       _IsExceptionObjectToBeDestroyed 00000001401eacd0 f   LIBCMT:trnsctrl.obj
 0001:001e9d04       _SetImageBase              00000001401ead04 f   LIBCMT:trnsctrl.obj
 0001:001e9d20       _SetThrowImageBase         00000001401ead20 f   LIBCMT:trnsctrl.obj
 0001:001e9d3c       _UnwindNestedFrames        00000001401ead3c f   LIBCMT:trnsctrl.obj
 0001:001e9e60       __CxxFrameHandler3         00000001401eae60 f   LIBCMT:trnsctrl.obj
 0001:001e9ef0       __vdecl_expf4              00000001401eaef0 f   LIBCMT:svml_sexpf4_dispatch.obj
 0001:001e9f04       acosf                      00000001401eaf04 f   LIBCMT:acosf.obj
 0001:001ea190       asinf                      00000001401eb190 f   LIBCMT:asinf.obj
 0001:001ea3e4       atan2f                     00000001401eb3e4 f   LIBCMT:atan2f.obj
 0001:001ea864       atanf                      00000001401eb864 f   LIBCMT:atanf.obj
 0001:001eaab0       cos                        00000001401ebab0 f   LIBCMT:cos.obj
 0001:001eb010       cosf                       00000001401ec010 f   LIBCMT:cosf.obj
 0001:001eb510       expf                       00000001401ec510 f   LIBCMT:expf.obj
 0001:001eb778       fmodf                      00000001401ec778 f   LIBCMT:fmodf.obj
 0001:001eba40       log10f                     00000001401eca40 f   LIBCMT:log10f.obj
 0001:001ebf30       logf                       00000001401ecf30 f   LIBCMT:logf.obj
 0001:001ec340       powf                       00000001401ed340 f   LIBCMT:powf.obj
 0001:001eced0       sinf                       00000001401eded0 f   LIBCMT:sinf.obj
 0001:001ed5a0       tanf                       00000001401ee5a0 f   LIBCMT:tanf.obj
 0001:001edbd4       __DestructExceptionObject  00000001401eebd4 f   LIBCMT:frame.obj
 0001:001edc44       ??0bad_exception@std@@QEAA@AEBV01@@Z 00000001401eec44 f i LIBCMT:frame.obj
 0001:001edc68       ??1bad_exception@std@@UEAA@XZ 00000001401eec68 f i LIBCMT:frame.obj
 0001:001edc78       ??_Ebad_exception@std@@UEAAPEAXI@Z 00000001401eec78 f i LIBCMT:frame.obj
 0001:001edc78       ??_Gbad_exception@std@@UEAAPEAXI@Z 00000001401eec78 f i LIBCMT:frame.obj
 0001:001ee56c       __AdjustPointer            00000001401ef56c f   LIBCMT:frame.obj
 0001:001ee590       __BuildCatchObject         00000001401ef590 f   LIBCMT:frame.obj
 0001:001ee648       __BuildCatchObjectHelper   00000001401ef648 f   LIBCMT:frame.obj
 0001:001ee898       __CxxCallCatchBlock        00000001401ef898 f   LIBCMT:frame.obj
 0001:001eea9c       __FrameUnwindFilter        00000001401efa9c f   LIBCMT:frame.obj
 0001:001eeaf0       __FrameUnwindToState       00000001401efaf0 f   LIBCMT:frame.obj
 0001:001eec84       __InternalCxxFrameHandler  00000001401efc84 f   LIBCMT:frame.obj
 0001:001eeea8       __TypeMatch                00000001401efea8 f   LIBCMT:frame.obj
 0001:001eefd8       ?__GetCurrentState@@YAHPEA_KPEAU_xDISPATCHER_CONTEXT@@PEBU_s_FuncInfo@@@Z 00000001401effd8 f   LIBCMT:ehstate.obj
 0001:001ef000       ?__GetUnwindTryBlock@@YAHPEA_KPEAU_xDISPATCHER_CONTEXT@@PEBU_s_FuncInfo@@@Z 00000001401f0000 f   LIBCMT:ehstate.obj
 0001:001ef02c       ?__SetState@@YAXPEA_KPEAU_xDISPATCHER_CONTEXT@@PEBU_s_FuncInfo@@H@Z 00000001401f002c f   LIBCMT:ehstate.obj
 0001:001ef038       ?__SetUnwindTryBlock@@YAXPEA_KPEAU_xDISPATCHER_CONTEXT@@PEBU_s_FuncInfo@@H@Z 00000001401f0038 f   LIBCMT:ehstate.obj
 0001:001ef074       ?__StateFromControlPc@@YAHPEBU_s_FuncInfo@@PEAU_xDISPATCHER_CONTEXT@@@Z 00000001401f0074 f   LIBCMT:ehstate.obj
 0001:001ef07c       ?__StateFromIp@@YAHPEBU_s_FuncInfo@@PEAU_xDISPATCHER_CONTEXT@@_J@Z 00000001401f007c f   LIBCMT:ehstate.obj
 0001:001ef110       __sse2_expf4               00000001401f0110 f   LIBCMT:svml_sexpf4_sse2.obj
 0001:001ef390       __sse4_expf4               00000001401f0390 f   LIBCMT:svml_sexpf4_sse4.obj
 0001:001ef600       _clrfp                     00000001401f0600 f   LIBCMT:fpctrl.obj
 0001:001ef620       _ctrlfp                    00000001401f0620 f   LIBCMT:fpctrl.obj
 0001:001ef69c       _set_statfp                00000001401f069c f   LIBCMT:fpctrl.obj
 0001:001ef6bc       _statfp                    00000001401f06bc f   LIBCMT:fpctrl.obj
 0001:001ef7f4       _handle_error              00000001401f07f4 f   LIBCMT:libm_error.obj
 0001:001ef91c       _handle_errorf             00000001401f091c f   LIBCMT:libm_error.obj
 0001:001efa50       __fma3_lib_init            00000001401f0a50 f   LIBCMT:fma3_available.obj
 0001:001efa90       __remainder_piby2_forAsm   00000001401f0a90 f   LIBCMT:remainder_piby2_forAsm.obj
 0001:001efca0       __remainder_piby2_cw_forAsm 00000001401f0ca0 f   LIBCMT:remainder_piby2_forAsm.obj
 0001:001efde0       __remainder_piby2_fma3     00000001401f0de0 f   LIBCMT:remainder_piby2_forFMA3.obj
 0001:001effd0       __remainder_piby2_fma3_bdl 00000001401f0fd0 f   LIBCMT:remainder_piby2_forFMA3.obj
 0001:001f0048       _cos_special               00000001401f1048 f   LIBCMT:sincos_special.obj
 0001:001f005c       _cosf_special              00000001401f105c f   LIBCMT:sincos_special.obj
 0001:001f0070       _sincos_special            00000001401f1070 f   LIBCMT:sincos_special.obj
 0001:001f0144       _sincosf_special           00000001401f1144 f   LIBCMT:sincos_special.obj
 0001:001f01e0       _sinf_special              00000001401f11e0 f   LIBCMT:sincos_special.obj
 0001:001f01f4       _tanf_special              00000001401f11f4 f   LIBCMT:sincos_special.obj
 0001:001f0210       __remainder_piby2d2f_forAsm 00000001401f1210 f   LIBCMT:remainder_piby2f_forAsm.obj
 0001:001f0360       _expf_special              00000001401f1360 f   LIBCMT:exp_special.obj
 0001:001f0440       _log10f_special            00000001401f1440 f   LIBCMT:log_special.obj
 0001:001f0460       _logf_special              00000001401f1460 f   LIBCMT:log_special.obj
 0001:001f05a0       _powf_special              00000001401f15a0 f   LIBCMT:pow_special.obj
 0001:001f06d0       __remainder_piby2d2f_forC  00000001401f16d0 f   LIBCMT:remainder_piby2f_forC.obj
 0001:001f085c       ?_ValidateRead@@YAHPEBXI@Z 00000001401f185c f   LIBCMT:validate.obj
 0001:001f085c       ?_ValidateWrite@@YAHPEAXI@Z 00000001401f185c f   LIBCMT:validate.obj
 0001:001f085c       ?_ValidateExecute@@YAHP6A_JXZ@Z 00000001401f185c f   LIBCMT:validate.obj
 0001:001f0880       _CallSettingFrame          00000001401f1880 f   LIBCMT:handlers.obj
 0001:001f08c0       _GetNextInstrOffset        00000001401f18c0 f   LIBCMT:handlers.obj
 0001:001f08c8       ??0exception@std@@QEAA@AEBQEBD@Z 00000001401f18c8 f   LIBCMT:stdexcpt.obj
 0001:001f08f8       ??0exception@std@@QEAA@AEBV01@@Z 00000001401f18f8 f   LIBCMT:stdexcpt.obj
 0001:001f0924       ??1exception@std@@UEAA@XZ  00000001401f1924 f   LIBCMT:stdexcpt.obj
 0001:001f0934       ??4exception@std@@QEAAAEAV01@AEBV01@@Z 00000001401f1934 f   LIBCMT:stdexcpt.obj
 0001:001f0978       ??_Gexception@std@@UEAAPEAXI@Z 00000001401f1978 f i LIBCMT:stdexcpt.obj
 0001:001f0978       ??_Eexception@std@@UEAAPEAXI@Z 00000001401f1978 f i LIBCMT:stdexcpt.obj
 0001:001f09b4       ?_Copy_str@exception@std@@AEAAXPEBD@Z 00000001401f19b4 f   LIBCMT:stdexcpt.obj
 0001:001f0a10       ?_Tidy@exception@std@@AEAAXXZ 00000001401f1a10 f   LIBCMT:stdexcpt.obj
 0001:001f0a38       ?what@exception@std@@UEBAPEBDXZ 00000001401f1a38 f   LIBCMT:stdexcpt.obj
 0001:001f0a4c       _CxxThrowException         00000001401f1a4c f   LIBCMT:throw.obj
 0001:001f0b30       _get_fpsr                  00000001401f1b30 f   LIBCMT:fpsr.obj
 0001:001f0b40       _set_fpsr                  00000001401f1b40 f   LIBCMT:fpsr.obj
 0001:001f0b4a       _fclrf                     00000001401f1b4a f   LIBCMT:fpsr.obj
 0001:001f0b5e       _frnd                      00000001401f1b5e f   LIBCMT:fpsr.obj
 0001:001f0b80       _raise_exc                 00000001401f1b80 f   LIBCMT:fpexcept.obj
 0001:001f0ba8       _raise_exc_ex              00000001401f1ba8 f   LIBCMT:fpexcept.obj
 0001:001f0eac       _raise_excf                00000001401f1eac f   LIBCMT:fpexcept.obj
 0001:001f0ed8       _set_errno_from_matherr    00000001401f1ed8 f   LIBCMT:fpexcept.obj
 0001:001f7470       ??__Fmeshgroups@?1??sharemeshes@animmodel@@QEAAPEAUmeshgroup@1@PEBDZZ@YAXXZ 00000001401f8470 f i rendermodel.obj
 0001:001f7480       ??__Fskeletons@?4??shareskeleton@skelmeshgroup@skelmodel@@QEAAXPEAD@Z@YAXXZ 00000001401f8480 f i rendermodel.obj
 0001:001f8470       ??__Ftargets@?O@??aidefend@captureclientmode@game@@UEAA_NPEAUfpsent@@AEAUaistate@ai@@@Z@YAXXZ 00000001401f9470 f i client1.obj
 0001:001f8490       ??__Ftargets@?5??aifind@captureclientmode@game@@UEAAXPEAUfpsent@@AEAUaistate@ai@@AEAU?$vector@Uinterest@ai@@@@@Z@YAXXZ 00000001401f9490 f i client1.obj
 0001:001f84b0       ??__Ftargets@?BA@??aidefend@ctfclientmode@game@@UEAA_NPEAUfpsent@@AEAUaistate@ai@@@Z@YAXXZ 00000001401f94b0 f i client1.obj
 0001:001f84d0       ??__Ftargets@?6??aifind@ctfclientmode@game@@UEAAXPEAUfpsent@@AEAUaistate@ai@@AEAU?$vector@Uinterest@ai@@@@@Z@YAXXZ 00000001401f94d0 f i client1.obj
 0001:001f84f0       ??__Ftakenflags@?1??aicheck@ctfclientmode@game@@UEAA_NPEAUfpsent@@AEAUaistate@ai@@@Z@YAXXZ 00000001401f94f0 f i client1.obj
 0001:001f8510       ??__Finterests@?4??aihomerun@ctfclientmode@game@@QEAA_NPEAUfpsent@@AEAUaistate@ai@@@Z@YAXXZ 00000001401f9510 f i client1.obj
 0002:00000000       __imp_RaiseException       00000001401fa000     kernel32:KERNEL32.dll
 0002:00000008       __imp_RtlPcToFileHeader    00000001401fa008     kernel32:KERNEL32.dll
 0002:00000010       __imp_SetEnvironmentVariableA 00000001401fa010     kernel32:KERNEL32.dll
 0002:00000018       __imp_SetEndOfFile         00000001401fa018     kernel32:KERNEL32.dll
 0002:00000020       __imp_CreateFileW          00000001401fa020     kernel32:KERNEL32.dll
 0002:00000028       __imp_OutputDebugStringW   00000001401fa028     kernel32:KERNEL32.dll
 0002:00000030       __imp_GetStringTypeW       00000001401fa030     kernel32:KERNEL32.dll
 0002:00000038       __imp_WriteConsoleW        00000001401fa038     kernel32:KERNEL32.dll
 0002:00000040       __imp_SetStdHandle         00000001401fa040     kernel32:KERNEL32.dll
 0002:00000048       __imp_LCMapStringW         00000001401fa048     kernel32:KERNEL32.dll
 0002:00000050       __imp_GetModuleFileNameA   00000001401fa050     kernel32:KERNEL32.dll
 0002:00000058       __imp_GetProcessHeap       00000001401fa058     kernel32:KERNEL32.dll
 0002:00000060       __imp_FlushFileBuffers     00000001401fa060     kernel32:KERNEL32.dll
 0002:00000068       __imp_ReadConsoleW         00000001401fa068     kernel32:KERNEL32.dll
 0002:00000070       __imp_SetFilePointerEx     00000001401fa070     kernel32:KERNEL32.dll
 0002:00000078       __imp_GetFileType          00000001401fa078     kernel32:KERNEL32.dll
 0002:00000080       __imp_GetTimeZoneInformation 00000001401fa080     kernel32:KERNEL32.dll
 0002:00000088       __imp_LoadLibraryExW       00000001401fa088     kernel32:KERNEL32.dll
 0002:00000090       __imp_GetModuleFileNameW   00000001401fa090     kernel32:KERNEL32.dll
 0002:00000098       __imp_DeleteCriticalSection 00000001401fa098     kernel32:KERNEL32.dll
 0002:000000a0       __imp_GetCurrentThreadId   00000001401fa0a0     kernel32:KERNEL32.dll
 0002:000000a8       __imp_GetCPInfo            00000001401fa0a8     kernel32:KERNEL32.dll
 0002:000000b0       __imp_GetOEMCP             00000001401fa0b0     kernel32:KERNEL32.dll
 0002:000000b8       __imp_GetACP               00000001401fa0b8     kernel32:KERNEL32.dll
 0002:000000c0       __imp_IsValidCodePage      00000001401fa0c0     kernel32:KERNEL32.dll
 0002:000000c8       __imp_GetConsoleMode       00000001401fa0c8     kernel32:KERNEL32.dll
 0002:000000d0       __imp_GetConsoleCP         00000001401fa0d0     kernel32:KERNEL32.dll
 0002:000000d8       __imp_WriteFile            00000001401fa0d8     kernel32:KERNEL32.dll
 0002:000000e0       __imp_GetModuleHandleW     00000001401fa0e0     kernel32:KERNEL32.dll
 0002:000000e8       __imp_GetStartupInfoW      00000001401fa0e8     kernel32:KERNEL32.dll
 0002:000000f0       __imp_TlsFree              00000001401fa0f0     kernel32:KERNEL32.dll
 0002:000000f8       __imp_TlsSetValue          00000001401fa0f8     kernel32:KERNEL32.dll
 0002:00000100       __imp_TlsGetValue          00000001401fa100     kernel32:KERNEL32.dll
 0002:00000108       __imp_TlsAlloc             00000001401fa108     kernel32:KERNEL32.dll
 0002:00000110       __imp_TerminateProcess     00000001401fa110     kernel32:KERNEL32.dll
 0002:00000118       __imp_Sleep                00000001401fa118     kernel32:KERNEL32.dll
 0002:00000120       __imp_InitializeCriticalSectionAndSpinCount 00000001401fa120     kernel32:KERNEL32.dll
 0002:00000128       __imp_SetLastError         00000001401fa128     kernel32:KERNEL32.dll
 0002:00000130       __imp_SetUnhandledExceptionFilter 00000001401fa130     kernel32:KERNEL32.dll
 0002:00000138       __imp_UnhandledExceptionFilter 00000001401fa138     kernel32:KERNEL32.dll
 0002:00000140       __imp_RtlVirtualUnwind     00000001401fa140     kernel32:KERNEL32.dll
 0002:00000148       __imp_RtlLookupFunctionEntry 00000001401fa148     kernel32:KERNEL32.dll
 0002:00000150       __imp_RtlCaptureContext    00000001401fa150     kernel32:KERNEL32.dll
 0002:00000158       __imp_MoveFileExW          00000001401fa158     kernel32:KERNEL32.dll
 0002:00000160       __imp_DeleteFileW          00000001401fa160     kernel32:KERNEL32.dll
 0002:00000168       __imp_LeaveCriticalSection 00000001401fa168     kernel32:KERNEL32.dll
 0002:00000170       __imp_EnterCriticalSection 00000001401fa170     kernel32:KERNEL32.dll
 0002:00000178       __imp_IsDebuggerPresent    00000001401fa178     kernel32:KERNEL32.dll
 0002:00000180       __imp_RtlUnwindEx          00000001401fa180     kernel32:KERNEL32.dll
 0002:00000188       __imp_HeapSize             00000001401fa188     kernel32:KERNEL32.dll
 0002:00000190       __imp_HeapFree             00000001401fa190     kernel32:KERNEL32.dll
 0002:00000198       __imp_IsProcessorFeaturePresent 00000001401fa198     kernel32:KERNEL32.dll
 0002:000001a0       __imp_HeapAlloc            00000001401fa1a0     kernel32:KERNEL32.dll
 0002:000001a8       __imp_ReadFile             00000001401fa1a8     kernel32:KERNEL32.dll
 0002:000001b0       __imp_GetSystemTimeAsFileTime 00000001401fa1b0     kernel32:KERNEL32.dll
 0002:000001b8       __imp_WideCharToMultiByte  00000001401fa1b8     kernel32:KERNEL32.dll
 0002:000001c0       __imp_GetProcAddress       00000001401fa1c0     kernel32:KERNEL32.dll
 0002:000001c8       __imp_GetModuleHandleExW   00000001401fa1c8     kernel32:KERNEL32.dll
 0002:000001d0       __imp_ExitProcess          00000001401fa1d0     kernel32:KERNEL32.dll
 0002:000001d8       __imp_MultiByteToWideChar  00000001401fa1d8     kernel32:KERNEL32.dll
 0002:000001e0       __imp_AreFileApisANSI      00000001401fa1e0     kernel32:KERNEL32.dll
 0002:000001e8       __imp_GetLastError         00000001401fa1e8     kernel32:KERNEL32.dll
 0002:000001f0       __imp_DecodePointer        00000001401fa1f0     kernel32:KERNEL32.dll
 0002:000001f8       __imp_EncodePointer        00000001401fa1f8     kernel32:KERNEL32.dll
 0002:00000200       __imp_GetSystemInfo        00000001401fa200     kernel32:KERNEL32.dll
 0002:00000208       __imp_FindClose            00000001401fa208     kernel32:KERNEL32.dll
 0002:00000210       __imp_FindNextFileA        00000001401fa210     kernel32:KERNEL32.dll
 0002:00000218       __imp_FindFirstFileA       00000001401fa218     kernel32:KERNEL32.dll
 0002:00000220       __imp_CreateDirectoryA     00000001401fa220     kernel32:KERNEL32.dll
 0002:00000228       __imp_GetFileAttributesA   00000001401fa228     kernel32:KERNEL32.dll
 0002:00000230       __imp_CloseHandle          00000001401fa230     kernel32:KERNEL32.dll
 0002:00000238       __imp_UnmapViewOfFile      00000001401fa238     kernel32:KERNEL32.dll
 0002:00000240       __imp_MapViewOfFile        00000001401fa240     kernel32:KERNEL32.dll
 0002:00000248       __imp_OpenFileMappingA     00000001401fa248     kernel32:KERNEL32.dll
 0002:00000250       __imp_GetCurrentThread     00000001401fa250     kernel32:KERNEL32.dll
 0002:00000258       __imp_GlobalUnlock         00000001401fa258     kernel32:KERNEL32.dll
 0002:00000260       __imp_GlobalLock           00000001401fa260     kernel32:KERNEL32.dll
 0002:00000268       __imp_GlobalSize           00000001401fa268     kernel32:KERNEL32.dll
 0002:00000270       __imp_GetCurrentProcess    00000001401fa270     kernel32:KERNEL32.dll
 0002:00000278       __imp_SetPriorityClass     00000001401fa278     kernel32:KERNEL32.dll
 0002:00000280       __imp_GetCommandLineA      00000001401fa280     kernel32:KERNEL32.dll
 0002:00000288       __imp_SetConsoleOutputCP   00000001401fa288     kernel32:KERNEL32.dll
 0002:00000290       __imp_SetConsoleCP         00000001401fa290     kernel32:KERNEL32.dll
 0002:00000298       __imp_SetConsoleScreenBufferSize 00000001401fa298     kernel32:KERNEL32.dll
 0002:000002a0       __imp_GetConsoleScreenBufferInfo 00000001401fa2a0     kernel32:KERNEL32.dll
 0002:000002a8       __imp_GetStdHandle         00000001401fa2a8     kernel32:KERNEL32.dll
 0002:000002b0       __imp_SetConsoleTitleA     00000001401fa2b0     kernel32:KERNEL32.dll
 0002:000002b8       __imp_GetConsoleWindow     00000001401fa2b8     kernel32:KERNEL32.dll
 0002:000002c0       __imp_SetConsoleCtrlHandler 00000001401fa2c0     kernel32:KERNEL32.dll
 0002:000002c8       __imp_AllocConsole         00000001401fa2c8     kernel32:KERNEL32.dll
 0002:000002d0       __imp_WriteConsoleA        00000001401fa2d0     kernel32:KERNEL32.dll
 0002:000002d8       __imp_GetCurrentProcessId  00000001401fa2d8     kernel32:KERNEL32.dll
 0002:000002e0       __imp_GetEnvironmentStringsW 00000001401fa2e0     kernel32:KERNEL32.dll
 0002:000002e8       __imp_FreeEnvironmentStringsW 00000001401fa2e8     kernel32:KERNEL32.dll
 0002:000002f0       __imp_HeapReAlloc          00000001401fa2f0     kernel32:KERNEL32.dll
 0002:000002f8       __imp_GetDateFormatW       00000001401fa2f8     kernel32:KERNEL32.dll
 0002:00000300       __imp_GetTimeFormatW       00000001401fa300     kernel32:KERNEL32.dll
 0002:00000308       __imp_CompareStringW       00000001401fa308     kernel32:KERNEL32.dll
 0002:00000310       __imp_QueryPerformanceCounter 00000001401fa310     kernel32:KERNEL32.dll
 0002:00000318       \177KERNEL32_NULL_THUNK_DATA 00000001401fa318     kernel32:KERNEL32.dll
 0002:00000320       __imp_glReadPixels         00000001401fa320     opengl32:OPENGL32.dll
 0002:00000328       __imp_glLoadMatrixf        00000001401fa328     opengl32:OPENGL32.dll
 0002:00000330       __imp_glFrustum            00000001401fa330     opengl32:OPENGL32.dll
 0002:00000338       __imp_glMultMatrixf        00000001401fa338     opengl32:OPENGL32.dll
 0002:00000340       __imp_glPolygonOffset      00000001401fa340     opengl32:OPENGL32.dll
 0002:00000348       __imp_glIsEnabled          00000001401fa348     opengl32:OPENGL32.dll
 0002:00000350       __imp_glFogf               00000001401fa350     opengl32:OPENGL32.dll
 0002:00000358       __imp_glClear              00000001401fa358     opengl32:OPENGL32.dll
 0002:00000360       __imp_glColorMask          00000001401fa360     opengl32:OPENGL32.dll
 0002:00000368       __imp_glCopyTexImage2D     00000001401fa368     opengl32:OPENGL32.dll
 0002:00000370       __imp_glMaterialfv         00000001401fa370     opengl32:OPENGL32.dll
 0002:00000378       __imp_glLightfv            00000001401fa378     opengl32:OPENGL32.dll
 0002:00000380       __imp_glAlphaFunc          00000001401fa380     opengl32:OPENGL32.dll
 0002:00000388       __imp_glTexGeni            00000001401fa388     opengl32:OPENGL32.dll
 0002:00000390       __imp_glLightModelfv       00000001401fa390     opengl32:OPENGL32.dll
 0002:00000398       __imp_glColor4ubv          00000001401fa398     opengl32:OPENGL32.dll
 0002:000003a0       __imp_glDepthRange         00000001401fa3a0     opengl32:OPENGL32.dll
 0002:000003a8       __imp_glTexGenfv           00000001401fa3a8     opengl32:OPENGL32.dll
 0002:000003b0       __imp_glColor4fv           00000001401fa3b0     opengl32:OPENGL32.dll
 0002:000003b8       __imp_glTexEnvi            00000001401fa3b8     opengl32:OPENGL32.dll
 0002:000003c0       __imp_glTexEnvfv           00000001401fa3c0     opengl32:OPENGL32.dll
 0002:000003c8       __imp_glTexCoord4f         00000001401fa3c8     opengl32:OPENGL32.dll
 0002:000003d0       __imp_glHint               00000001401fa3d0     opengl32:OPENGL32.dll
 0002:000003d8       __imp_glTexImage1D         00000001401fa3d8     opengl32:OPENGL32.dll
 0002:000003e0       __imp_glTexImage2D         00000001401fa3e0     opengl32:OPENGL32.dll
 0002:000003e8       __imp_glTexCoord3f         00000001401fa3e8     opengl32:OPENGL32.dll
 0002:000003f0       __imp_glGetTexLevelParameteriv 00000001401fa3f0     opengl32:OPENGL32.dll
 0002:000003f8       __imp_glCullFace           00000001401fa3f8     opengl32:OPENGL32.dll
 0002:00000400       __imp_glFrontFace          00000001401fa400     opengl32:OPENGL32.dll
 0002:00000408       __imp_glFogi               00000001401fa408     opengl32:OPENGL32.dll
 0002:00000410       __imp_glShadeModel         00000001401fa410     opengl32:OPENGL32.dll
 0002:00000418       __imp_glClearDepth         00000001401fa418     opengl32:OPENGL32.dll
 0002:00000420       __imp_glClearColor         00000001401fa420     opengl32:OPENGL32.dll
 0002:00000428       __imp_glGetIntegerv        00000001401fa428     opengl32:OPENGL32.dll
 0002:00000430       __imp_glGetString          00000001401fa430     opengl32:OPENGL32.dll
 0002:00000438       __imp_glColor3ubv          00000001401fa438     opengl32:OPENGL32.dll
 0002:00000440       __imp_glPolygonMode        00000001401fa440     opengl32:OPENGL32.dll
 0002:00000448       __imp_glVertex3f           00000001401fa448     opengl32:OPENGL32.dll
 0002:00000450       __imp_glVertex2i           00000001401fa450     opengl32:OPENGL32.dll
 0002:00000458       __imp_glCopyTexSubImage2D  00000001401fa458     opengl32:OPENGL32.dll
 0002:00000460       __imp_glReadBuffer         00000001401fa460     opengl32:OPENGL32.dll
 0002:00000468       __imp_glDrawBuffer         00000001401fa468     opengl32:OPENGL32.dll
 0002:00000470       __imp_glFlush              00000001401fa470     opengl32:OPENGL32.dll
 0002:00000478       __imp_glDrawArrays         00000001401fa478     opengl32:OPENGL32.dll
 0002:00000480       __imp_glFogfv              00000001401fa480     opengl32:OPENGL32.dll
 0002:00000488       __imp_glGetFloatv          00000001401fa488     opengl32:OPENGL32.dll
 0002:00000490       __imp_glDeleteTextures     00000001401fa490     opengl32:OPENGL32.dll
 0002:00000498       __imp_glGenTextures        00000001401fa498     opengl32:OPENGL32.dll
 0002:000004a0       __imp_glTexParameteri      00000001401fa4a0     opengl32:OPENGL32.dll
 0002:000004a8       __imp_glTexParameterfv     00000001401fa4a8     opengl32:OPENGL32.dll
 0002:000004b0       __imp_glBindTexture        00000001401fa4b0     opengl32:OPENGL32.dll
 0002:000004b8       __imp_glPixelStorei        00000001401fa4b8     opengl32:OPENGL32.dll
 0002:000004c0       __imp_glTexSubImage2D      00000001401fa4c0     opengl32:OPENGL32.dll
 0002:000004c8       __imp_glBegin              00000001401fa4c8     opengl32:OPENGL32.dll
 0002:000004d0       __imp_glVertex3fv          00000001401fa4d0     opengl32:OPENGL32.dll
 0002:000004d8       __imp_glEnd                00000001401fa4d8     opengl32:OPENGL32.dll
 0002:000004e0       __imp_glEnable             00000001401fa4e0     opengl32:OPENGL32.dll
 0002:000004e8       __imp_glBlendFunc          00000001401fa4e8     opengl32:OPENGL32.dll
 0002:000004f0       __imp_glColor3ub           00000001401fa4f0     opengl32:OPENGL32.dll
 0002:000004f8       __imp_glDrawElements       00000001401fa4f8     opengl32:OPENGL32.dll
 0002:00000500       __imp_glDisable            00000001401fa500     opengl32:OPENGL32.dll
 0002:00000508       __imp_glPushMatrix         00000001401fa508     opengl32:OPENGL32.dll
 0002:00000510       __imp_glScalef             00000001401fa510     opengl32:OPENGL32.dll
 0002:00000518       __imp_glColor4f            00000001401fa518     opengl32:OPENGL32.dll
 0002:00000520       __imp_glTexCoord2fv        00000001401fa520     opengl32:OPENGL32.dll
 0002:00000528       __imp_glVertex2f           00000001401fa528     opengl32:OPENGL32.dll
 0002:00000530       __imp_glPopMatrix          00000001401fa530     opengl32:OPENGL32.dll
 0002:00000538       __imp_glColor3f            00000001401fa538     opengl32:OPENGL32.dll
 0002:00000540       __imp_glLineWidth          00000001401fa540     opengl32:OPENGL32.dll
 0002:00000548       __imp_glDepthFunc          00000001401fa548     opengl32:OPENGL32.dll
 0002:00000550       __imp_glViewport           00000001401fa550     opengl32:OPENGL32.dll
 0002:00000558       __imp_glScissor            00000001401fa558     opengl32:OPENGL32.dll
 0002:00000560       __imp_glColor3fv           00000001401fa560     opengl32:OPENGL32.dll
 0002:00000568       __imp_glColor4ub           00000001401fa568     opengl32:OPENGL32.dll
 0002:00000570       __imp_glTexCoord2f         00000001401fa570     opengl32:OPENGL32.dll
 0002:00000578       __imp_glTranslatef         00000001401fa578     opengl32:OPENGL32.dll
 0002:00000580       __imp_glRotatef            00000001401fa580     opengl32:OPENGL32.dll
 0002:00000588       __imp_glDepthMask          00000001401fa588     opengl32:OPENGL32.dll
 0002:00000590       __imp_glMatrixMode         00000001401fa590     opengl32:OPENGL32.dll
 0002:00000598       __imp_glLoadIdentity       00000001401fa598     opengl32:OPENGL32.dll
 0002:000005a0       __imp_glOrtho              00000001401fa5a0     opengl32:OPENGL32.dll
 0002:000005a8       __imp_glEnableClientState  00000001401fa5a8     opengl32:OPENGL32.dll
 0002:000005b0       __imp_glDisableClientState 00000001401fa5b0     opengl32:OPENGL32.dll
 0002:000005b8       __imp_glVertexPointer      00000001401fa5b8     opengl32:OPENGL32.dll
 0002:000005c0       __imp_glTexCoordPointer    00000001401fa5c0     opengl32:OPENGL32.dll
 0002:000005c8       __imp_glColorPointer       00000001401fa5c8     opengl32:OPENGL32.dll
 0002:000005d0       __imp_glNormalPointer      00000001401fa5d0     opengl32:OPENGL32.dll
 0002:000005d8       \177OPENGL32_NULL_THUNK_DATA 00000001401fa5d8     opengl32:OPENGL32.dll
 0002:000005e0       __imp_SDL_AllocRW          00000001401fa5e0     SDL:SDL.dll
 0002:000005e8       __imp_SDL_RWFromFile       00000001401fa5e8     SDL:SDL.dll
 0002:000005f0       __imp_SDL_UnlockAudio      00000001401fa5f0     SDL:SDL.dll
 0002:000005f8       __imp_SDL_LockAudio        00000001401fa5f8     SDL:SDL.dll
 0002:00000600       __imp_SDL_WM_SetCaption    00000001401fa600     SDL:SDL.dll
 0002:00000608       __imp_SDL_GetVideoInfo     00000001401fa608     SDL:SDL.dll
 0002:00000610       __imp_SDL_Linked_Version   00000001401fa610     SDL:SDL.dll
 0002:00000618       __imp_SDL_Init             00000001401fa618     SDL:SDL.dll
 0002:00000620       __imp_SDL_GL_SwapBuffers   00000001401fa620     SDL:SDL.dll
 0002:00000628       __imp_SDL_PeepEvents       00000001401fa628     SDL:SDL.dll
 0002:00000630       __imp_SDL_PumpEvents       00000001401fa630     SDL:SDL.dll
 0002:00000638       __imp_SDL_PollEvent        00000001401fa638     SDL:SDL.dll
 0002:00000640       __imp_SDL_SetVideoMode     00000001401fa640     SDL:SDL.dll
 0002:00000648       __imp_SDL_GL_SetAttribute  00000001401fa648     SDL:SDL.dll
 0002:00000650       __imp_SDL_VideoModeOK      00000001401fa650     SDL:SDL.dll
 0002:00000658       __imp_SDL_ListModes        00000001401fa658     SDL:SDL.dll
 0002:00000660       __imp_SDL_GetError         00000001401fa660     SDL:SDL.dll
 0002:00000668       __imp_SDL_SetGamma         00000001401fa668     SDL:SDL.dll
 0002:00000670       __imp_SDL_CondBroadcast    00000001401fa670     SDL:SDL.dll
 0002:00000678       __imp_SDL_CondWait         00000001401fa678     SDL:SDL.dll
 0002:00000680       __imp_SDL_CondSignal       00000001401fa680     SDL:SDL.dll
 0002:00000688       __imp_SDL_mutexV           00000001401fa688     SDL:SDL.dll
 0002:00000690       __imp_SDL_mutexP           00000001401fa690     SDL:SDL.dll
 0002:00000698       __imp_SDL_GetTicks         00000001401fa698     SDL:SDL.dll
 0002:000006a0       __imp_SDL_EnableKeyRepeat  00000001401fa6a0     SDL:SDL.dll
 0002:000006a8       __imp_SDL_WasInit          00000001401fa6a8     SDL:SDL.dll
 0002:000006b0       __imp_SDL_DestroyCond      00000001401fa6b0     SDL:SDL.dll
 0002:000006b8       __imp_SDL_Quit             00000001401fa6b8     SDL:SDL.dll
 0002:000006c0       __imp_SDL_WM_GrabInput     00000001401fa6c0     SDL:SDL.dll
 0002:000006c8       __imp_SDL_ShowCursor       00000001401fa6c8     SDL:SDL.dll
 0002:000006d0       __imp_SDL_GetModState      00000001401fa6d0     SDL:SDL.dll
 0002:000006d8       __imp_SDL_SaveBMP_RW       00000001401fa6d8     SDL:SDL.dll
 0002:000006e0       __imp_SDL_FreeRW           00000001401fa6e0     SDL:SDL.dll
 0002:000006e8       __imp_SDL_SetAlpha         00000001401fa6e8     SDL:SDL.dll
 0002:000006f0       __imp_SDL_FreeSurface      00000001401fa6f0     SDL:SDL.dll
 0002:000006f8       __imp_SDL_UpperBlit        00000001401fa6f8     SDL:SDL.dll
 0002:00000700       __imp_SDL_CreateRGBSurface 00000001401fa700     SDL:SDL.dll
 0002:00000708       __imp_SDL_CreateRGBSurfaceFrom 00000001401fa708     SDL:SDL.dll
 0002:00000710       __imp_SDL_GL_GetProcAddress 00000001401fa710     SDL:SDL.dll
 0002:00000718       __imp_SDL_EnableUNICODE    00000001401fa718     SDL:SDL.dll
 0002:00000720       __imp_SDL_KillThread       00000001401fa720     SDL:SDL.dll
 0002:00000728       __imp_SDL_ThreadID         00000001401fa728     SDL:SDL.dll
 0002:00000730       __imp_SDL_GetThreadID      00000001401fa730     SDL:SDL.dll
 0002:00000738       __imp_SDL_SetModuleHandle  00000001401fa738     SDL:SDL.dll
 0002:00000740       __imp_SDL_Delay            00000001401fa740     SDL:SDL.dll
 0002:00000748       __imp_SDL_RemoveTimer      00000001401fa748     SDL:SDL.dll
 0002:00000750       __imp_SDL_AddTimer         00000001401fa750     SDL:SDL.dll
 0002:00000758       __imp_SDL_WaitThread       00000001401fa758     SDL:SDL.dll
 0002:00000760       __imp_SDL_CreateMutex      00000001401fa760     SDL:SDL.dll
 0002:00000768       __imp_SDL_DestroyMutex     00000001401fa768     SDL:SDL.dll
 0002:00000770       __imp_SDL_CreateThread     00000001401fa770     SDL:SDL.dll
 0002:00000778       __imp_SDL_CreateCond       00000001401fa778     SDL:SDL.dll
 0002:00000780       __imp_SDL_CondWaitTimeout  00000001401fa780     SDL:SDL.dll
 0002:00000788       \177SDL_NULL_THUNK_DATA    00000001401fa788     SDL:SDL.dll
 0002:00000790       __imp_IMG_LoadTyped_RW     00000001401fa790     SDL_image:SDL_image.dll
 0002:00000798       __imp_IMG_Load             00000001401fa798     SDL_image:SDL_image.dll
 0002:000007a0       \177SDL_image_NULL_THUNK_DATA 00000001401fa7a0     SDL_image:SDL_image.dll
 0002:000007a8       __imp_Mix_Volume           00000001401fa7a8     SDL_mixer:SDL_mixer.dll
 0002:000007b0       __imp_Mix_SetPanning       00000001401fa7b0     SDL_mixer:SDL_mixer.dll
 0002:000007b8       __imp_Mix_HaltChannel      00000001401fa7b8     SDL_mixer:SDL_mixer.dll
 0002:000007c0       __imp_Mix_VolumeMusic      00000001401fa7c0     SDL_mixer:SDL_mixer.dll
 0002:000007c8       __imp_Mix_HaltMusic        00000001401fa7c8     SDL_mixer:SDL_mixer.dll
 0002:000007d0       __imp_Mix_FreeMusic        00000001401fa7d0     SDL_mixer:SDL_mixer.dll
 0002:000007d8       __imp_Mix_OpenAudio        00000001401fa7d8     SDL_mixer:SDL_mixer.dll
 0002:000007e0       __imp_Mix_AllocateChannels 00000001401fa7e0     SDL_mixer:SDL_mixer.dll
 0002:000007e8       __imp_Mix_ChannelFinished  00000001401fa7e8     SDL_mixer:SDL_mixer.dll
 0002:000007f0       __imp_Mix_LoadMUS          00000001401fa7f0     SDL_mixer:SDL_mixer.dll
 0002:000007f8       __imp_Mix_FadingChannel    00000001401fa7f8     SDL_mixer:SDL_mixer.dll
 0002:00000800       __imp_Mix_CloseAudio       00000001401fa800     SDL_mixer:SDL_mixer.dll
 0002:00000808       __imp_Mix_PlayingMusic     00000001401fa808     SDL_mixer:SDL_mixer.dll
 0002:00000810       __imp_Mix_PausedMusic      00000001401fa810     SDL_mixer:SDL_mixer.dll
 0002:00000818       __imp_Mix_ResumeMusic      00000001401fa818     SDL_mixer:SDL_mixer.dll
 0002:00000820       __imp_Mix_LoadWAV_RW       00000001401fa820     SDL_mixer:SDL_mixer.dll
 0002:00000828       __imp_Mix_FadeInChannelTimed 00000001401fa828     SDL_mixer:SDL_mixer.dll
 0002:00000830       __imp_Mix_PlayChannelTimed 00000001401fa830     SDL_mixer:SDL_mixer.dll
 0002:00000838       __imp_Mix_FadeOutChannel   00000001401fa838     SDL_mixer:SDL_mixer.dll
 0002:00000840       __imp_Mix_Linked_Version   00000001401fa840     SDL_mixer:SDL_mixer.dll
 0002:00000848       __imp_Mix_QuerySpec        00000001401fa848     SDL_mixer:SDL_mixer.dll
 0002:00000850       __imp_Mix_FreeChunk        00000001401fa850     SDL_mixer:SDL_mixer.dll
 0002:00000858       __imp_Mix_PlayMusic        00000001401fa858     SDL_mixer:SDL_mixer.dll
 0002:00000860       __imp_Mix_LoadMUS_RW       00000001401fa860     SDL_mixer:SDL_mixer.dll
 0002:00000868       __imp_Mix_SetPostMix       00000001401fa868     SDL_mixer:SDL_mixer.dll
 0002:00000870       \177SDL_mixer_NULL_THUNK_DATA 00000001401fa870     SDL_mixer:SDL_mixer.dll
 0002:00000878       __imp_SHGetFolderPathA     00000001401fa878     shell32:SHELL32.dll
 0002:00000880       __imp_Shell_NotifyIconA    00000001401fa880     shell32:SHELL32.dll
 0002:00000888       \177SHELL32_NULL_THUNK_DATA 00000001401fa888     shell32:SHELL32.dll
 0002:00000890       __imp_MessageBoxA          00000001401fa890     user32:USER32.dll
 0002:00000898       __imp_CloseClipboard       00000001401fa898     user32:USER32.dll
 0002:000008a0       __imp_GetClipboardData     00000001401fa8a0     user32:USER32.dll
 0002:000008a8       __imp_OpenClipboard        00000001401fa8a8     user32:USER32.dll
 0002:000008b0       __imp_IsClipboardFormatAvailable 00000001401fa8b0     user32:USER32.dll
 0002:000008b8       __imp_DispatchMessageA     00000001401fa8b8     user32:USER32.dll
 0002:000008c0       __imp_TranslateMessage     00000001401fa8c0     user32:USER32.dll
 0002:000008c8       __imp_PeekMessageA         00000001401fa8c8     user32:USER32.dll
 0002:000008d0       __imp_CreateWindowExA      00000001401fa8d0     user32:USER32.dll
 0002:000008d8       __imp_RegisterClassA       00000001401fa8d8     user32:USER32.dll
 0002:000008e0       __imp_CreatePopupMenu      00000001401fa8e0     user32:USER32.dll
 0002:000008e8       __imp_DestroyMenu          00000001401fa8e8     user32:USER32.dll
 0002:000008f0       __imp_LoadIconA            00000001401fa8f0     user32:USER32.dll
 0002:000008f8       __imp_DefWindowProcA       00000001401fa8f8     user32:USER32.dll
 0002:00000900       __imp_PostQuitMessage      00000001401fa900     user32:USER32.dll
 0002:00000908       __imp_ShowWindow           00000001401fa908     user32:USER32.dll
 0002:00000910       __imp_ModifyMenuA          00000001401fa910     user32:USER32.dll
 0002:00000918       __imp_PostMessageA         00000001401fa918     user32:USER32.dll
 0002:00000920       __imp_TrackPopupMenu       00000001401fa920     user32:USER32.dll
 0002:00000928       __imp_GetCursorPos         00000001401fa928     user32:USER32.dll
 0002:00000930       __imp_SetForegroundWindow  00000001401fa930     user32:USER32.dll
 0002:00000938       __imp_SendMessageA         00000001401fa938     user32:USER32.dll
 0002:00000940       __imp_UnregisterClassA     00000001401fa940     user32:USER32.dll
 0002:00000948       __imp_AppendMenuA          00000001401fa948     user32:USER32.dll
 0002:00000950       \177USER32_NULL_THUNK_DATA 00000001401fa950     user32:USER32.dll
 0002:00000958       __imp_timeBeginPeriod      00000001401fa958     winmm:WINMM.dll
 0002:00000960       __imp_timeGetTime          00000001401fa960     winmm:WINMM.dll
 0002:00000968       __imp_timeEndPeriod        00000001401fa968     winmm:WINMM.dll
 0002:00000970       \177WINMM_NULL_THUNK_DATA  00000001401fa970     winmm:WINMM.dll
 0002:00000978       __imp_WSASendTo            00000001401fa978     ws2_32:WS2_32.dll
 0002:00000980       __imp_closesocket          00000001401fa980     ws2_32:WS2_32.dll
 0002:00000988       __imp_shutdown             00000001401fa988     ws2_32:WS2_32.dll
 0002:00000990       __imp_accept               00000001401fa990     ws2_32:WS2_32.dll
 0002:00000998       __imp_WSAGetLastError      00000001401fa998     ws2_32:WS2_32.dll
 0002:000009a0       __imp_connect              00000001401fa9a0     ws2_32:WS2_32.dll
 0002:000009a8       __imp_getsockopt           00000001401fa9a8     ws2_32:WS2_32.dll
 0002:000009b0       __imp_ioctlsocket          00000001401fa9b0     ws2_32:WS2_32.dll
 0002:000009b8       __imp_setsockopt           00000001401fa9b8     ws2_32:WS2_32.dll
 0002:000009c0       __imp_socket               00000001401fa9c0     ws2_32:WS2_32.dll
 0002:000009c8       __imp_listen               00000001401fa9c8     ws2_32:WS2_32.dll
 0002:000009d0       __imp_WSARecvFrom          00000001401fa9d0     ws2_32:WS2_32.dll
 0002:000009d8       __imp_bind                 00000001401fa9d8     ws2_32:WS2_32.dll
 0002:000009e0       __imp_inet_ntoa            00000001401fa9e0     ws2_32:WS2_32.dll
 0002:000009e8       __imp_inet_addr            00000001401fa9e8     ws2_32:WS2_32.dll
 0002:000009f0       __imp_gethostbyname        00000001401fa9f0     ws2_32:WS2_32.dll
 0002:000009f8       __imp_WSACleanup           00000001401fa9f8     ws2_32:WS2_32.dll
 0002:00000a00       __imp_WSAStartup           00000001401faa00     ws2_32:WS2_32.dll
 0002:00000a08       __imp_ntohs                00000001401faa08     ws2_32:WS2_32.dll
 0002:00000a10       __imp_ntohl                00000001401faa10     ws2_32:WS2_32.dll
 0002:00000a18       __imp_htonl                00000001401faa18     ws2_32:WS2_32.dll
 0002:00000a20       __imp_htons                00000001401faa20     ws2_32:WS2_32.dll
 0002:00000a28       __imp___WSAFDIsSet         00000001401faa28     ws2_32:WS2_32.dll
 0002:00000a30       __imp_select               00000001401faa30     ws2_32:WS2_32.dll
 0002:00000a38       __imp_getsockname          00000001401faa38     ws2_32:WS2_32.dll
 0002:00000a40       __imp_gethostbyaddr        00000001401faa40     ws2_32:WS2_32.dll
 0002:00000a48       \177WS2_32_NULL_THUNK_DATA 00000001401faa48     ws2_32:WS2_32.dll
 0002:00000a50       __imp_SymGetLineFromAddr64 00000001401faa50     dbghelp:dbghelp.dll
 0002:00000a58       __imp_SymGetSymFromAddr64  00000001401faa58     dbghelp:dbghelp.dll
 0002:00000a60       __imp_SymFunctionTableAccess64 00000001401faa60     dbghelp:dbghelp.dll
 0002:00000a68       __imp_SymGetModuleBase64   00000001401faa68     dbghelp:dbghelp.dll
 0002:00000a70       __imp_StackWalk64          00000001401faa70     dbghelp:dbghelp.dll
 0002:00000a78       __imp_SymInitialize        00000001401faa78     dbghelp:dbghelp.dll
 0002:00000a80       \177dbghelp_NULL_THUNK_DATA 00000001401faa80     dbghelp:dbghelp.dll
 0002:00000a88       __imp_zError               00000001401faa88     zdll:zlib1.dll
 0002:00000a90       __imp_inflate              00000001401faa90     zdll:zlib1.dll
 0002:00000a98       __imp_inflateReset         00000001401faa98     zdll:zlib1.dll
 0002:00000aa0       __imp_inflateEnd           00000001401faaa0     zdll:zlib1.dll
 0002:00000aa8       __imp_deflateInit2_        00000001401faaa8     zdll:zlib1.dll
 0002:00000ab0       __imp_inflateInit2_        00000001401faab0     zdll:zlib1.dll
 0002:00000ab8       __imp_deflateEnd           00000001401faab8     zdll:zlib1.dll
 0002:00000ac0       __imp_deflate              00000001401faac0     zdll:zlib1.dll
 0002:00000ac8       __imp_deflateInit_         00000001401faac8     zdll:zlib1.dll
 0002:00000ad0       __imp_crc32                00000001401faad0     zdll:zlib1.dll
 0002:00000ad8       __imp_uncompress           00000001401faad8     zdll:zlib1.dll
 0002:00000ae0       __imp_compress2            00000001401faae0     zdll:zlib1.dll
 0002:00000ae8       __imp_compressBound        00000001401faae8     zdll:zlib1.dll
 0002:00000af0       \177zlib1_NULL_THUNK_DATA  00000001401faaf0     zdll:zlib1.dll
 0002:00000af8       __xc_a                     00000001401faaf8     LIBCMT:crt0init.obj
 0002:00003950       __xc_z                     00000001401fd950     LIBCMT:crt0init.obj
 0002:00003958       __xi_a                     00000001401fd958     LIBCMT:crt0init.obj
 0002:00003990       __xi_z                     00000001401fd990     LIBCMT:crt0init.obj
 0002:00003998       __xp_a                     00000001401fd998     LIBCMT:crt0init.obj
 0002:000039b8       __xp_z                     00000001401fd9b8     LIBCMT:crt0init.obj
 0002:000039c0       __xt_a                     00000001401fd9c0     LIBCMT:crt0init.obj
 0002:000039c8       __xt_z                     00000001401fd9c8     LIBCMT:crt0init.obj
 0002:00003b48       ??_7type_info@@6B@         00000001401fdb48     LIBCMT:typinfo.obj
 0002:00003b50       ??_C@_1BI@BGOHAHKC@?$AAm?$AAs?$AAc?$AAo?$AAr?$AAe?$AAe?$AA?4?$AAd?$AAl?$AAl?$AA?$AA@ 00000001401fdb50     LIBCMT:crt0dat.obj
 0002:00003b68       ??_C@_0P@MIGLKIOC@CorExitProcess?$AA@ 00000001401fdb68     LIBCMT:crt0dat.obj
 0002:00003b78       ??_C@_06OJHGLDPL@?$CInull?$CJ?$AA@ 00000001401fdb78     LIBCMT:output.obj
 0002:00003b80       ??_C@_1O@CEDCILHN@?$AA?$CI?$AAn?$AAu?$AAl?$AAl?$AA?$CJ?$AA?$AA@ 00000001401fdb80     LIBCMT:output.obj
 0002:00003b90       __lookuptable              00000001401fdb90     LIBCMT:output.obj
 0002:00003c00       ??_C@_1BK@MGMFAEKH@?$AAk?$AAe?$AAr?$AAn?$AAe?$AAl?$AA3?$AA2?$AA?4?$AAd?$AAl?$AAl?$AA?$AA@ 00000001401fdc00     LIBCMT:winapisupp.obj
 0002:00003c20       ??_C@_08KNHFBNJ@FlsAlloc?$AA@ 00000001401fdc20     LIBCMT:winapisupp.obj
 0002:00003c30       ??_C@_07PEJMOBNF@FlsFree?$AA@ 00000001401fdc30     LIBCMT:winapisupp.obj
 0002:00003c38       ??_C@_0M@GDNOONDI@FlsGetValue?$AA@ 00000001401fdc38     LIBCMT:winapisupp.obj
 0002:00003c48       ??_C@_0M@JCPCPOEF@FlsSetValue?$AA@ 00000001401fdc48     LIBCMT:winapisupp.obj
 0002:00003c58       ??_C@_0BM@HCFOFFN@InitializeCriticalSectionEx?$AA@ 00000001401fdc58     LIBCMT:winapisupp.obj
 0002:00003c78       ??_C@_0P@DLHPPCNH@CreateEventExW?$AA@ 00000001401fdc78     LIBCMT:winapisupp.obj
 0002:00003c88       ??_C@_0BD@KIEEOEEH@CreateSemaphoreExW?$AA@ 00000001401fdc88     LIBCMT:winapisupp.obj
 0002:00003ca0       ??_C@_0BI@BKLFFAPO@SetThreadStackGuarantee?$AA@ 00000001401fdca0     LIBCMT:winapisupp.obj
 0002:00003cb8       ??_C@_0BG@OGFAJCKC@CreateThreadpoolTimer?$AA@ 00000001401fdcb8     LIBCMT:winapisupp.obj
 0002:00003cd0       ??_C@_0BD@LPLEMMDI@SetThreadpoolTimer?$AA@ 00000001401fdcd0     LIBCMT:winapisupp.obj
 0002:00003ce8       ??_C@_0CA@FMNJENH@WaitForThreadpoolTimerCallbacks?$AA@ 00000001401fdce8     LIBCMT:winapisupp.obj
 0002:00003d08       ??_C@_0BF@DCFCCNOC@CloseThreadpoolTimer?$AA@ 00000001401fdd08     LIBCMT:winapisupp.obj
 0002:00003d20       ??_C@_0BF@FLABGKKM@CreateThreadpoolWait?$AA@ 00000001401fdd20     LIBCMT:winapisupp.obj
 0002:00003d38       ??_C@_0BC@MGCOHNA@SetThreadpoolWait?$AA@ 00000001401fdd38     LIBCMT:winapisupp.obj
 0002:00003d50       ??_C@_0BE@OCIOMIMP@CloseThreadpoolWait?$AA@ 00000001401fdd50     LIBCMT:winapisupp.obj
 0002:00003d68       ??_C@_0BJ@LKGHFHBO@FlushProcessWriteBuffers?$AA@ 00000001401fdd68     LIBCMT:winapisupp.obj
 0002:00003d88       ??_C@_0BP@KALKKPMO@FreeLibraryWhenCallbackReturns?$AA@ 00000001401fdd88     LIBCMT:winapisupp.obj
 0002:00003da8       ??_C@_0BK@DFNBACLA@GetCurrentProcessorNumber?$AA@ 00000001401fdda8     LIBCMT:winapisupp.obj
 0002:00003dc8       ??_C@_0BP@KHGALBC@GetLogicalProcessorInformation?$AA@ 00000001401fddc8     LIBCMT:winapisupp.obj
 0002:00003de8       ??_C@_0BE@FKKLLFLM@CreateSymbolicLinkW?$AA@ 00000001401fdde8     LIBCMT:winapisupp.obj
 0002:00003e00       ??_C@_0BJ@OHNKDLIJ@SetDefaultDllDirectories?$AA@ 00000001401fde00     LIBCMT:winapisupp.obj
 0002:00003e20       ??_C@_0BE@LJANKFHF@EnumSystemLocalesEx?$AA@ 00000001401fde20     LIBCMT:winapisupp.obj
 0002:00003e38       ??_C@_0BA@IHGNDAEB@CompareStringEx?$AA@ 00000001401fde38     LIBCMT:winapisupp.obj
 0002:00003e48       ??_C@_0BA@EPCJIIPD@GetDateFormatEx?$AA@ 00000001401fde48     LIBCMT:winapisupp.obj
 0002:00003e58       ??_C@_0BA@ONOKGCMP@GetLocaleInfoEx?$AA@ 00000001401fde58     LIBCMT:winapisupp.obj
 0002:00003e68       ??_C@_0BA@CIJJKCJJ@GetTimeFormatEx?$AA@ 00000001401fde68     LIBCMT:winapisupp.obj
 0002:00003e78       ??_C@_0BJ@PBCCBIPI@GetUserDefaultLocaleName?$AA@ 00000001401fde78     LIBCMT:winapisupp.obj
